L251 LINKER/LOCATER V4.66.93.0                                                          07/11/2022  11:40:15  PAGE 1


L251 LINKER/LOCATER V4.66.93.0, INVOKED BY:
C:\KEIL_V5\C251\BIN\L251.EXE LED.obj, ..\COMM\stc_usb_hid_32g.LIB TO LED CASE DISABLEWARNING (57) CLASSES (EDATA (0X0-0X
>> FFF), HDATA (0X0-0XFFF))


CPU MODE:     251 SOURCE MODE
INTR FRAME:   2 BYTES SAVED ON INTERRUPT
MEMORY MODEL: XSMALL WITH FLOATING POINT ARITHMETIC


INPUT MODULES INCLUDED:
  LED.obj (LED)
         COMMENT TYPE 0: C251 V5.60.0
  ..\COMM\stc_usb_hid_32g.LIB (usb)
         COMMENT TYPE 0: C251 V5.60.0
  ..\COMM\stc_usb_hid_32g.LIB (util)
         COMMENT TYPE 0: C251 V5.60.0
  ..\COMM\stc_usb_hid_32g.LIB (usb_req_class)
         COMMENT TYPE 0: C251 V5.60.0
  ..\COMM\stc_usb_hid_32g.LIB (usb_req_std)
         COMMENT TYPE 0: C251 V5.60.0
  ..\COMM\stc_usb_hid_32g.LIB (usb_req_vendor)
         COMMENT TYPE 0: C251 V5.60.0
  ..\COMM\stc_usb_hid_32g.LIB (usb_desc)
         COMMENT TYPE 0: C251 V5.60.0
  C:\KEIL_V5\C251\LIB\C2SFPXS.LIB (VSPRINTF)
         COMMENT TYPE 0: A251 V4.69.6.0
  C:\KEIL_V5\C251\LIB\C2SFPXS.LIB (?C?PRNFMT)
         COMMENT TYPE 0: A251 V4.69.6.0
  C:\KEIL_V5\C251\LIB\C2SFPXS.LIB (?C?FPCONVERT)
         COMMENT TYPE 0: A251 V4.69.6.0
  C:\KEIL_V5\C251\LIB\C2SFPXS.LIB (?C?FPMUL)
         COMMENT TYPE 0: A251 V4.69.6.0
  C:\KEIL_V5\C251\LIB\C2SFPXS.LIB (?C?FPDIV)
         COMMENT TYPE 0: A251 V4.69.6.0
  C:\KEIL_V5\C251\LIB\C2SFPXS.LIB (?C?FTNPWR)
         COMMENT TYPE 0: A251 V4.69.6.0
  C:\KEIL_V5\C251\LIB\C2SFPXS.LIB (?C?FPGETOPN)
         COMMENT TYPE 0: A251 V4.69.6.0
  C:\KEIL_V5\C251\LIB\C2SXS.LIB (?C_START)
         COMMENT TYPE 0: A251 V4.69.6.0
  C:\KEIL_V5\C251\LIB\C2SXS.LIB (?C?INITEDATA)
         COMMENT TYPE 0: A251 V4.69.6.0
  C:\KEIL_V5\C251\LIB\C2SXS.LIB (?C?LMUL)
         COMMENT TYPE 0: A251 V4.69.6.0
  C:\KEIL_V5\C251\LIB\C2SXS.LIB (STRCMP?_)
         COMMENT TYPE 0: A251 V4.69.6.0
  C:\KEIL_V5\C251\LIB\C2SXS.LIB (STRLEN)
         COMMENT TYPE 0: C251 V5.58.7
  C:\KEIL_V5\C251\LIB\C2SXS.LIB (memcpy)
         COMMENT TYPE 0: C251 V5.58.7
  C:\KEIL_V5\C251\LIB\C2SXS.LIB (?C?INITEDATA_END)
         COMMENT TYPE 0: A251 V4.69.6.0


ACTIVE MEMORY CLASSES OF MODULE:  LED (LED)

BASE        START       END         USED      MEMORY CLASS
==========================================================
000000H     000000H     000FFFH     000192H   EDATA
000000H     000000H     000FFFH               HDATA
000000H     FF0000H     FFFFFFH     000028H   HCONST
FF0000H     FF0000H     FFFFFFH     001CD6H   CODE
000020H.0   000020H.0   00002FH.7   000000H.4 BIT
010000H     010000H     01FFFFH     0000C0H   XDATA
FF0000H     FF0000H     FFFFFFH     000004H   CONST
L251 LINKER/LOCATER V4.66.93.0                                                        07/11/2022  11:40:15  PAGE 2


000000H     000000H     00007FH     000008H   DATA


MEMORY MAP OF MODULE:  LED (LED)


START     STOP      LENGTH    ALIGN  RELOC    MEMORY CLASS   SEGMENT NAME
=========================================================================
000000H   000007H   000008H   ---    AT..     DATA           "REG BANK 0"
000008H   000019H   000012H   BYTE   UNIT     EDATA          ?ED?USB
00001AH   00001EH   000005H   BYTE   UNIT     EDATA          ?ED?LCD12864_SETBUFFER?UTIL
00001FH   00001FH   000001H   BYTE   UNIT     EDATA          ?ED?USB_REQ_CLASS
000020H.0 000020H.2 000000H.3 BIT    UNIT     BIT            ?BI?USB
000020H.3 000020H.3 000000H.1 BIT    UNIT     BIT            ?BI?LED
000020H.4 000020H   000000H.4 ---    ---      **GAP**
000021H   00004CH   00002CH   BYTE   UNIT     EDATA          ?ED?SEG7_SHOWSTRING?UTIL
00004DH   000078H   00002CH   BYTE   UNIT     EDATA          ?ED?PRINTF_HID?UTIL
000079H   000087H   00000FH   BYTE   UNIT     EDATA          ?ED?LED
000088H   00008CH   000005H   BYTE   UNIT     EDATA          ?ED?OLED12864_SETBUFFER?UTIL
00008DH   000090H   000004H   BYTE   UNIT     EDATA          ?ED?SEG7_SHOWLONG?UTIL
000091H   000094H   000004H   BYTE   UNIT     EDATA          ?ED?VSPRINTF
000095H   000098H   000004H   BYTE   UNIT     EDATA          _EDATA_GROUP_
000099H   00009AH   000002H   BYTE   UNIT     EDATA          ?ED?LCD12864_SHOWSTRING?UTIL
00009BH   00019AH   000100H   BYTE   UNIT     EDATA          ?STACK
00019BH   00FFFFH   00FE65H   ---    ---      **GAP**
010000H   0100BFH   0000C0H   BYTE   INSEG    XDATA          ?XD?USB
0100C0H   FEFFFFH   FDFF40H   ---    ---      **GAP**
FF0000H   FF0002H   000003H   ---    OFFS..   CODE           ?CO?start251?4
FF0003H   FF0005H   000003H   BYTE   INSEG    CODE           ?PR?USB_GET_PROTOCOL?USB_REQ_CLASS
FF0006H   FF0008H   000003H   BYTE   INSEG    CODE           ?PR?USB_SET_PROTOCOL?USB_REQ_CLASS
FF0009H   FF0009H   000001H   BYTE   INSEG    CODE           ?PR?USB_SUSPEND?USB
FF000AH   FF000AH   000001H   BYTE   INSEG    CODE           ?PR?USB_RESUME?USB
FF000BH   FF000DH   000003H   ---    OFFS..   CODE           ?PR?IV?1
FF000EH   FF00A8H   00009BH   BYTE   INSEG    CODE           ?PR?USB_CLEAR_FEATURE?USB_REQ_STD
FF00A9H   FF00C7H   00001FH   BYTE   INSEG    CODE           ?PR?OLED12864_SETADDRESSMODE?UTIL
FF00C8H   FF00CAH   000003H   BYTE   INSEG    CODE           ?PR?USB_SET_DESCRIPTOR?USB_REQ_STD
FF00CBH   FF00CDH   000003H   ---    OFFS..   CODE           ?PR?IV?25
FF00CEH   FF0818H   00074BH   BYTE   UNIT     CODE           ?C?LIB_CODE
FF0819H   FF094BH   000133H   BYTE   INSEG    CODE           ?PR?HARDWAREMARQUEE?LED
FF094CH   FF0A4AH   0000FFH   BYTE   INSEG    CODE           ?PR?USB_GET_STATUS?USB_REQ_STD
FF0A4BH   FF0B38H   0000EEH   BYTE   UNIT     CODE           ?CO?LED
FF0B39H   FF0C14H   0000DCH   BYTE   INSEG    CODE           ?PR?USB_GET_DESCRIPTOR?USB_REQ_STD
FF0C15H   FF0CA9H   000095H   BYTE   INSEG    CODE           ?PR?USB_SET_FEATURE?USB_REQ_STD
FF0CAAH   FF0D38H   00008FH   BYTE   INSEG    CODE           ?PR?OLED12864_SETBUFFER?UTIL
FF0D39H   FF0DC7H   00008FH   BYTE   INSEG    CODE           ?PR?LCD12864_SETBUFFER?UTIL
FF0DC8H   FF0E54H   00008DH   BYTE   INSEG    CODE           ?PR?USB_SET_CONFIGURATION?USB_REQ_STD
FF0E55H   FF0EDEH   00008AH   BYTE   INSEG    CODE           ?PR?USB_SETUP?USB
FF0EDFH   FF0F5EH   000080H   BYTE   UNIT     CODE           ?CO?USB_DESC
FF0F5FH   FF0FDAH   00007CH   BYTE   INSEG    CODE           ?PR?USB_OUT_EP1?USB
FF0FDBH   FF1054H   00007AH   BYTE   INSEG    CODE           ?PR?USB_ISR?USB
FF1055H   FF10BEH   00006AH   BYTE   INSEG    CODE           ?PR?MAIN?LED
FF10BFH   FF1125H   000067H   BYTE   INSEG    CODE           ?PR?USB_CTRL_IN?USB
FF1126H   FF1181H   00005CH   BYTE   INSEG    CODE           ?PR?USB_REQ_STD?USB_REQ_STD
FF1182H   FF11D7H   000056H   BYTE   INSEG    CODE           ?PR?USB_CTRL_OUT?USB
FF11D8H   FF122BH   000054H   BYTE   INSEG    CODE           ?PR?USB_GET_CONFIGURATION?USB_REQ_STD
FF122CH   FF1278H   00004DH   BYTE   INSEG    CODE           ?PR?LCD12864_SHOWPICTURE?UTIL
FF1279H   FF12C3H   00004BH   BYTE   INSEG    CODE           ?PR?USB_INIT?USB
FF12C4H   FF130DH   00004AH   BYTE   INSEG    CODE           ?PR?USB_SET_ADDRESS?USB_REQ_STD
FF130EH   FF1352H   000045H   BYTE   INSEG    CODE           ?PR?SEG7_SHOWSTRING?UTIL
FF1353H   FF1365H   000013H   BYTE   UNIT     CODE           ?C_C51STARTUP
FF1366H   FF138EH   000029H   BYTE   UNIT     CODE           ?C_C51STARTUP?2
FF138FH   FF1391H   000003H   BYTE   UNIT     CODE           ?C_C51STARTUP?3
FF1392H   FF13CFH   00003EH   BYTE   INSEG    CODE           ?PR?OLED12864_SHOWPICTURE?UTIL
FF13D0H   FF140DH   00003EH   BYTE   INSEG    CODE           ?PR?LED40_SENDDATA?UTIL
FF140EH   FF144BH   00003EH   BYTE   INSEG    CODE           ?PR?LED64_SENDDATA?UTIL
L251 LINKER/LOCATER V4.66.93.0                                                        07/11/2022  11:40:15  PAGE 3


FF144CH   FF1489H   00003EH   BYTE   INSEG    CODE           ?PR?USB_GET_INTERFACE?USB_REQ_STD
FF148AH   FF14C6H   00003DH   BYTE   INSEG    CODE           ?PR?KEYRESETSCAN?LED
FF14C7H   FF1501H   00003BH   BYTE   INSEG    CODE           ?PR?SEG7_SHOWLONG?UTIL
FF1502H   FF153CH   00003BH   BYTE   INSEG    CODE           ?PR?LCD12864_SHOWSTRING?UTIL
FF153DH   FF1576H   00003AH   BYTE   INSEG    CODE           ?PR?USB_READ_FIFO?_?USB
FF1577H   FF15AEH   000038H   BYTE   INSEG    CODE           ?PR?USB_RESET?USB
FF15AFH   FF15E6H   000038H   BYTE   INSEG    CODE           ?PR?OLED12864_SCROLLRIGHT?UTIL
FF15E7H   FF161EH   000038H   BYTE   INSEG    CODE           ?PR?OLED12864_SCROLLUP?UTIL
FF161FH   FF1655H   000037H   BYTE   INSEG    CODE           ?PR?OLED12864_SCROLLLEFT?UTIL
FF1656H   FF168BH   000036H   BYTE   INSEG    CODE           ?PR?TIMER0_INT?LED
FF168CH   FF16C0H   000035H   BYTE   INSEG    CODE           ?PR?REVERSE2?UTIL
FF16C1H   FF16F3H   000033H   BYTE   INSEG    CODE           ?PR?SEG7_SHOWCODE?UTIL
FF16F4H   FF1724H   000031H   BYTE   INSEG    CODE           ?PR?SEG7_SHOWFLOAT?UTIL
FF1725H   FF1754H   000030H   BYTE   INSEG    CODE           ?PR?SOFTWAREMARQUEE?LED
FF1755H   FF1783H   00002FH   BYTE   INSEG    CODE           ?PR?PRINTF_HID?UTIL
FF1784H   FF17B1H   00002EH   BYTE   INSEG    CODE           ?PR?USB_REQ_CLASS?USB_REQ_CLASS
FF17B2H   FF17DEH   00002DH   BYTE   INSEG    CODE           ?PR?USB_IN_EP1?USB
FF17DFH   FF1808H   00002AH   BYTE   INSEG    CODE           ?PR?USB_GET_REPORT?USB_REQ_CLASS
FF1809H   FF1832H   00002AH   BYTE   INSEG    CODE           ?PR?USB_SET_REPORT?USB_REQ_CLASS
FF1833H   FF185BH   000029H   BYTE   INSEG    CODE           ?PR?USB_IN?USB
FF185CH   FF1884H   000029H   BYTE   INSEG    CODE           ?PR?USB_WRITE_FIFO?_?USB
FF1885H   FF18ACH   000028H   BYTE   INSEG    CODE           ?PR?USB_SET_INTERFACE?USB_REQ_STD
FF18ADH   FF18D2H   000026H   BYTE   INSEG    CODE           ?PR?USB_GET_IDLE?USB_REQ_CLASS
FF18D3H   FF18F7H   000025H   BYTE   INSEG    CODE           ?PR?LCD12864_SCROLLUP?UTIL
FF18F8H   FF191CH   000025H   BYTE   INSEG    CODE           ?PR?MEMCPY?_?MEMCPY
FF191DH   FF193BH   00001FH   BYTE   INSEG    CODE           ?PR?OLED12864_SETCONTRAST?UTIL
FF193CH   FF195AH   00001FH   BYTE   INSEG    CODE           ?PR?LCD12864_REVERSELINE?UTIL
FF195BH   FF1978H   00001EH   BYTE   INSEG    CODE           ?PR?USB_SET_IDLE?USB_REQ_CLASS
FF1979H   FF1995H   00001DH   BYTE   INSEG    CODE           ?PR?SLEEP_US?UTIL
FF1996H   FF19AFH   00001AH   BYTE   UNIT     CODE           ?PR?STRCMP?_
FF19B0H   FF19C8H   000019H   BYTE   INSEG    CODE           ?PR?USB_BULK_INTR_OUT?USB
FF19C9H   FF19E1H   000019H   BYTE   INSEG    CODE           ?PR?OLED12864_SETHEADER?UTIL
FF19E2H   FF19FAH   000019H   BYTE   INSEG    CODE           ?PR?LCD12864_SETHEADER?UTIL
FF19FBH   FF1A13H   000019H   BYTE   INSEG    CODE           ?PR?SEG7_SETHEADER?UTIL
FF1A14H   FF1A2BH   000018H   BYTE   INSEG    CODE           ?PR?USB_OUT_DONE?USB
FF1A2CH   FF1A43H   000018H   BYTE   INSEG    CODE           ?PR?OLED12864_SCROLLSTART?UTIL
FF1A44H   FF1A5BH   000018H   BYTE   INSEG    CODE           ?PR?OLED12864_DISPLAYON?UTIL
FF1A5CH   FF1A73H   000018H   BYTE   INSEG    CODE           ?PR?LCD12864_SCROLLRIGHT?UTIL
FF1A74H   FF1A8BH   000018H   BYTE   INSEG    CODE           ?PR?LCD12864_AUTOWRAPON?UTIL
FF1A8CH   FF1AA3H   000018H   BYTE   INSEG    CODE           ?PR?OLED12864_VERTICALMIRROR?UTIL
FF1AA4H   FF1ABBH   000018H   BYTE   INSEG    CODE           ?PR?LCD12864_CURSORRETURNHOME?UTIL
FF1ABCH   FF1AD3H   000018H   BYTE   INSEG    CODE           ?PR?OLED12864_DISPLAYENTIRE?UTIL
FF1AD4H   FF1AEBH   000018H   BYTE   INSEG    CODE           ?PR?LCD12864_DISPLAYON?UTIL
FF1AECH   FF1B03H   000018H   BYTE   INSEG    CODE           ?PR?LCD12864_CURSORMOVERIGHT?UTIL
FF1B04H   FF1B1BH   000018H   BYTE   INSEG    CODE           ?PR?SLEEP_MS?UTIL
FF1B1CH   FF1B33H   000018H   BYTE   INSEG    CODE           ?PR?LCD12864_CURSORON?UTIL
FF1B34H   FF1B4AH   000017H   BYTE   INSEG    CODE           ?PR?OLED12864_DISPLAYOFF?UTIL
FF1B4BH   FF1B61H   000017H   BYTE   INSEG    CODE           ?PR?LCD12864_AUTOWRAPOFF?UTIL
FF1B62H   FF1B78H   000017H   BYTE   INSEG    CODE           ?PR?OLED12864_SCROLLSTOP?UTIL
FF1B79H   FF1B8FH   000017H   BYTE   INSEG    CODE           ?PR?LCD12864_DISPLAYOFF?UTIL
FF1B90H   FF1BA6H   000017H   BYTE   INSEG    CODE           ?PR?LCD12864_SCROLLLEFT?UTIL
FF1BA7H   FF1BBDH   000017H   BYTE   INSEG    CODE           ?PR?OLED12864_HORIZONTALMIRROR?UTIL
FF1BBEH   FF1BD4H   000017H   BYTE   INSEG    CODE           ?PR?OLED12864_DISPLAYCONTENT?UTIL
FF1BD5H   FF1BEBH   000017H   BYTE   INSEG    CODE           ?PR?LCD12864_CURSOROFF?UTIL
FF1BECH   FF1C02H   000017H   BYTE   INSEG    CODE           ?PR?LCD12864_CURSORMOVELEFT?UTIL
FF1C03H   FF1C18H   000016H   BYTE   INSEG    CODE           ?PR?DELAY_MS?LED
FF1C19H   FF1C2DH   000015H   BYTE   INSEG    CODE           ?PR?USB_BULK_INTR_IN?USB
FF1C2EH   FF1C42H   000015H   BYTE   INSEG    CODE           ?PR?USB_READ_REG?USB
FF1C43H   FF1C55H   000013H   BYTE   INSEG    CODE           ?PR?USB_WRITE_REG?USB
FF1C56H   FF1C67H   000012H   BYTE   INSEG    CODE           ?PR?LCD12864_DISPLAYCLEAR?UTIL
FF1C68H   FF1C79H   000012H   BYTE   INSEG    CODE           ?PR?OLED12864_DISPLAYREVERSE?UTIL
FF1C7AH   FF1C8AH   000011H   BYTE   INSEG    CODE           ?PR?USB_SETUP_IN?USB
FF1C8BH   FF1C98H   00000EH   BYTE   INSEG    CODE           ?PR?TIMER0_INIT?LED
FF1C99H   FF1CA6H   00000EH   BYTE   INSEG    CODE           ?PR?USB_SETUP_OUT?USB
FF1CA7H   FF1CB4H   00000EH   BYTE   INSEG    CODE           ?PR?USB_SETUP_STALL?USB
L251 LINKER/LOCATER V4.66.93.0                                                        07/11/2022  11:40:15  PAGE 4


FF1CB5H   FF1CC2H   00000EH   BYTE   INSEG    CODE           ?PR?STRLEN?_?STRLEN
FF1CC3H   FF1CCFH   00000DH   BYTE   INSEG    CODE           ?PR?USB_SETUP_STATUS?USB
FF1CD0H   FF1CD2H   000003H   BYTE   INSEG    CODE           ?PR?USB_SYNCH_FRAME?USB_REQ_STD
FF1CD3H   FF1CD5H   000003H   BYTE   INSEG    CODE           ?PR?USB_REQ_VENDOR?USB_REQ_VENDOR
FF1CD6H   FF1CD9H   000004H   BYTE   UNIT     CONST          ?CO?PRINTF
FF1CDAH   FF1CF8H   00001FH   BYTE   UNIT     HCONST         ?C_INITEDATA
FF1CF9H   FF1D01H   000009H   BYTE   UNIT     HCONST         ?HC?LED



OVERLAY MAP OF MODULE:   LED (LED)


FUNCTION/MODULE                        EDATA_GROUP
--> CALLED FUNCTION/MODULE             START  STOP
==================================================
timer0_int/LED                         ----- -----
  +--> usb_OUT_done/usb
  +--> KeyResetScan/LED

usb_OUT_done/usb                       ----- -----
  +--> usb_write_reg/usb

usb_write_reg/usb                      ----- -----

KeyResetScan/LED                       ----- -----
  +--> delay_ms/LED

delay_ms/LED                           ----- -----

*** NEW ROOT *************************

usb_isr/usb                            ----- -----
  +--> usb_read_reg/usb
  +--> usb_resume/usb
  +--> usb_reset/usb
  +--> usb_setup/usb
  +--> usb_in_ep1/usb
  +--> usb_out_ep1/usb
  +--> usb_suspend/usb

usb_read_reg/usb                       ----- -----

usb_resume/usb                         ----- -----

usb_reset/usb                          ----- -----
  +--> usb_write_reg/usb

usb_setup/usb                          ----- -----
  +--> usb_write_reg/usb
  +--> usb_read_reg/usb
  +--> usb_read_fifo?_/usb
  +--> reverse2/util
  +--> usb_req_std/usb_req_std
  +--> usb_req_class/usb_req_class
  +--> usb_req_vendor/usb_req_vendor
  +--> usb_setup_stall/usb
  +--> usb_ctrl_in/usb
  +--> usb_ctrl_out/usb

usb_read_fifo?_/usb                    ----- -----
  +--> usb_read_reg/usb

reverse2/util                          0095H 0098H

L251 LINKER/LOCATER V4.66.93.0                                                        07/11/2022  11:40:15  PAGE 5


usb_req_std/usb_req_std                ----- -----
  +--> usb_get_status/usb_req_std
  +--> usb_clear_feature/usb_req_std
  +--> usb_set_feature/usb_req_std
  +--> usb_set_address/usb_req_std
  +--> usb_get_descriptor/usb_req_std
  +--> usb_set_descriptor/usb_req_std
  +--> usb_get_configuration/usb_req_std
  +--> usb_set_configuration/usb_req_std
  +--> usb_get_interface/usb_req_std
  +--> usb_set_interface/usb_req_std
  +--> usb_synch_frame/usb_req_std
  +--> usb_setup_stall/usb

usb_get_status/usb_req_std             ----- -----
  +--> usb_setup_stall/usb
  +--> usb_setup_in/usb

usb_setup_stall/usb                    ----- -----
  +--> usb_write_reg/usb

usb_setup_in/usb                       ----- -----
  +--> usb_write_reg/usb
  +--> usb_ctrl_in/usb

usb_ctrl_in/usb                        ----- -----
  +--> usb_write_reg/usb
  +--> usb_read_reg/usb
  +--> usb_write_fifo?_/usb

usb_write_fifo?_/usb                   ----- -----
  +--> usb_write_reg/usb

usb_clear_feature/usb_req_std          ----- -----
  +--> usb_write_reg/usb
  +--> usb_setup_stall/usb
  +--> usb_setup_status/usb

usb_setup_status/usb                   ----- -----
  +--> usb_write_reg/usb

usb_set_feature/usb_req_std            ----- -----
  +--> usb_write_reg/usb
  +--> usb_setup_stall/usb
  +--> usb_setup_status/usb

usb_set_address/usb_req_std            ----- -----
  +--> usb_setup_stall/usb
  +--> usb_write_reg/usb
  +--> usb_setup_status/usb

usb_get_descriptor/usb_req_std         ----- -----
  +--> usb_setup_stall/usb
  +--> usb_setup_in/usb

usb_set_descriptor/usb_req_std         ----- -----
  +--> usb_setup_stall/usb

usb_get_configuration/usb_req_std      ----- -----
  +--> usb_setup_stall/usb
  +--> usb_setup_in/usb

usb_set_configuration/usb_req_std      ----- -----
  +--> usb_setup_stall/usb
  +--> usb_write_reg/usb
L251 LINKER/LOCATER V4.66.93.0                                                        07/11/2022  11:40:15  PAGE 6


  +--> usb_setup_status/usb

usb_get_interface/usb_req_std          ----- -----
  +--> usb_setup_stall/usb
  +--> usb_setup_in/usb

usb_set_interface/usb_req_std          ----- -----
  +--> usb_setup_stall/usb
  +--> usb_setup_status/usb

usb_synch_frame/usb_req_std            ----- -----
  +--> usb_setup_stall/usb

usb_req_class/usb_req_class            ----- -----
  +--> usb_get_report/usb_req_class
  +--> usb_set_report/usb_req_class
  +--> usb_get_idle/usb_req_class
  +--> usb_set_idle/usb_req_class
  +--> usb_get_protocol/usb_req_class
  +--> usb_set_protocol/usb_req_class
  +--> usb_setup_stall/usb

usb_get_report/usb_req_class           ----- -----
  +--> usb_setup_stall/usb
  +--> usb_setup_in/usb

usb_set_report/usb_req_class           ----- -----
  +--> usb_setup_stall/usb
  +--> usb_setup_out/usb

usb_setup_out/usb                      ----- -----
  +--> usb_write_reg/usb

usb_get_idle/usb_req_class             ----- -----
  +--> usb_setup_stall/usb
  +--> usb_setup_in/usb

usb_set_idle/usb_req_class             ----- -----
  +--> usb_setup_stall/usb
  +--> usb_setup_status/usb

usb_get_protocol/usb_req_class         ----- -----
  +--> usb_setup_stall/usb

usb_set_protocol/usb_req_class         ----- -----
  +--> usb_setup_stall/usb

usb_req_vendor/usb_req_vendor          ----- -----
  +--> usb_setup_stall/usb

usb_ctrl_out/usb                       ----- -----
  +--> usb_write_reg/usb
  +--> usb_read_reg/usb
  +--> usb_read_fifo?_/usb

usb_in_ep1/usb                         ----- -----
  +--> usb_write_reg/usb
  +--> usb_read_reg/usb

usb_out_ep1/usb                        ----- -----
  +--> usb_write_reg/usb
  +--> usb_read_reg/usb
  +--> usb_bulk_intr_out/usb
  +--> usb_read_fifo?_/usb
  +--> STRCMP?_/STRCMP?_
L251 LINKER/LOCATER V4.66.93.0                                                        07/11/2022  11:40:15  PAGE 7


  +--> sleep_ms/util

usb_bulk_intr_out/usb                  ----- -----
  +--> usb_read_fifo?_/usb
  +--> usb_write_reg/usb

STRCMP?_/STRCMP?_                      ----- -----

sleep_ms/util                          ----- -----
  +--> sleep_us/util

sleep_us/util                          ----- -----

usb_suspend/usb                        ----- -----

*** NEW ROOT *************************

?C_C51STARTUP                          ----- -----

*** NEW ROOT *************************

?C_C51STARTUP?3                        ----- -----
  +--> main/LED

main/LED                               ----- -----
  +--> usb_init/usb
  +--> Timer0_Init/LED
  +--> HardwareMarquee/LED

usb_init/usb                           ----- -----
  +--> usb_write_reg/usb

Timer0_Init/LED                        ----- -----

HardwareMarquee/LED                    ----- -----
  +--> delay_ms/LED

*** NEW ROOT *************************

?C_C51STARTUP?2                        ----- -----



PUBLIC SYMBOLS OF MODULE:  LED (LED)


      VALUE       CLASS    TYPE      PUBLIC SYMBOL NAME
      =================================================
      000000FFH   NUMBER   ---       ?C?CODESEG
      00FF0534H   CODE     ---       ?C?FPCONVERT
      00FF06CFH   CODE     ---       ?C?FPDIV
      00FF07B7H   CODE     ---       ?C?FPGETOPN2
      00FF062FH   CODE     ---       ?C?FPMUL
      00FF07F4H   CODE     ---       ?C?FPNANRESULT
      00FF07FCH   CODE     ---       ?C?FPOVERFLOW
      00FF07D0H   CODE     ---       ?C?FPRESULT
      00FF07E6H   CODE     ---       ?C?FPRESULT2
      00FF05ECH   CODE     ---       ?C?FPROUND
      00FF07F9H   CODE     ---       ?C?FPUNDERFLOW
      00FF0780H   CODE     ---       ?C?FTNPWR
      00FF1366H   CODE     ---       ?C?INITEDATA
      00FF1CF7H   HCONST   WORD      ?C?INITEDATA_END
      00FF0808H   CODE     ---       ?C?LMUL
      00FF0117H   CODE     ---       ?C?PRNFMT
      00FF0000H   CODE     ---       ?C?STARTUP
L251 LINKER/LOCATER V4.66.93.0                                                        07/11/2022  11:40:15  PAGE 8


      00000001H   NUMBER   ---       ?C?XDATASEG
      00FF0000H   CODE     ---       ?C_STARTUP
      00000075H   EDATA    BYTE      ?printf_hid?BYTE
      00000049H   EDATA    BYTE      ?SEG7_ShowString?BYTE
      00000089H   EDATA    ---       ?vsprintf?BYTE
*SFR* 000000BCH   DATA     BYTE      ADC_CONTR
*SFR* 000000DEH   DATA     BYTE      ADCCFG
*SFR* 000000EFH   DATA     BYTE      AUXINTIF
*SFR* 0000008EH   DATA     BYTE      AUXR
*SFR* 00000097H   DATA     BYTE      AUXR2
      0000001FH   EDATA    BYTE      bHidIdle
      00000020H.1 BIT      BIT       bUsbFeatureReady
      00000020H.2 BIT      BIT       bUsbInBusy
      00000020H.0 BIT      BIT       bUsbOutReady
*SFR* 000000F1H   DATA     BYTE      CANICR
*SFR* 000000EAH   DATA     BYTE      CKCON
*SFR* 000000E6H   DATA     BYTE      CMPCR1
*SFR* 000000E7H   DATA     BYTE      CMPCR2
      00FF0F2AH   CODE     ---       CONFIGDESC
      00FF1C03H   CODE     ---       delay_ms
      00FF0EFDH   CODE     ---       DEVICEDESC
      00000010H   EDATA    BYTE      DeviceState
*SFR* 000000A8H.7 DATA     BIT       EA
*SFR* 000000BAH.7 DATA     BIT       EAXFR
      00000011H   EDATA    ---       Ep0State
*SFR* 000000A8H.1 DATA     BIT       ET0
*SFR* 000000AFH.7 DATA     BIT       EUSB
      00FF0819H   CODE     ---       HardwareMarquee
      00FF0F0FH   CODE     ---       HIDREPORTDESC
*SFR* 000000C7H   DATA     BYTE      IAP_CONTR
*SFR* 000000A8H   DATA     BYTE      IE
*SFR* 000000AFH   DATA     BYTE      IE2
      00000079H   EDATA    BYTE      index
      00000018H   EDATA    BYTE      InEpState
*SFR* 0000008FH   DATA     BYTE      INTCLKO
*SFR* 000000B8H   DATA     BYTE      IP
*SFR* 000000B5H   DATA     BYTE      IP2
*SFR* 000000B6H   DATA     BYTE      IP2H
*SFR* 000000DFH   DATA     BYTE      IP3
*SFR* 000000EEH   DATA     BYTE      IP3H
*SFR* 000000B7H   DATA     BYTE      IPH
*SFR* 0000009DH   DATA     BYTE      IRCBAND
      0000007EH   EDATA    WORD      Key_cnt
      00000020H.3 BIT      BIT       Key_Flag
      00FF148AH   CODE     ---       KeyResetScan
      00FF0EF9H   CODE     ---       LANGIDDESC
      00FF1B4BH   CODE     ---       LCD12864_AutoWrapOff
      00FF1A74H   CODE     ---       LCD12864_AutoWrapOn
      00FF1BECH   CODE     ---       LCD12864_CursorMoveLeft
      00FF1AECH   CODE     ---       LCD12864_CursorMoveRight
      00FF1BD5H   CODE     ---       LCD12864_CursorOff
      00FF1B1CH   CODE     ---       LCD12864_CursorOn
      00FF1AA4H   CODE     ---       LCD12864_CursorReturnHome
      00FF1C56H   CODE     ---       LCD12864_DisplayClear
      00FF1B79H   CODE     ---       LCD12864_DisplayOff
      00FF1AD4H   CODE     ---       LCD12864_DisplayOn
      00FF193CH   CODE     ---       LCD12864_ReverseLine
      00FF1B90H   CODE     ---       LCD12864_ScrollLeft
      00FF1A5CH   CODE     ---       LCD12864_ScrollRight
      00FF18D3H   CODE     ---       LCD12864_ScrollUp
      00FF122CH   CODE     ---       LCD12864_ShowPicture
      00FF1502H   CODE     ---       LCD12864_ShowString
      00FF13D0H   CODE     ---       LED40_SendData
      00FF140EH   CODE     ---       LED64_SendData
      00FF0A4BH   CODE     ---       LED_Buf
L251 LINKER/LOCATER V4.66.93.0                                                        07/11/2022  11:40:15  PAGE 9


*SFR* 000000F9H   DATA     BYTE      LINICR
      00FF1055H   CODE     ---       main
      00FF0F57H   CODE     ---       MANUFACTDESC
      00FF18F8H   CODE     ---       memcpy?_
      00FF1BBEH   CODE     ---       OLED12864_DisplayContent
      00FF1ABCH   CODE     ---       OLED12864_DisplayEntire
      00FF1B34H   CODE     ---       OLED12864_DisplayOff
      00FF1A44H   CODE     ---       OLED12864_DisplayOn
      00FF1C68H   CODE     ---       OLED12864_DisplayReverse
      00FF1BA7H   CODE     ---       OLED12864_HorizontalMirror
      00FF161FH   CODE     ---       OLED12864_ScrollLeft
      00FF15AFH   CODE     ---       OLED12864_ScrollRight
      00FF1A2CH   CODE     ---       OLED12864_ScrollStart
      00FF1B62H   CODE     ---       OLED12864_ScrollStop
      00FF15E7H   CODE     ---       OLED12864_ScrollUp
      00FF00A9H   CODE     ---       OLED12864_SetAddressMode
      00FF191DH   CODE     ---       OLED12864_SetContrast
      00FF1392H   CODE     ---       OLED12864_ShowPicture
      00FF1A8CH   CODE     ---       OLED12864_VerticalMirror
      00000019H   EDATA    BYTE      OutEpState
*SFR* 00000080H   DATA     BYTE      P0
*SFR* 00000080H.0 DATA     BIT       P00
*SFR* 00000080H.1 DATA     BIT       P01
*SFR* 00000080H.2 DATA     BIT       P02
*SFR* 00000080H.3 DATA     BIT       P03
*SFR* 00000080H.4 DATA     BIT       P04
*SFR* 00000080H.5 DATA     BIT       P05
*SFR* 00000080H.6 DATA     BIT       P06
*SFR* 00000080H.7 DATA     BIT       P07
*SFR* 00000094H   DATA     BYTE      P0M0
*SFR* 00000093H   DATA     BYTE      P0M1
*SFR* 00000090H   DATA     BYTE      P1
*SFR* 00000090H.0 DATA     BIT       P10
*SFR* 00000090H.1 DATA     BIT       P11
*SFR* 00000090H.3 DATA     BIT       P13
*SFR* 00000090H.4 DATA     BIT       P14
*SFR* 00000090H.5 DATA     BIT       P15
*SFR* 00000090H.6 DATA     BIT       P16
*SFR* 00000090H.7 DATA     BIT       P17
*SFR* 00000092H   DATA     BYTE      P1M0
*SFR* 00000091H   DATA     BYTE      P1M1
*SFR* 000000A0H   DATA     BYTE      P2
*SFR* 000000A0H.0 DATA     BIT       P20
*SFR* 000000A0H.1 DATA     BIT       P21
*SFR* 000000A0H.2 DATA     BIT       P22
*SFR* 000000A0H.3 DATA     BIT       P23
*SFR* 000000A0H.4 DATA     BIT       P24
*SFR* 000000A0H.5 DATA     BIT       P25
*SFR* 000000A0H.6 DATA     BIT       P26
*SFR* 000000A0H.7 DATA     BIT       P27
*SFR* 00000096H   DATA     BYTE      P2M0
*SFR* 00000095H   DATA     BYTE      P2M1
*SFR* 000000B0H   DATA     BYTE      P3
*SFR* 000000B0H.2 DATA     BIT       P32
*SFR* 000000B0H.3 DATA     BIT       P33
*SFR* 000000B0H.4 DATA     BIT       P34
*SFR* 000000B0H.5 DATA     BIT       P35
*SFR* 000000B0H.6 DATA     BIT       P36
*SFR* 000000B0H.7 DATA     BIT       P37
*SFR* 000000B2H   DATA     BYTE      P3M0
*SFR* 000000B1H   DATA     BYTE      P3M1
*SFR* 000000C0H   DATA     BYTE      P4
*SFR* 000000C0H.5 DATA     BIT       P45
*SFR* 000000C0H.6 DATA     BIT       P46
*SFR* 000000C0H.7 DATA     BIT       P47
L251 LINKER/LOCATER V4.66.93.0                                                        07/11/2022  11:40:15  PAGE 10


*SFR* 000000B4H   DATA     BYTE      P4M0
*SFR* 000000B3H   DATA     BYTE      P4M1
*SFR* 000000C8H   DATA     BYTE      P5
*SFR* 000000C8H.2 DATA     BIT       P52
*SFR* 000000C8H.4 DATA     BIT       P54
*SFR* 000000CAH   DATA     BYTE      P5M0
*SFR* 000000C9H   DATA     BYTE      P5M1
*SFR* 000000E8H   DATA     BYTE      P6
*SFR* 000000CCH   DATA     BYTE      P6M0
*SFR* 000000CBH   DATA     BYTE      P6M1
*SFR* 000000F8H   DATA     BYTE      P7
*SFR* 000000E2H   DATA     BYTE      P7M0
*SFR* 000000E1H   DATA     BYTE      P7M1
*SFR* 000000A2H   DATA     BYTE      P_SW1
*SFR* 000000BAH   DATA     BYTE      P_SW2
*SFR* 000000BBH   DATA     BYTE      P_SW3
      00FF0F53H   CODE     ---       PACKET0
      00FF0F55H   CODE     ---       PACKET1
*SFR* 00000087H   DATA     BYTE      PCON
      00FF1755H   CODE     ---       printf_hid
      00FF0EDFH   CODE     ---       PRODUCTDESC
*SFR* 000000D0H   DATA     BYTE      PSW
      00FF168CH   CODE     ---       reverse2
*SFR* 000000FFH   DATA     BYTE      RSTCFG
*SFR* 0000009AH   DATA     BYTE      S2CON
*SFR* 000000ACH   DATA     BYTE      S3CON
*SFR* 000000FDH   DATA     BYTE      S4CON
*SFR* 00000098H   DATA     BYTE      SCON
      00FF16C1H   CODE     ---       SEG7_ShowCode
      00FF16F4H   CODE     ---       SEG7_ShowFloat
      00FF14C7H   CODE     ---       SEG7_ShowLong
      00FF130EH   CODE     ---       SEG7_ShowString
      00000008H   EDATA    ---       Setup
      00FF1B04H   CODE     ---       sleep_ms
      00FF1979H   CODE     ---       sleep_us
      00FF1725H   CODE     ---       SoftwareMarquee
*SFR* 000000CEH   DATA     BYTE      SPCTL
*SFR* 000000CDH   DATA     BYTE      SPSTAT
      00FF199AH   CODE     NEAR LAB  strcmp?_
      00FF1CB5H   CODE     ---       strlen?_
*SFR* 000000DDH   DATA     BYTE      T4T3M
*SFR* 00000088H   DATA     BYTE      TCON
*SFR* 0000008CH   DATA     BYTE      TH0
      00FF1C8BH   CODE     ---       Timer0_Init
      00FF1656H   CODE     ---       timer0_int
*SFR* 0000008AH   DATA     BYTE      TL0
*SFR* 00000089H   DATA     BYTE      TMOD
*SFR* 00000088H.4 DATA     BIT       TR0
      00FF1C19H   CODE     ---       usb_bulk_intr_in
      00FF19B0H   CODE     ---       usb_bulk_intr_out
      00FF000EH   CODE     ---       usb_clear_feature
      00FF10BFH   CODE     ---       usb_ctrl_in
      00FF1182H   CODE     ---       usb_ctrl_out
      00FF11D8H   CODE     ---       usb_get_configuration
      00FF0B39H   CODE     ---       usb_get_descriptor
      00FF18ADH   CODE     ---       usb_get_idle
      00FF144CH   CODE     ---       usb_get_interface
      00FF0003H   CODE     ---       usb_get_protocol
      00FF17DFH   CODE     ---       usb_get_report
      00FF094CH   CODE     ---       usb_get_status
      00FF1833H   CODE     ---       usb_IN
      00FF17B2H   CODE     ---       usb_in_ep1
      00FF1279H   CODE     ---       usb_init
      00FF0FDBH   CODE     ---       usb_isr
      00FF1A14H   CODE     ---       usb_OUT_done
L251 LINKER/LOCATER V4.66.93.0                                                        07/11/2022  11:40:15  PAGE 11


      00FF0F5FH   CODE     ---       usb_out_ep1
      00FF153DH   CODE     ---       usb_read_fifo?_
      00FF1C2EH   CODE     ---       usb_read_reg
      00FF1784H   CODE     ---       usb_req_class
      00FF1126H   CODE     ---       usb_req_std
      00FF1CD3H   CODE     ---       usb_req_vendor
      00FF1577H   CODE     ---       usb_reset
      00FF000AH   CODE     ---       usb_resume
      00FF12C4H   CODE     ---       usb_set_address
      00FF0DC8H   CODE     ---       usb_set_configuration
      00FF00C8H   CODE     ---       usb_set_descriptor
      00FF0C15H   CODE     ---       usb_set_feature
      00FF195BH   CODE     ---       usb_set_idle
      00FF1885H   CODE     ---       usb_set_interface
      00FF0006H   CODE     ---       usb_set_protocol
      00FF1809H   CODE     ---       usb_set_report
      00FF0E55H   CODE     ---       usb_setup
      00FF1C7AH   CODE     ---       usb_setup_in
      00FF1C99H   CODE     ---       usb_setup_out
      00FF1CA7H   CODE     ---       usb_setup_stall
      00FF1CC3H   CODE     ---       usb_setup_status
      00FF0009H   CODE     ---       usb_suspend
      00FF1CD0H   CODE     ---       usb_synch_frame
      00FF185CH   CODE     ---       usb_write_fifo?_
      00FF1C43H   CODE     ---       usb_write_reg
*SFR* 000000FCH   DATA     BYTE      USBADR
*SFR* 000000DCH   DATA     BYTE      USBCLK
*SFR* 000000F4H   DATA     BYTE      USBCON
*SFR* 000000ECH   DATA     BYTE      USBDAT
      00010080H   XDATA    ---       UsbFeatureBuffer
      00010000H   XDATA    ---       UsbInBuffer
      00010040H   XDATA    ---       UsbOutBuffer
      00000084H   EDATA    ---       USER_DEVICEDESC
      00000080H   EDATA    ---       USER_PRODUCTDESC
      0000007AH   EDATA    ---       USER_STCISPCMD
      00FF00CEH   CODE     NEAR LAB  vsprintf
*SFR* 000000C1H   DATA     BYTE      WDT_CONTR
*SFR* 000000E9H   DATA     BYTE      WTST



SYMBOL TABLE OF MODULE:  LED (LED)

      VALUE       REP       CLASS    TYPE      SYMBOL NAME
      ====================================================
      ---         MODULE    ---      ---       LED
      00FF1656H   PUBLIC    CODE     ---       timer0_int
      00FF0819H   PUBLIC    CODE     ---       HardwareMarquee
      00FF1725H   PUBLIC    CODE     ---       SoftwareMarquee
      00FF1055H   PUBLIC    CODE     ---       main
      00FF1C8BH   PUBLIC    CODE     ---       Timer0_Init
      00FF148AH   PUBLIC    CODE     ---       KeyResetScan
      00FF1C03H   PUBLIC    CODE     ---       delay_ms
      00000020H.3 PUBLIC    BIT      BIT       Key_Flag
      00000079H   PUBLIC    EDATA    BYTE      index
      0000007AH   PUBLIC    EDATA    ---       USER_STCISPCMD
      0000007EH   PUBLIC    EDATA    WORD      Key_cnt
      00000080H   PUBLIC    EDATA    ---       USER_PRODUCTDESC
      00000084H   PUBLIC    EDATA    ---       USER_DEVICEDESC
      00FF0A4BH   PUBLIC    CODE     ---       LED_Buf
      00000094H   SFRSYM    DATA     BYTE      P0M0
      000000D0H   SFRSYM    DATA     BYTE      PSW
      000000BAH.7 SFRSYM    DATA     BIT       EAXFR
      0000009DH   SFRSYM    DATA     BYTE      IRCBAND
      00000097H   SFRSYM    DATA     BYTE      AUXR2
L251 LINKER/LOCATER V4.66.93.0                                                        07/11/2022  11:40:15  PAGE 12


      000000EAH   SFRSYM    DATA     BYTE      CKCON
      000000EFH   SFRSYM    DATA     BYTE      AUXINTIF
      000000FDH   SFRSYM    DATA     BYTE      S4CON
      000000ACH   SFRSYM    DATA     BYTE      S3CON
      0000009AH   SFRSYM    DATA     BYTE      S2CON
      000000B7H   SFRSYM    DATA     BYTE      IPH
      000000CDH   SFRSYM    DATA     BYTE      SPSTAT
      000000DDH   SFRSYM    DATA     BYTE      T4T3M
      000000C1H   SFRSYM    DATA     BYTE      WDT_CONTR
      00000088H.4 SFRSYM    DATA     BIT       TR0
      000000E9H   SFRSYM    DATA     BYTE      WTST
      0000008AH   SFRSYM    DATA     BYTE      TL0
      0000008CH   SFRSYM    DATA     BYTE      TH0
      000000DFH   SFRSYM    DATA     BYTE      IP3
      000000F4H   SFRSYM    DATA     BYTE      USBCON
      000000B5H   SFRSYM    DATA     BYTE      IP2
      000000FFH   SFRSYM    DATA     BYTE      RSTCFG
      000000A8H.1 SFRSYM    DATA     BIT       ET0
      000000DCH   SFRSYM    DATA     BYTE      USBCLK
      000000C7H   SFRSYM    DATA     BYTE      IAP_CONTR
      000000F9H   SFRSYM    DATA     BYTE      LINICR
      0000008EH   SFRSYM    DATA     BYTE      AUXR
      000000AFH   SFRSYM    DATA     BYTE      IE2
      000000C0H.7 SFRSYM    DATA     BIT       P47
      000000B0H.7 SFRSYM    DATA     BIT       P37
      000000C0H.6 SFRSYM    DATA     BIT       P46
      000000A0H.7 SFRSYM    DATA     BIT       P27
      000000B0H.6 SFRSYM    DATA     BIT       P36
      000000C0H.5 SFRSYM    DATA     BIT       P45
      000000C8H.4 SFRSYM    DATA     BIT       P54
      00000090H.7 SFRSYM    DATA     BIT       P17
      000000A0H.6 SFRSYM    DATA     BIT       P26
      000000B0H.5 SFRSYM    DATA     BIT       P35
      00000080H.7 SFRSYM    DATA     BIT       P07
      00000090H.6 SFRSYM    DATA     BIT       P16
      000000A0H.5 SFRSYM    DATA     BIT       P25
      000000B0H.4 SFRSYM    DATA     BIT       P34
      000000C8H.2 SFRSYM    DATA     BIT       P52
      00000080H.6 SFRSYM    DATA     BIT       P06
      00000090H.5 SFRSYM    DATA     BIT       P15
      000000A0H.4 SFRSYM    DATA     BIT       P24
      000000B0H.3 SFRSYM    DATA     BIT       P33
      00000080H.5 SFRSYM    DATA     BIT       P05
      00000088H   SFRSYM    DATA     BYTE      TCON
      00000089H   SFRSYM    DATA     BYTE      TMOD
      00000090H.4 SFRSYM    DATA     BIT       P14
      000000A0H.3 SFRSYM    DATA     BIT       P23
      000000B0H.2 SFRSYM    DATA     BIT       P32
      00000080H.4 SFRSYM    DATA     BIT       P04
      00000090H.3 SFRSYM    DATA     BIT       P13
      00000098H   SFRSYM    DATA     BYTE      SCON
      000000A0H.2 SFRSYM    DATA     BIT       P22
      00000080H.3 SFRSYM    DATA     BIT       P03
      000000A0H.1 SFRSYM    DATA     BIT       P21
      00000080H.2 SFRSYM    DATA     BIT       P02
      00000090H.1 SFRSYM    DATA     BIT       P11
      000000A0H.0 SFRSYM    DATA     BIT       P20
      000000F1H   SFRSYM    DATA     BYTE      CANICR
      00000080H.1 SFRSYM    DATA     BIT       P01
      00000087H   SFRSYM    DATA     BYTE      PCON
      00000090H.0 SFRSYM    DATA     BIT       P10
      000000BCH   SFRSYM    DATA     BYTE      ADC_CONTR
      00000080H.0 SFRSYM    DATA     BIT       P00
      000000AFH.7 SFRSYM    DATA     BIT       EUSB
      000000E7H   SFRSYM    DATA     BYTE      CMPCR2
L251 LINKER/LOCATER V4.66.93.0                                                        07/11/2022  11:40:15  PAGE 13


      000000E6H   SFRSYM    DATA     BYTE      CMPCR1
      000000DEH   SFRSYM    DATA     BYTE      ADCCFG
      000000B8H   SFRSYM    DATA     BYTE      IP
      0000008FH   SFRSYM    DATA     BYTE      INTCLKO
      000000EEH   SFRSYM    DATA     BYTE      IP3H
      000000B6H   SFRSYM    DATA     BYTE      IP2H
      000000A8H   SFRSYM    DATA     BYTE      IE
      000000BBH   SFRSYM    DATA     BYTE      P_SW3
      000000BAH   SFRSYM    DATA     BYTE      P_SW2
      000000A2H   SFRSYM    DATA     BYTE      P_SW1
      000000CEH   SFRSYM    DATA     BYTE      SPCTL
      000000F8H   SFRSYM    DATA     BYTE      P7
      000000A8H.7 SFRSYM    DATA     BIT       EA
      000000E1H   SFRSYM    DATA     BYTE      P7M1
      000000E8H   SFRSYM    DATA     BYTE      P6
      000000C8H   SFRSYM    DATA     BYTE      P5
      000000CBH   SFRSYM    DATA     BYTE      P6M1
      000000E2H   SFRSYM    DATA     BYTE      P7M0
      000000C0H   SFRSYM    DATA     BYTE      P4
      000000C9H   SFRSYM    DATA     BYTE      P5M1
      000000CCH   SFRSYM    DATA     BYTE      P6M0
      000000B0H   SFRSYM    DATA     BYTE      P3
      000000B3H   SFRSYM    DATA     BYTE      P4M1
      000000CAH   SFRSYM    DATA     BYTE      P5M0
      000000A0H   SFRSYM    DATA     BYTE      P2
      000000B1H   SFRSYM    DATA     BYTE      P3M1
      000000B4H   SFRSYM    DATA     BYTE      P4M0
      00000090H   SFRSYM    DATA     BYTE      P1
      00000095H   SFRSYM    DATA     BYTE      P2M1
      000000B2H   SFRSYM    DATA     BYTE      P3M0
      00000080H   SFRSYM    DATA     BYTE      P0
      00000091H   SFRSYM    DATA     BYTE      P1M1
      00000096H   SFRSYM    DATA     BYTE      P2M0
      00000092H   SFRSYM    DATA     BYTE      P1M0
      00000093H   SFRSYM    DATA     BYTE      P0M1

      00FF1055H   BLOCK     CODE     ---       LVL=0
      00FF1055H   LINE      CODE     ---       #107
      00FF1055H   LINE      CODE     ---       #109
      00FF1058H   LINE      CODE     ---       #110
      00FF105BH   LINE      CODE     ---       #111
      00FF105EH   LINE      CODE     ---       #113
      00FF1064H   LINE      CODE     ---       #114
      00FF106AH   LINE      CODE     ---       #115
      00FF1070H   LINE      CODE     ---       #116
      00FF1076H   LINE      CODE     ---       #117
      00FF107CH   LINE      CODE     ---       #118
      00FF1082H   LINE      CODE     ---       #119
      00FF1088H   LINE      CODE     ---       #120
      00FF108EH   LINE      CODE     ---       #123
      00FF1091H   LINE      CODE     ---       #124
      00FF1094H   LINE      CODE     ---       #125
      00FF10A1H   LINE      CODE     ---       #126
      00FF10AFH   LINE      CODE     ---       #127
      00FF10B2H   LINE      CODE     ---       #130
      00FF10B5H   LINE      CODE     ---       #131
      00FF10B8H   LINE      CODE     ---       #132
      00FF10BAH   LINE      CODE     ---       #134
      00FF10BAH   LINE      CODE     ---       #139
      00FF10BDH   LINE      CODE     ---       #141
      ---         BLOCKEND  ---      ---       LVL=0

      00FF1725H   BLOCK     CODE     ---       LVL=0
      00FF1725H   LINE      CODE     ---       #144
      00FF1725H   LINE      CODE     ---       #146
L251 LINKER/LOCATER V4.66.93.0                                                        07/11/2022  11:40:15  PAGE 14


      00FF1742H   LINE      CODE     ---       #147
      00FF1750H   LINE      CODE     ---       #149
      ---         BLOCKEND  ---      ---       LVL=0

      00FF0819H   BLOCK     CODE     ---       LVL=0
      00FF0819H   LINE      CODE     ---       #152
      00FF0819H   LINE      CODE     ---       #154
      00FF081BH   LINE      CODE     ---       #155
      00FF0820H   LINE      CODE     ---       #156
      00FF0822H   LINE      CODE     ---       #157
      00FF0824H   LINE      CODE     ---       #158
      00FF0829H   LINE      CODE     ---       #159
      00FF082BH   LINE      CODE     ---       #160
      00FF082DH   LINE      CODE     ---       #161
      00FF0832H   LINE      CODE     ---       #162
      00FF0834H   LINE      CODE     ---       #163
      00FF0836H   LINE      CODE     ---       #164
      00FF083BH   LINE      CODE     ---       #165
      00FF083DH   LINE      CODE     ---       #166
      00FF083FH   LINE      CODE     ---       #167
      00FF0844H   LINE      CODE     ---       #168
      00FF0846H   LINE      CODE     ---       #169
      00FF0848H   LINE      CODE     ---       #170
      00FF084DH   LINE      CODE     ---       #171
      00FF084FH   LINE      CODE     ---       #172
      00FF0851H   LINE      CODE     ---       #173
      00FF0856H   LINE      CODE     ---       #174
      00FF0858H   LINE      CODE     ---       #175
      00FF085AH   LINE      CODE     ---       #176
      00FF085FH   LINE      CODE     ---       #177
      00FF0861H   LINE      CODE     ---       #179
      00FF0863H   LINE      CODE     ---       #180
      00FF0868H   LINE      CODE     ---       #181
      00FF086AH   LINE      CODE     ---       #182
      00FF086CH   LINE      CODE     ---       #183
      00FF0871H   LINE      CODE     ---       #184
      00FF0873H   LINE      CODE     ---       #185
      00FF0875H   LINE      CODE     ---       #186
      00FF087AH   LINE      CODE     ---       #187
      00FF087CH   LINE      CODE     ---       #188
      00FF087EH   LINE      CODE     ---       #189
      00FF0883H   LINE      CODE     ---       #190
      00FF0885H   LINE      CODE     ---       #191
      00FF0887H   LINE      CODE     ---       #192
      00FF088CH   LINE      CODE     ---       #193
      00FF088EH   LINE      CODE     ---       #194
      00FF0890H   LINE      CODE     ---       #195
      00FF0895H   LINE      CODE     ---       #196
      00FF0897H   LINE      CODE     ---       #197
      00FF0899H   LINE      CODE     ---       #198
      00FF089EH   LINE      CODE     ---       #199
      00FF08A0H   LINE      CODE     ---       #200
      00FF08A2H   LINE      CODE     ---       #201
      00FF08A7H   LINE      CODE     ---       #202
      00FF08A9H   LINE      CODE     ---       #204
      00FF08ABH   LINE      CODE     ---       #205
      00FF08B0H   LINE      CODE     ---       #206
      00FF08B2H   LINE      CODE     ---       #207
      00FF08B4H   LINE      CODE     ---       #208
      00FF08B9H   LINE      CODE     ---       #209
      00FF08BBH   LINE      CODE     ---       #210
      00FF08BDH   LINE      CODE     ---       #211
      00FF08C2H   LINE      CODE     ---       #212
      00FF08C4H   LINE      CODE     ---       #213
      00FF08C6H   LINE      CODE     ---       #214
L251 LINKER/LOCATER V4.66.93.0                                                        07/11/2022  11:40:15  PAGE 15


      00FF08CBH   LINE      CODE     ---       #215
      00FF08CDH   LINE      CODE     ---       #216
      00FF08CFH   LINE      CODE     ---       #217
      00FF08D4H   LINE      CODE     ---       #218
      00FF08D6H   LINE      CODE     ---       #219
      00FF08D8H   LINE      CODE     ---       #220
      00FF08DDH   LINE      CODE     ---       #221
      00FF08DFH   LINE      CODE     ---       #222
      00FF08E1H   LINE      CODE     ---       #223
      00FF08E6H   LINE      CODE     ---       #224
      00FF08E8H   LINE      CODE     ---       #225
      00FF08EAH   LINE      CODE     ---       #226
      00FF08EFH   LINE      CODE     ---       #227
      00FF08F1H   LINE      CODE     ---       #229
      00FF08F3H   LINE      CODE     ---       #230
      00FF08F8H   LINE      CODE     ---       #231
      00FF08FAH   LINE      CODE     ---       #232
      00FF08FCH   LINE      CODE     ---       #233
      00FF0901H   LINE      CODE     ---       #234
      00FF0903H   LINE      CODE     ---       #236
      00FF0905H   LINE      CODE     ---       #237
      00FF090AH   LINE      CODE     ---       #238
      00FF090CH   LINE      CODE     ---       #239
      00FF090EH   LINE      CODE     ---       #240
      00FF0913H   LINE      CODE     ---       #241
      00FF0915H   LINE      CODE     ---       #242
      00FF0917H   LINE      CODE     ---       #243
      00FF091CH   LINE      CODE     ---       #244
      00FF091EH   LINE      CODE     ---       #245
      00FF0920H   LINE      CODE     ---       #246
      00FF0925H   LINE      CODE     ---       #247
      00FF0927H   LINE      CODE     ---       #248
      00FF0929H   LINE      CODE     ---       #249
      00FF092EH   LINE      CODE     ---       #250
      00FF0930H   LINE      CODE     ---       #251
      00FF0932H   LINE      CODE     ---       #252
      00FF0937H   LINE      CODE     ---       #253
      00FF0939H   LINE      CODE     ---       #254
      00FF093BH   LINE      CODE     ---       #255
      00FF0940H   LINE      CODE     ---       #256
      00FF0942H   LINE      CODE     ---       #257
      00FF0944H   LINE      CODE     ---       #258
      00FF0949H   LINE      CODE     ---       #259
      00FF094BH   LINE      CODE     ---       #260
      ---         BLOCKEND  ---      ---       LVL=0

      00FF1C03H   BLOCK     CODE     ---       LVL=0
      R10         REGSYM    ---      BYTE      ms
      00FF1C05H   BLOCK     CODE     NEAR LAB  LVL=1
      WR8         REGSYM    ---      WORD      i
      ---         BLOCKEND  ---      ---       LVL=1
      00FF1C03H   LINE      CODE     ---       #271
      00FF1C05H   LINE      CODE     ---       #272
      00FF1C05H   LINE      CODE     ---       #274
      00FF1C05H   LINE      CODE     ---       #275
      00FF1C09H   LINE      CODE     ---       #276
      00FF1C11H   LINE      CODE     ---       #277
      00FF1C18H   LINE      CODE     ---       #278
      ---         BLOCKEND  ---      ---       LVL=0

      00FF1C8BH   BLOCK     CODE     ---       LVL=0
      00FF1C8BH   LINE      CODE     ---       #289
      00FF1C8BH   LINE      CODE     ---       #292
      00FF1C8EH   LINE      CODE     ---       #293
      00FF1C91H   LINE      CODE     ---       #294
L251 LINKER/LOCATER V4.66.93.0                                                        07/11/2022  11:40:15  PAGE 16


      00FF1C94H   LINE      CODE     ---       #295
      00FF1C96H   LINE      CODE     ---       #296
      00FF1C98H   LINE      CODE     ---       #297
      ---         BLOCKEND  ---      ---       LVL=0

      00FF148AH   BLOCK     CODE     ---       LVL=0
      00FF148AH   LINE      CODE     ---       #308
      00FF148AH   LINE      CODE     ---       #310
      00FF148DH   LINE      CODE     ---       #312
      00FF1490H   LINE      CODE     ---       #314
      00FF149AH   LINE      CODE     ---       #315
      00FF14A0H   LINE      CODE     ---       #317
      00FF14A2H   LINE      CODE     ---       #319
      00FF14A5H   LINE      CODE     ---       #320
      00FF14A8H   LINE      CODE     ---       #321
      00FF14B4H   LINE      CODE     ---       #323
      00FF14B9H   LINE      CODE     ---       #324
      00FF14BCH   LINE      CODE     ---       #325
      00FF14BEH   LINE      CODE     ---       #331
      00FF14C4H   LINE      CODE     ---       #332
      00FF14C6H   LINE      CODE     ---       #333
      00FF14C6H   LINE      CODE     ---       #334
      ---         BLOCKEND  ---      ---       LVL=0

      00FF1656H   BLOCK     CODE     ---       LVL=0
      00FF1656H   LINE      CODE     ---       #345
      00FF166CH   LINE      CODE     ---       #347
      00FF166FH   LINE      CODE     ---       #352
      00FF1672H   LINE      CODE     ---       #353
      00FF1672H   LINE      CODE     ---       #355
      00FF1675H   LINE      CODE     ---       #356
      ---         BLOCKEND  ---      ---       LVL=0

      ---         MODULE    ---      ---       usb
      00FF1C7AH   PUBLIC    CODE     ---       usb_setup_in
      00FF1C99H   PUBLIC    CODE     ---       usb_setup_out
      00FF10BFH   PUBLIC    CODE     ---       usb_ctrl_in
      00FF1182H   PUBLIC    CODE     ---       usb_ctrl_out
      00FF1A14H   PUBLIC    CODE     ---       usb_OUT_done
      00FF0009H   PUBLIC    CODE     ---       usb_suspend
      00FF1C19H   PUBLIC    CODE     ---       usb_bulk_intr_in
      00FF19B0H   PUBLIC    CODE     ---       usb_bulk_intr_out
      00FF000AH   PUBLIC    CODE     ---       usb_resume
      00FF1833H   PUBLIC    CODE     ---       usb_IN
      00FF153DH   PUBLIC    CODE     ---       usb_read_fifo?_
      00FF1577H   PUBLIC    CODE     ---       usb_reset
      00FF0E55H   PUBLIC    CODE     ---       usb_setup
      00FF185CH   PUBLIC    CODE     ---       usb_write_fifo?_
      00FF1279H   PUBLIC    CODE     ---       usb_init
      00FF1CA7H   PUBLIC    CODE     ---       usb_setup_stall
      00FF1CC3H   PUBLIC    CODE     ---       usb_setup_status
      00FF1C2EH   PUBLIC    CODE     ---       usb_read_reg
      00FF17B2H   PUBLIC    CODE     ---       usb_in_ep1
      00FF0F5FH   PUBLIC    CODE     ---       usb_out_ep1
      00FF1C43H   PUBLIC    CODE     ---       usb_write_reg
      00FF0FDBH   PUBLIC    CODE     ---       usb_isr
      00000008H   PUBLIC    EDATA    ---       Setup
      00000010H   PUBLIC    EDATA    BYTE      DeviceState
      00000011H   PUBLIC    EDATA    ---       Ep0State
      00000018H   PUBLIC    EDATA    BYTE      InEpState
      00000019H   PUBLIC    EDATA    BYTE      OutEpState
      00000020H.0 PUBLIC    BIT      BIT       bUsbOutReady
      00000020H.1 PUBLIC    BIT      BIT       bUsbFeatureReady
      00000020H.2 PUBLIC    BIT      BIT       bUsbInBusy
      00010000H   PUBLIC    XDATA    ---       UsbInBuffer
L251 LINKER/LOCATER V4.66.93.0                                                        07/11/2022  11:40:15  PAGE 17


      00010040H   PUBLIC    XDATA    ---       UsbOutBuffer
      00010080H   PUBLIC    XDATA    ---       UsbFeatureBuffer
      000000D0H   SFRSYM    DATA     BYTE      PSW
      0000009DH   SFRSYM    DATA     BYTE      IRCBAND
      00000097H   SFRSYM    DATA     BYTE      AUXR2
      000000EFH   SFRSYM    DATA     BYTE      AUXINTIF
      000000FDH   SFRSYM    DATA     BYTE      S4CON
      000000ACH   SFRSYM    DATA     BYTE      S3CON
      0000009AH   SFRSYM    DATA     BYTE      S2CON
      000000B7H   SFRSYM    DATA     BYTE      IPH
      000000CDH   SFRSYM    DATA     BYTE      SPSTAT
      000000DDH   SFRSYM    DATA     BYTE      T4T3M
      000000C1H   SFRSYM    DATA     BYTE      WDT_CONTR
      000000DFH   SFRSYM    DATA     BYTE      IP3
      000000F4H   SFRSYM    DATA     BYTE      USBCON
      000000B5H   SFRSYM    DATA     BYTE      IP2
      000000FFH   SFRSYM    DATA     BYTE      RSTCFG
      000000DCH   SFRSYM    DATA     BYTE      USBCLK
      000000ECH   SFRSYM    DATA     BYTE      USBDAT
      000000C7H   SFRSYM    DATA     BYTE      IAP_CONTR
      000000F9H   SFRSYM    DATA     BYTE      LINICR
      000000FCH   SFRSYM    DATA     BYTE      USBADR
      0000008EH   SFRSYM    DATA     BYTE      AUXR
      000000AFH   SFRSYM    DATA     BYTE      IE2
      00000088H   SFRSYM    DATA     BYTE      TCON
      00000098H   SFRSYM    DATA     BYTE      SCON
      000000F1H   SFRSYM    DATA     BYTE      CANICR
      00000087H   SFRSYM    DATA     BYTE      PCON
      000000BCH   SFRSYM    DATA     BYTE      ADC_CONTR
      000000AFH.7 SFRSYM    DATA     BIT       EUSB
      000000E7H   SFRSYM    DATA     BYTE      CMPCR2
      000000E6H   SFRSYM    DATA     BYTE      CMPCR1
      000000B8H   SFRSYM    DATA     BYTE      IP
      0000008FH   SFRSYM    DATA     BYTE      INTCLKO
      000000EEH   SFRSYM    DATA     BYTE      IP3H
      000000B6H   SFRSYM    DATA     BYTE      IP2H
      000000A8H   SFRSYM    DATA     BYTE      IE
      000000BBH   SFRSYM    DATA     BYTE      P_SW3
      000000BAH   SFRSYM    DATA     BYTE      P_SW2
      000000A2H   SFRSYM    DATA     BYTE      P_SW1
      000000CEH   SFRSYM    DATA     BYTE      SPCTL
      000000F8H   SFRSYM    DATA     BYTE      P7
      000000E8H   SFRSYM    DATA     BYTE      P6
      000000C8H   SFRSYM    DATA     BYTE      P5
      000000C0H   SFRSYM    DATA     BYTE      P4
      000000B0H   SFRSYM    DATA     BYTE      P3
      000000A0H   SFRSYM    DATA     BYTE      P2
      00000090H   SFRSYM    DATA     BYTE      P1
      00000080H   SFRSYM    DATA     BYTE      P0

      00FF1279H   BLOCK     CODE     ---       LVL=0
      00FF1279H   LINE      CODE     ---       #22
      00FF1279H   LINE      CODE     ---       #24
      00FF127CH   LINE      CODE     ---       #25
      00FF127FH   LINE      CODE     ---       #27
      00FF1285H   LINE      CODE     ---       #28
      00FF128DH   LINE      CODE     ---       #29
      00FF1295H   LINE      CODE     ---       #30
      00FF129DH   LINE      CODE     ---       #31
      00FF12A5H   LINE      CODE     ---       #32
      00FF12ADH   LINE      CODE     ---       #34
      00FF12B3H   LINE      CODE     ---       #35
      00FF12B8H   LINE      CODE     ---       #36
      00FF12BCH   LINE      CODE     ---       #37
      00FF12C0H   LINE      CODE     ---       #39
L251 LINKER/LOCATER V4.66.93.0                                                        07/11/2022  11:40:15  PAGE 18


      00FF12C3H   LINE      CODE     ---       #40
      ---         BLOCKEND  ---      ---       LVL=0

      00FF1C2EH   BLOCK     CODE     ---       LVL=0
      R10         REGSYM    ---      BYTE      addr
      00FF1C30H   BLOCK     CODE     NEAR LAB  LVL=1
      R11         REGSYM    ---      BYTE      dat
      ---         BLOCKEND  ---      ---       LVL=1
      00FF1C2EH   LINE      CODE     ---       #42
      00FF1C30H   LINE      CODE     ---       #43
      00FF1C30H   LINE      CODE     ---       #46
      00FF1C35H   LINE      CODE     ---       #47
      00FF1C3BH   LINE      CODE     ---       #48
      00FF1C40H   LINE      CODE     ---       #49
      00FF1C42H   LINE      CODE     ---       #51
      00FF1C42H   LINE      CODE     ---       #52
      ---         BLOCKEND  ---      ---       LVL=0

      00FF1C43H   BLOCK     CODE     ---       LVL=0
      R7          REGSYM    ---      BYTE      addr
      R10         REGSYM    ---      BYTE      dat
      00FF1C43H   LINE      CODE     ---       #54
      00FF1C47H   LINE      CODE     ---       #56
      00FF1C4CH   LINE      CODE     ---       #57
      00FF1C52H   LINE      CODE     ---       #58
      00FF1C55H   LINE      CODE     ---       #59
      ---         BLOCKEND  ---      ---       LVL=0

      00FF153DH   BLOCK     CODE     ---       LVL=0
      FFFFFFFEH   STKSYM    ---      BYTE      fifo
      REG=3       REGSYM    ---      ---       pdat
      00FF1545H   BLOCK     CODE     NEAR LAB  LVL=1
      00000000H   STKSYM    ---      BYTE      cnt
      FFFFFFFFH   STKSYM    ---      BYTE      ret
      ---         BLOCKEND  ---      ---       LVL=1
      00FF153DH   LINE      CODE     ---       #61
      00FF1545H   LINE      CODE     ---       #62
      00FF1545H   LINE      CODE     ---       #66
      00FF1551H   LINE      CODE     ---       #67
      00FF1553H   LINE      CODE     ---       #69
      00FF155FH   LINE      CODE     ---       #70
      00FF156CH   LINE      CODE     ---       #72
      00FF1570H   LINE      CODE     ---       #73
      ---         BLOCKEND  ---      ---       LVL=0

      00FF185CH   BLOCK     CODE     ---       LVL=0
      00000000H   STKSYM    ---      BYTE      fifo
      REG=3       REGSYM    ---      ---       pdat
      FFFFFFFFH   STKSYM    ---      BYTE      cnt
      00FF185CH   LINE      CODE     ---       #75
      00FF1864H   LINE      CODE     ---       #77
      00FF1866H   LINE      CODE     ---       #79
      00FF1871H   LINE      CODE     ---       #80
      00FF1880H   LINE      CODE     ---       #81
      ---         BLOCKEND  ---      ---       LVL=0

      00FF0FDBH   BLOCK     CODE     ---       LVL=0
      00FF0FF5H   BLOCK     CODE     NEAR LAB  LVL=1
      R15         REGSYM    ---      BYTE      intrusb
      R13         REGSYM    ---      BYTE      intrin
      R14         REGSYM    ---      BYTE      introut
      ---         BLOCKEND  ---      ---       LVL=1
      00FF0FDBH   LINE      CODE     ---       #83
      00FF0FF5H   LINE      CODE     ---       #84
      00FF0FF5H   LINE      CODE     ---       #89
L251 LINKER/LOCATER V4.66.93.0                                                        07/11/2022  11:40:15  PAGE 19


      00FF0FFCH   LINE      CODE     ---       #90
      00FF1003H   LINE      CODE     ---       #91
      00FF100AH   LINE      CODE     ---       #93
      00FF1012H   LINE      CODE     ---       #94
      00FF101AH   LINE      CODE     ---       #96
      00FF1022H   LINE      CODE     ---       #99
      00FF102AH   LINE      CODE     ---       #115
      00FF1032H   LINE      CODE     ---       #130
      00FF103AH   LINE      CODE     ---       #131
      ---         BLOCKEND  ---      ---       LVL=0

      00FF000AH   BLOCK     CODE     ---       LVL=0
      00FF000AH   LINE      CODE     ---       #133
      00FF000AH   LINE      CODE     ---       #135
      ---         BLOCKEND  ---      ---       LVL=0

      00FF1577H   BLOCK     CODE     ---       LVL=0
      00FF1577H   LINE      CODE     ---       #137
      00FF1577H   LINE      CODE     ---       #139
      00FF157DH   LINE      CODE     ---       #140
      00FF1583H   LINE      CODE     ---       #141
      00FF1588H   LINE      CODE     ---       #144
      00FF1590H   LINE      CODE     ---       #145
      00FF1598H   LINE      CODE     ---       #164
      00FF15A0H   LINE      CODE     ---       #165
      00FF15A8H   LINE      CODE     ---       #183
      ---         BLOCKEND  ---      ---       LVL=0

      00FF0009H   BLOCK     CODE     ---       LVL=0
      00FF0009H   LINE      CODE     ---       #186
      00FF0009H   LINE      CODE     ---       #188
      ---         BLOCKEND  ---      ---       LVL=0

      00FF0E55H   BLOCK     CODE     ---       LVL=0
      00FF0E57H   BLOCK     CODE     NEAR LAB  LVL=1
      R15         REGSYM    ---      BYTE      csr
      ---         BLOCKEND  ---      ---       LVL=1
      00FF0E55H   LINE      CODE     ---       #190
      00FF0E57H   LINE      CODE     ---       #191
      00FF0E57H   LINE      CODE     ---       #194
      00FF0E5EH   LINE      CODE     ---       #195
      00FF0E65H   LINE      CODE     ---       #197
      00FF0E68H   LINE      CODE     ---       #199
      00FF0E72H   LINE      CODE     ---       #200
      00FF0E77H   LINE      CODE     ---       #201
      00FF0E77H   LINE      CODE     ---       #202
      00FF0E7CH   LINE      CODE     ---       #204
      00FF0E86H   LINE      CODE     ---       #205
      00FF0E86H   LINE      CODE     ---       #207
      00FF0E95H   LINE      CODE     ---       #209
      00FF0E95H   LINE      CODE     ---       #210
      00FF0E9AH   LINE      CODE     ---       #212
      00FF0EA3H   LINE      CODE     ---       #213
      00FF0EAEH   LINE      CODE     ---       #214
      00FF0EC0H   LINE      CODE     ---       #216
      00FF0EC0H   LINE      CODE     ---       #217
      00FF0EC3H   LINE      CODE     ---       #218
      00FF0EC5H   LINE      CODE     ---       #219
      00FF0EC5H   LINE      CODE     ---       #220
      00FF0EC8H   LINE      CODE     ---       #221
      00FF0ECAH   LINE      CODE     ---       #222
      00FF0ECAH   LINE      CODE     ---       #223
      00FF0ECDH   LINE      CODE     ---       #224
      00FF0ECFH   LINE      CODE     ---       #225
      00FF0ECFH   LINE      CODE     ---       #226
L251 LINKER/LOCATER V4.66.93.0                                                        07/11/2022  11:40:15  PAGE 20


      00FF0ED2H   LINE      CODE     ---       #227
      00FF0ED4H   LINE      CODE     ---       #228
      00FF0ED4H   LINE      CODE     ---       #229
      00FF0ED4H   LINE      CODE     ---       #230
      00FF0ED4H   LINE      CODE     ---       #231
      00FF0ED4H   LINE      CODE     ---       #232
      00FF0ED7H   LINE      CODE     ---       #233
      00FF0ED9H   LINE      CODE     ---       #234
      00FF0ED9H   LINE      CODE     ---       #235
      00FF0EDCH   LINE      CODE     ---       #236
      00FF0EDCH   LINE      CODE     ---       #237
      00FF0EDCH   LINE      CODE     ---       #238
      ---         BLOCKEND  ---      ---       LVL=0

      00FF1CA7H   BLOCK     CODE     ---       LVL=0
      00FF1CA7H   LINE      CODE     ---       #240
      00FF1CA7H   LINE      CODE     ---       #242
      00FF1CADH   LINE      CODE     ---       #243
      ---         BLOCKEND  ---      ---       LVL=0

      00FF1C7AH   BLOCK     CODE     ---       LVL=0
      00FF1C7AH   LINE      CODE     ---       #246
      00FF1C7AH   LINE      CODE     ---       #248
      00FF1C80H   LINE      CODE     ---       #249
      00FF1C88H   LINE      CODE     ---       #250
      ---         BLOCKEND  ---      ---       LVL=0

      00FF1C99H   BLOCK     CODE     ---       LVL=0
      00FF1C99H   LINE      CODE     ---       #253
      00FF1C99H   LINE      CODE     ---       #255
      00FF1C9FH   LINE      CODE     ---       #256
      ---         BLOCKEND  ---      ---       LVL=0

      00FF1CC3H   BLOCK     CODE     ---       LVL=0
      00FF1CC3H   LINE      CODE     ---       #259
      00FF1CC3H   LINE      CODE     ---       #261
      00FF1CC8H   LINE      CODE     ---       #262
      ---         BLOCKEND  ---      ---       LVL=0

      00FF10BFH   BLOCK     CODE     ---       LVL=0
      00FF10C1H   BLOCK     CODE     NEAR LAB  LVL=1
      R11         REGSYM    ---      BYTE      csr
      R15         REGSYM    ---      BYTE      cnt
      ---         BLOCKEND  ---      ---       LVL=1
      00FF10BFH   LINE      CODE     ---       #265
      00FF10C1H   LINE      CODE     ---       #266
      00FF10C1H   LINE      CODE     ---       #270
      00FF10C8H   LINE      CODE     ---       #271
      00FF10CDH   LINE      CODE     ---       #272
      00FF10D0H   LINE      CODE     ---       #274
      00FF10E1H   LINE      CODE     ---       #275
      00FF10ECH   LINE      CODE     ---       #276
      00FF10F8H   LINE      CODE     ---       #277
      00FF1104H   LINE      CODE     ---       #278
      00FF110CH   LINE      CODE     ---       #280
      00FF1114H   LINE      CODE     ---       #281
      00FF1119H   LINE      CODE     ---       #282
      00FF111BH   LINE      CODE     ---       #285
      00FF1123H   LINE      CODE     ---       #286
      00FF1123H   LINE      CODE     ---       #287
      ---         BLOCKEND  ---      ---       LVL=0

      00FF1182H   BLOCK     CODE     ---       LVL=0
      R11         REGSYM    ---      BYTE      csr
      R7          REGSYM    ---      BYTE      cnt
L251 LINKER/LOCATER V4.66.93.0                                                        07/11/2022  11:40:15  PAGE 21


      00FF1182H   LINE      CODE     ---       #289
      00FF1182H   LINE      CODE     ---       #290
      00FF1182H   LINE      CODE     ---       #294
      00FF1189H   LINE      CODE     ---       #295
      00FF118EH   LINE      CODE     ---       #296
      00FF1191H   LINE      CODE     ---       #298
      00FF119AH   LINE      CODE     ---       #299
      00FF11A6H   LINE      CODE     ---       #300
      00FF11B0H   LINE      CODE     ---       #301
      00FF11B8H   LINE      CODE     ---       #303
      00FF11C0H   LINE      CODE     ---       #304
      00FF11C5H   LINE      CODE     ---       #306
      00FF11CCH   LINE      CODE     ---       #307
      00FF11CEH   LINE      CODE     ---       #308
      00FF11CFH   LINE      CODE     ---       #311
      00FF11D7H   LINE      CODE     ---       #312
      00FF11D7H   LINE      CODE     ---       #313
      ---         BLOCKEND  ---      ---       LVL=0

      00FF1C19H   BLOCK     CODE     ---       LVL=0
      REG=0       REGSYM    ---      ---       pData
      R7          REGSYM    ---      BYTE      bSize
      R10         REGSYM    ---      BYTE      ep
      00FF1C19H   LINE      CODE     ---       #315
      00FF1C1DH   LINE      CODE     ---       #317
      00FF1C26H   LINE      CODE     ---       #318
      ---         BLOCKEND  ---      ---       LVL=0

      00FF19B0H   BLOCK     CODE     ---       LVL=0
      REG=0       REGSYM    ---      ---       pData
      R7          REGSYM    ---      BYTE      ep
      00FF19B2H   BLOCK     CODE     NEAR LAB  LVL=1
      R15         REGSYM    ---      BYTE      cnt
      ---         BLOCKEND  ---      ---       LVL=1
      00FF19B0H   LINE      CODE     ---       #321
      00FF19B2H   LINE      CODE     ---       #322
      00FF19B2H   LINE      CODE     ---       #325
      00FF19BDH   LINE      CODE     ---       #326
      00FF19C4H   LINE      CODE     ---       #328
      00FF19C6H   LINE      CODE     ---       #329
      ---         BLOCKEND  ---      ---       LVL=0

      00FF17B2H   BLOCK     CODE     ---       LVL=0
      00FF17B4H   BLOCK     CODE     NEAR LAB  LVL=1
      R15         REGSYM    ---      BYTE      csr
      ---         BLOCKEND  ---      ---       LVL=1
      00FF17B2H   LINE      CODE     ---       #332
      00FF17B4H   LINE      CODE     ---       #333
      00FF17B4H   LINE      CODE     ---       #336
      00FF17BCH   LINE      CODE     ---       #337
      00FF17C3H   LINE      CODE     ---       #338
      00FF17C6H   LINE      CODE     ---       #340
      00FF17CEH   LINE      CODE     ---       #341
      00FF17CEH   LINE      CODE     ---       #342
      00FF17D3H   LINE      CODE     ---       #344
      00FF17DAH   LINE      CODE     ---       #345
      00FF17DAH   LINE      CODE     ---       #346
      00FF17DCH   LINE      CODE     ---       #347
      ---         BLOCKEND  ---      ---       LVL=0

      00FF0F5FH   BLOCK     CODE     ---       LVL=0
      00FF0F61H   BLOCK     CODE     NEAR LAB  LVL=1
      R15         REGSYM    ---      BYTE      csr
      ---         BLOCKEND  ---      ---       LVL=1
      00FF0F5FH   LINE      CODE     ---       #423
L251 LINKER/LOCATER V4.66.93.0                                                        07/11/2022  11:40:15  PAGE 22


      00FF0F61H   LINE      CODE     ---       #424
      00FF0F61H   LINE      CODE     ---       #427
      00FF0F69H   LINE      CODE     ---       #428
      00FF0F70H   LINE      CODE     ---       #429
      00FF0F73H   LINE      CODE     ---       #431
      00FF0F7BH   LINE      CODE     ---       #432
      00FF0F7BH   LINE      CODE     ---       #433
      00FF0F80H   LINE      CODE     ---       #435
      00FF0F8DH   LINE      CODE     ---       #436
      00FF0F9AH   LINE      CODE     ---       #438
      00FF0FA4H   LINE      CODE     ---       #440
      00FF0FB1H   LINE      CODE     ---       #442
      00FF0FB8H   LINE      CODE     ---       #444
      00FF0FBBH   LINE      CODE     ---       #445
      00FF0FBEH   LINE      CODE     ---       #446
      00FF0FCAH   LINE      CODE     ---       #448
      00FF0FD1H   LINE      CODE     ---       #450
      00FF0FD4H   LINE      CODE     ---       #451
      00FF0FD6H   LINE      CODE     ---       #452
      00FF0FD6H   LINE      CODE     ---       #455
      00FF0FD8H   LINE      CODE     ---       #457
      ---         BLOCKEND  ---      ---       LVL=0

      00FF1833H   BLOCK     CODE     ---       LVL=0
      00FF1833H   LINE      CODE     ---       #534
      00FF1833H   LINE      CODE     ---       #536
      00FF1836H   LINE      CODE     ---       #538
      00FF183EH   LINE      CODE     ---       #539
      00FF1846H   LINE      CODE     ---       #540
      00FF1856H   LINE      CODE     ---       #541
      00FF1858H   LINE      CODE     ---       #543
      00FF185BH   LINE      CODE     ---       #544
      ---         BLOCKEND  ---      ---       LVL=0

      00FF1A14H   BLOCK     CODE     ---       LVL=0
      00FF1A14H   LINE      CODE     ---       #546
      00FF1A14H   LINE      CODE     ---       #548
      00FF1A17H   LINE      CODE     ---       #550
      00FF1A1FH   LINE      CODE     ---       #551
      00FF1A26H   LINE      CODE     ---       #552
      00FF1A28H   LINE      CODE     ---       #554
      00FF1A2BH   LINE      CODE     ---       #555
      ---         BLOCKEND  ---      ---       LVL=0

      ---         MODULE    ---      ---       util
      00FF1C56H   PUBLIC    CODE     ---       LCD12864_DisplayClear
      00FF15AFH   PUBLIC    CODE     ---       OLED12864_ScrollRight
      00FF1B34H   PUBLIC    CODE     ---       OLED12864_DisplayOff
      00FF161FH   PUBLIC    CODE     ---       OLED12864_ScrollLeft
      00FF00A9H   PUBLIC    CODE     ---       OLED12864_SetAddressMode
      00FF191DH   PUBLIC    CODE     ---       OLED12864_SetContrast
      00FF1B4BH   PUBLIC    CODE     ---       LCD12864_AutoWrapOff
      00FF1392H   PUBLIC    CODE     ---       OLED12864_ShowPicture
      00FF1A2CH   PUBLIC    CODE     ---       OLED12864_ScrollStart
      00FF16F4H   PUBLIC    CODE     ---       SEG7_ShowFloat
      00FF130EH   PUBLIC    CODE     ---       SEG7_ShowString
      00FF16C1H   PUBLIC    CODE     ---       SEG7_ShowCode
      00FF13D0H   PUBLIC    CODE     ---       LED40_SendData
      00FF1A44H   PUBLIC    CODE     ---       OLED12864_DisplayOn
      00FF193CH   PUBLIC    CODE     ---       LCD12864_ReverseLine
      00FF1B62H   PUBLIC    CODE     ---       OLED12864_ScrollStop
      00FF140EH   PUBLIC    CODE     ---       LED64_SendData
      00FF1755H   PUBLIC    CODE     ---       printf_hid
      00FF14C7H   PUBLIC    CODE     ---       SEG7_ShowLong
      00FF1A5CH   PUBLIC    CODE     ---       LCD12864_ScrollRight
L251 LINKER/LOCATER V4.66.93.0                                                        07/11/2022  11:40:15  PAGE 23


      00FF1A74H   PUBLIC    CODE     ---       LCD12864_AutoWrapOn
      00FF1B79H   PUBLIC    CODE     ---       LCD12864_DisplayOff
      00FF168CH   PUBLIC    CODE     ---       reverse2
      00FF1B90H   PUBLIC    CODE     ---       LCD12864_ScrollLeft
      00FF1BA7H   PUBLIC    CODE     ---       OLED12864_HorizontalMirror
      00FF122CH   PUBLIC    CODE     ---       LCD12864_ShowPicture
      00FF15E7H   PUBLIC    CODE     ---       OLED12864_ScrollUp
      00FF1BBEH   PUBLIC    CODE     ---       OLED12864_DisplayContent
      00FF1C68H   PUBLIC    CODE     ---       OLED12864_DisplayReverse
      00FF1A8CH   PUBLIC    CODE     ---       OLED12864_VerticalMirror
      00FF1AA4H   PUBLIC    CODE     ---       LCD12864_CursorReturnHome
      00FF1ABCH   PUBLIC    CODE     ---       OLED12864_DisplayEntire
      00FF1AD4H   PUBLIC    CODE     ---       LCD12864_DisplayOn
      00FF1AECH   PUBLIC    CODE     ---       LCD12864_CursorMoveRight
      00FF1502H   PUBLIC    CODE     ---       LCD12864_ShowString
      00FF1BD5H   PUBLIC    CODE     ---       LCD12864_CursorOff
      00FF1B04H   PUBLIC    CODE     ---       sleep_ms
      00FF1BECH   PUBLIC    CODE     ---       LCD12864_CursorMoveLeft
      00FF1979H   PUBLIC    CODE     ---       sleep_us
      00FF18D3H   PUBLIC    CODE     ---       LCD12864_ScrollUp
      00FF1B1CH   PUBLIC    CODE     ---       LCD12864_CursorOn
      00000049H   PUBLIC    EDATA    BYTE      ?SEG7_ShowString?BYTE
      00000075H   PUBLIC    EDATA    BYTE      ?printf_hid?BYTE
      000000D0H   SFRSYM    DATA     BYTE      PSW
      0000009DH   SFRSYM    DATA     BYTE      IRCBAND
      00000097H   SFRSYM    DATA     BYTE      AUXR2
      000000EFH   SFRSYM    DATA     BYTE      AUXINTIF
      000000FDH   SFRSYM    DATA     BYTE      S4CON
      000000ACH   SFRSYM    DATA     BYTE      S3CON
      0000009AH   SFRSYM    DATA     BYTE      S2CON
      000000B7H   SFRSYM    DATA     BYTE      IPH
      000000CDH   SFRSYM    DATA     BYTE      SPSTAT
      000000DDH   SFRSYM    DATA     BYTE      T4T3M
      000000C1H   SFRSYM    DATA     BYTE      WDT_CONTR
      000000DFH   SFRSYM    DATA     BYTE      IP3
      000000F4H   SFRSYM    DATA     BYTE      USBCON
      000000B5H   SFRSYM    DATA     BYTE      IP2
      000000FFH   SFRSYM    DATA     BYTE      RSTCFG
      000000F9H   SFRSYM    DATA     BYTE      LINICR
      0000008EH   SFRSYM    DATA     BYTE      AUXR
      000000AFH   SFRSYM    DATA     BYTE      IE2
      00000088H   SFRSYM    DATA     BYTE      TCON
      00000098H   SFRSYM    DATA     BYTE      SCON
      000000F1H   SFRSYM    DATA     BYTE      CANICR
      00000087H   SFRSYM    DATA     BYTE      PCON
      000000BCH   SFRSYM    DATA     BYTE      ADC_CONTR
      000000E7H   SFRSYM    DATA     BYTE      CMPCR2
      000000E6H   SFRSYM    DATA     BYTE      CMPCR1
      000000B8H   SFRSYM    DATA     BYTE      IP
      0000008FH   SFRSYM    DATA     BYTE      INTCLKO
      000000EEH   SFRSYM    DATA     BYTE      IP3H
      000000B6H   SFRSYM    DATA     BYTE      IP2H
      000000A8H   SFRSYM    DATA     BYTE      IE
      000000BBH   SFRSYM    DATA     BYTE      P_SW3
      000000BAH   SFRSYM    DATA     BYTE      P_SW2
      000000A2H   SFRSYM    DATA     BYTE      P_SW1
      000000CEH   SFRSYM    DATA     BYTE      SPCTL
      000000F8H   SFRSYM    DATA     BYTE      P7
      000000E8H   SFRSYM    DATA     BYTE      P6
      000000C8H   SFRSYM    DATA     BYTE      P5
      000000C0H   SFRSYM    DATA     BYTE      P4
      000000B0H   SFRSYM    DATA     BYTE      P3
      000000A0H   SFRSYM    DATA     BYTE      P2
      00000090H   SFRSYM    DATA     BYTE      P1
      00000080H   SFRSYM    DATA     BYTE      P0
L251 LINKER/LOCATER V4.66.93.0                                                        07/11/2022  11:40:15  PAGE 24


      00FF19C9H   SYMBOL    CODE     ---       OLED12864_SetHeader
      00FF0CAAH   SYMBOL    CODE     ---       OLED12864_SetBuffer
      00FF19E2H   SYMBOL    CODE     ---       LCD12864_SetHeader
      00FF0D39H   SYMBOL    CODE     ---       LCD12864_SetBuffer
      00FF19FBH   SYMBOL    CODE     ---       SEG7_SetHeader

      00FF168CH   BLOCK     CODE     ---       LVL=0
      00000095H   SYMBOL    EDATA    WORD      w
      00FF1690H   BLOCK     CODE     NEAR LAB  LVL=1
      00000097H   SYMBOL    EDATA    WORD      ret
      ---         BLOCKEND  ---      ---       LVL=1
      00FF168CH   LINE      CODE     ---       #17
      00FF1690H   LINE      CODE     ---       #18
      00FF1690H   LINE      CODE     ---       #21
      00FF16A6H   LINE      CODE     ---       #22
      00FF16BCH   LINE      CODE     ---       #24
      00FF16C0H   LINE      CODE     ---       #25
      ---         BLOCKEND  ---      ---       LVL=0

      00FF1979H   BLOCK     CODE     ---       LVL=0
      WR6         REGSYM    ---      WORD      n
      00FF1979H   LINE      CODE     ---       #27
      00FF1979H   LINE      CODE     ---       #29
      00FF197BH   LINE      CODE     ---       #38
      00FF197CH   LINE      CODE     ---       #39
      00FF197DH   LINE      CODE     ---       #40
      00FF197EH   LINE      CODE     ---       #41
      00FF197FH   LINE      CODE     ---       #43
      00FF1980H   LINE      CODE     ---       #44
      00FF1981H   LINE      CODE     ---       #45
      00FF1982H   LINE      CODE     ---       #46
      00FF1983H   LINE      CODE     ---       #47
      00FF1984H   LINE      CODE     ---       #49
      00FF1985H   LINE      CODE     ---       #50
      00FF1986H   LINE      CODE     ---       #51
      00FF1987H   LINE      CODE     ---       #52
      00FF1988H   LINE      CODE     ---       #53
      00FF1989H   LINE      CODE     ---       #55
      00FF198AH   LINE      CODE     ---       #56
      00FF198BH   LINE      CODE     ---       #57
      00FF198CH   LINE      CODE     ---       #58
      00FF198DH   LINE      CODE     ---       #59
      00FF1995H   LINE      CODE     ---       #60
      ---         BLOCKEND  ---      ---       LVL=0

      00FF1B04H   BLOCK     CODE     ---       LVL=0
      WR14        REGSYM    ---      WORD      n
      00FF1B04H   LINE      CODE     ---       #62
      00FF1B08H   LINE      CODE     ---       #64
      00FF1B19H   LINE      CODE     ---       #66
      ---         BLOCKEND  ---      ---       LVL=0

      00FF19FBH   BLOCK     CODE     ---       LVL=0
      00FF19FBH   LINE      CODE     ---       #68
      00FF19FBH   LINE      CODE     ---       #70
      00FF1A01H   LINE      CODE     ---       #71
      00FF1A07H   LINE      CODE     ---       #72
      00FF1A0DH   LINE      CODE     ---       #73
      00FF1A13H   LINE      CODE     ---       #74
      ---         BLOCKEND  ---      ---       LVL=0

      00FF14C7H   BLOCK     CODE     ---       LVL=0
      0000008DH   SYMBOL    EDATA    LONG      n
      R15         REGSYM    ---      CHAR      radix
      00FF14C7H   LINE      CODE     ---       #76
L251 LINKER/LOCATER V4.66.93.0                                                        07/11/2022  11:40:15  PAGE 25


      00FF14CFH   LINE      CODE     ---       #78
      00FF14D2H   LINE      CODE     ---       #79
      00FF14D8H   LINE      CODE     ---       #80
      00FF14DEH   LINE      CODE     ---       #81
      00FF14E4H   LINE      CODE     ---       #82
      00FF14E9H   LINE      CODE     ---       #83
      00FF14FCH   LINE      CODE     ---       #85
      00FF14FFH   LINE      CODE     ---       #86
      ---         BLOCKEND  ---      ---       LVL=0

      00FF16F4H   BLOCK     CODE     ---       LVL=0
      DR12        REGSYM    ---      FLOAT     f
      00FF16F4H   LINE      CODE     ---       #88
      00FF16F8H   LINE      CODE     ---       #90
      00FF16FBH   LINE      CODE     ---       #91
      00FF1701H   LINE      CODE     ---       #92
      00FF1707H   LINE      CODE     ---       #93
      00FF170CH   LINE      CODE     ---       #94
      00FF1710H   LINE      CODE     ---       #95
      00FF171FH   LINE      CODE     ---       #97
      00FF1722H   LINE      CODE     ---       #98
      ---         BLOCKEND  ---      ---       LVL=0

      00FF16C1H   BLOCK     CODE     ---       LVL=0
      REG=3       REGSYM    ---      ---       cod
      00FF16C1H   LINE      CODE     ---       #100
      00FF16C3H   LINE      CODE     ---       #102
      00FF16C6H   LINE      CODE     ---       #103
      00FF16CCH   LINE      CODE     ---       #104
      00FF16D1H   LINE      CODE     ---       #105
      00FF16D5H   LINE      CODE     ---       #106
      00FF16D9H   LINE      CODE     ---       #107
      00FF16EEH   LINE      CODE     ---       #109
      00FF16F1H   LINE      CODE     ---       #110
      ---         BLOCKEND  ---      ---       LVL=0

      00FF130EH   BLOCK     CODE     ---       LVL=0
      00000049H   SYMBOL    EDATA    ---       fmt
      00FF1314H   BLOCK     CODE     NEAR LAB  LVL=1
      REG=1       REGSYM    ---      ---       va
      WR14        REGSYM    ---      INT       ret
      ---         BLOCKEND  ---      ---       LVL=1
      00FF130EH   LINE      CODE     ---       #112
      00FF1314H   LINE      CODE     ---       #113
      00FF1314H   LINE      CODE     ---       #117
      00FF1317H   LINE      CODE     ---       #118
      00FF131DH   LINE      CODE     ---       #119
      00FF1322H   LINE      CODE     ---       #120
      00FF1326H   LINE      CODE     ---       #121
      00FF132AH   LINE      CODE     ---       #123
      00FF1332H   LINE      CODE     ---       #124
      00FF134BH   LINE      CODE     ---       #127
      00FF134EH   LINE      CODE     ---       #129
      00FF1350H   LINE      CODE     ---       #130
      ---         BLOCKEND  ---      ---       LVL=0

      00FF1755H   BLOCK     CODE     ---       LVL=0
      00000075H   SYMBOL    EDATA    ---       fmt
      00FF175BH   BLOCK     CODE     NEAR LAB  LVL=1
      REG=1       REGSYM    ---      ---       va
      WR14        REGSYM    ---      INT       ret
      ---         BLOCKEND  ---      ---       LVL=1
      00FF1755H   LINE      CODE     ---       #132
      00FF175BH   LINE      CODE     ---       #133
      00FF175BH   LINE      CODE     ---       #137
L251 LINKER/LOCATER V4.66.93.0                                                        07/11/2022  11:40:15  PAGE 26


      00FF1763H   LINE      CODE     ---       #138
      00FF177CH   LINE      CODE     ---       #141
      00FF177FH   LINE      CODE     ---       #143
      00FF1781H   LINE      CODE     ---       #144
      ---         BLOCKEND  ---      ---       LVL=0

      00FF13D0H   BLOCK     CODE     ---       LVL=0
      REG=0       REGSYM    ---      ---       dat
      R10         REGSYM    ---      BYTE      size
      00FF13D0H   LINE      CODE     ---       #146
      00FF13D2H   LINE      CODE     ---       #148
      00FF13D7H   LINE      CODE     ---       #149
      00FF13DAH   LINE      CODE     ---       #151
      00FF13E0H   LINE      CODE     ---       #152
      00FF13E6H   LINE      CODE     ---       #153
      00FF13ECH   LINE      CODE     ---       #154
      00FF13F2H   LINE      CODE     ---       #155
      00FF13F8H   LINE      CODE     ---       #156
      00FF140BH   LINE      CODE     ---       #158
      ---         BLOCKEND  ---      ---       LVL=0

      00FF140EH   BLOCK     CODE     ---       LVL=0
      REG=0       REGSYM    ---      ---       dat
      R10         REGSYM    ---      BYTE      size
      00FF140EH   LINE      CODE     ---       #161
      00FF1410H   LINE      CODE     ---       #163
      00FF1415H   LINE      CODE     ---       #164
      00FF1418H   LINE      CODE     ---       #166
      00FF141EH   LINE      CODE     ---       #167
      00FF1424H   LINE      CODE     ---       #168
      00FF142AH   LINE      CODE     ---       #169
      00FF1430H   LINE      CODE     ---       #170
      00FF1436H   LINE      CODE     ---       #171
      00FF1449H   LINE      CODE     ---       #173
      ---         BLOCKEND  ---      ---       LVL=0

      00FF19E2H   BLOCK     CODE     ---       LVL=0
      00FF19E2H   LINE      CODE     ---       #176
      00FF19E2H   LINE      CODE     ---       #178
      00FF19E8H   LINE      CODE     ---       #179
      00FF19EEH   LINE      CODE     ---       #180
      00FF19F4H   LINE      CODE     ---       #181
      00FF19FAH   LINE      CODE     ---       #182
      ---         BLOCKEND  ---      ---       LVL=0

      00FF1B79H   BLOCK     CODE     ---       LVL=0
      00FF1B79H   LINE      CODE     ---       #184
      00FF1B79H   LINE      CODE     ---       #186
      00FF1B7CH   LINE      CODE     ---       #187
      00FF1B82H   LINE      CODE     ---       #188
      00FF1B88H   LINE      CODE     ---       #189
      00FF1B8DH   LINE      CODE     ---       #191
      ---         BLOCKEND  ---      ---       LVL=0

      00FF1AD4H   BLOCK     CODE     ---       LVL=0
      00FF1AD4H   LINE      CODE     ---       #194
      00FF1AD4H   LINE      CODE     ---       #196
      00FF1AD7H   LINE      CODE     ---       #197
      00FF1ADDH   LINE      CODE     ---       #198
      00FF1AE3H   LINE      CODE     ---       #199
      00FF1AE9H   LINE      CODE     ---       #201
      ---         BLOCKEND  ---      ---       LVL=0

      00FF1BD5H   BLOCK     CODE     ---       LVL=0
      00FF1BD5H   LINE      CODE     ---       #204
L251 LINKER/LOCATER V4.66.93.0                                                        07/11/2022  11:40:15  PAGE 27


      00FF1BD5H   LINE      CODE     ---       #206
      00FF1BD8H   LINE      CODE     ---       #207
      00FF1BDEH   LINE      CODE     ---       #208
      00FF1BE4H   LINE      CODE     ---       #209
      00FF1BE9H   LINE      CODE     ---       #211
      ---         BLOCKEND  ---      ---       LVL=0

      00FF1B1CH   BLOCK     CODE     ---       LVL=0
      00FF1B1CH   LINE      CODE     ---       #214
      00FF1B1CH   LINE      CODE     ---       #216
      00FF1B1FH   LINE      CODE     ---       #217
      00FF1B25H   LINE      CODE     ---       #218
      00FF1B2BH   LINE      CODE     ---       #219
      00FF1B31H   LINE      CODE     ---       #221
      ---         BLOCKEND  ---      ---       LVL=0

      00FF1BECH   BLOCK     CODE     ---       LVL=0
      00FF1BECH   LINE      CODE     ---       #224
      00FF1BECH   LINE      CODE     ---       #226
      00FF1BEFH   LINE      CODE     ---       #227
      00FF1BF5H   LINE      CODE     ---       #228
      00FF1BFBH   LINE      CODE     ---       #229
      00FF1C00H   LINE      CODE     ---       #231
      ---         BLOCKEND  ---      ---       LVL=0

      00FF1AECH   BLOCK     CODE     ---       LVL=0
      00FF1AECH   LINE      CODE     ---       #234
      00FF1AECH   LINE      CODE     ---       #236
      00FF1AEFH   LINE      CODE     ---       #237
      00FF1AF5H   LINE      CODE     ---       #238
      00FF1AFBH   LINE      CODE     ---       #239
      00FF1B01H   LINE      CODE     ---       #241
      ---         BLOCKEND  ---      ---       LVL=0

      00FF1AA4H   BLOCK     CODE     ---       LVL=0
      00FF1AA4H   LINE      CODE     ---       #244
      00FF1AA4H   LINE      CODE     ---       #246
      00FF1AA7H   LINE      CODE     ---       #247
      00FF1AADH   LINE      CODE     ---       #248
      00FF1AB3H   LINE      CODE     ---       #249
      00FF1AB9H   LINE      CODE     ---       #251
      ---         BLOCKEND  ---      ---       LVL=0

      00FF1B90H   BLOCK     CODE     ---       LVL=0
      00FF1B90H   LINE      CODE     ---       #254
      00FF1B90H   LINE      CODE     ---       #256
      00FF1B93H   LINE      CODE     ---       #257
      00FF1B99H   LINE      CODE     ---       #258
      00FF1B9FH   LINE      CODE     ---       #259
      00FF1BA4H   LINE      CODE     ---       #261
      ---         BLOCKEND  ---      ---       LVL=0

      00FF1A5CH   BLOCK     CODE     ---       LVL=0
      00FF1A5CH   LINE      CODE     ---       #264
      00FF1A5CH   LINE      CODE     ---       #266
      00FF1A5FH   LINE      CODE     ---       #267
      00FF1A65H   LINE      CODE     ---       #268
      00FF1A6BH   LINE      CODE     ---       #269
      00FF1A71H   LINE      CODE     ---       #271
      ---         BLOCKEND  ---      ---       LVL=0

      00FF18D3H   BLOCK     CODE     ---       LVL=0
      R15         REGSYM    ---      BYTE      line
      00FF18D3H   LINE      CODE     ---       #274
      00FF18D7H   LINE      CODE     ---       #276
L251 LINKER/LOCATER V4.66.93.0                                                        07/11/2022  11:40:15  PAGE 28


      00FF18DAH   LINE      CODE     ---       #277
      00FF18E0H   LINE      CODE     ---       #278
      00FF18E6H   LINE      CODE     ---       #279
      00FF18ECH   LINE      CODE     ---       #280
      00FF18F2H   LINE      CODE     ---       #282
      00FF18F5H   LINE      CODE     ---       #283
      ---         BLOCKEND  ---      ---       LVL=0

      00FF1B4BH   BLOCK     CODE     ---       LVL=0
      00FF1B4BH   LINE      CODE     ---       #285
      00FF1B4BH   LINE      CODE     ---       #287
      00FF1B4EH   LINE      CODE     ---       #288
      00FF1B54H   LINE      CODE     ---       #289
      00FF1B5AH   LINE      CODE     ---       #290
      00FF1B5FH   LINE      CODE     ---       #292
      ---         BLOCKEND  ---      ---       LVL=0

      00FF1A74H   BLOCK     CODE     ---       LVL=0
      00FF1A74H   LINE      CODE     ---       #295
      00FF1A74H   LINE      CODE     ---       #297
      00FF1A77H   LINE      CODE     ---       #298
      00FF1A7DH   LINE      CODE     ---       #299
      00FF1A83H   LINE      CODE     ---       #300
      00FF1A89H   LINE      CODE     ---       #302
      ---         BLOCKEND  ---      ---       LVL=0

      00FF193CH   BLOCK     CODE     ---       LVL=0
      R15         REGSYM    ---      BYTE      line
      00FF193CH   LINE      CODE     ---       #305
      00FF1940H   LINE      CODE     ---       #307
      00FF1943H   LINE      CODE     ---       #308
      00FF1949H   LINE      CODE     ---       #309
      00FF194FH   LINE      CODE     ---       #310
      00FF1955H   LINE      CODE     ---       #312
      00FF1958H   LINE      CODE     ---       #313
      ---         BLOCKEND  ---      ---       LVL=0

      00FF1C56H   BLOCK     CODE     ---       LVL=0
      00FF1C56H   LINE      CODE     ---       #315
      00FF1C56H   LINE      CODE     ---       #317
      00FF1C59H   LINE      CODE     ---       #318
      00FF1C5FH   LINE      CODE     ---       #319
      00FF1C65H   LINE      CODE     ---       #321
      ---         BLOCKEND  ---      ---       LVL=0

      00FF0D39H   BLOCK     CODE     ---       LVL=0
      REG=3       REGSYM    ---      ---       dat
      0000001AH   SYMBOL    EDATA    WORD      size
      00FF0D41H   BLOCK     CODE     NEAR LAB  LVL=1
      0000001CH   SYMBOL    EDATA    BYTE      cnt
      0000001DH   SYMBOL    EDATA    WORD      addr
      ---         BLOCKEND  ---      ---       LVL=1
      00FF0D39H   LINE      CODE     ---       #324
      00FF0D41H   LINE      CODE     ---       #325
      00FF0D41H   LINE      CODE     ---       #329
      00FF0D47H   LINE      CODE     ---       #330
      00FF0D49H   LINE      CODE     ---       #332
      00FF0D4FH   LINE      CODE     ---       #333
      00FF0D59H   LINE      CODE     ---       #334
      00FF0D5DH   LINE      CODE     ---       #336
      00FF0D60H   LINE      CODE     ---       #337
      00FF0D6EH   LINE      CODE     ---       #338
      00FF0D74H   LINE      CODE     ---       #339
      00FF0D83H   LINE      CODE     ---       #340
      00FF0D9AH   LINE      CODE     ---       #342
L251 LINKER/LOCATER V4.66.93.0                                                        07/11/2022  11:40:15  PAGE 29


      00FF0D9DH   LINE      CODE     ---       #344
      00FF0DA5H   LINE      CODE     ---       #345
      00FF0DB3H   LINE      CODE     ---       #346
      00FF0DBDH   LINE      CODE     ---       #347
      00FF0DC5H   LINE      CODE     ---       #348
      ---         BLOCKEND  ---      ---       LVL=0

      00FF1502H   BLOCK     CODE     ---       LVL=0
      00000099H   SYMBOL    EDATA    BYTE      x
      0000009AH   SYMBOL    EDATA    BYTE      y
      REG=3       REGSYM    ---      ---       str
      00FF1502H   LINE      CODE     ---       #350
      00FF150EH   LINE      CODE     ---       #352
      00FF1518H   LINE      CODE     ---       #354
      00FF151BH   LINE      CODE     ---       #355
      00FF1521H   LINE      CODE     ---       #356
      00FF1527H   LINE      CODE     ---       #357
      00FF152FH   LINE      CODE     ---       #358
      00FF1537H   LINE      CODE     ---       #360
      00FF153AH   LINE      CODE     ---       #361
      ---         BLOCKEND  ---      ---       LVL=0

      00FF122CH   BLOCK     CODE     ---       LVL=0
      R12         REGSYM    ---      BYTE      x
      R13         REGSYM    ---      BYTE      y
      R14         REGSYM    ---      BYTE      cx
      R15         REGSYM    ---      BYTE      cy
      REG=7       REGSYM    ---      ---       dat
      00FF122CH   LINE      CODE     ---       #363
      00FF1238H   LINE      CODE     ---       #365
      00FF124CH   LINE      CODE     ---       #367
      00FF124FH   LINE      CODE     ---       #368
      00FF1255H   LINE      CODE     ---       #369
      00FF125BH   LINE      CODE     ---       #370
      00FF1261H   LINE      CODE     ---       #371
      00FF1267H   LINE      CODE     ---       #372
      00FF126DH   LINE      CODE     ---       #373
      00FF1273H   LINE      CODE     ---       #375
      00FF1276H   LINE      CODE     ---       #376
      ---         BLOCKEND  ---      ---       LVL=0

      00FF19C9H   BLOCK     CODE     ---       LVL=0
      00FF19C9H   LINE      CODE     ---       #378
      00FF19C9H   LINE      CODE     ---       #380
      00FF19CFH   LINE      CODE     ---       #381
      00FF19D5H   LINE      CODE     ---       #382
      00FF19DBH   LINE      CODE     ---       #383
      00FF19E1H   LINE      CODE     ---       #384
      ---         BLOCKEND  ---      ---       LVL=0

      00FF1B34H   BLOCK     CODE     ---       LVL=0
      00FF1B34H   LINE      CODE     ---       #386
      00FF1B34H   LINE      CODE     ---       #388
      00FF1B37H   LINE      CODE     ---       #389
      00FF1B3DH   LINE      CODE     ---       #390
      00FF1B43H   LINE      CODE     ---       #391
      00FF1B48H   LINE      CODE     ---       #393
      ---         BLOCKEND  ---      ---       LVL=0

      00FF1A44H   BLOCK     CODE     ---       LVL=0
      00FF1A44H   LINE      CODE     ---       #396
      00FF1A44H   LINE      CODE     ---       #398
      00FF1A47H   LINE      CODE     ---       #399
      00FF1A4DH   LINE      CODE     ---       #400
      00FF1A53H   LINE      CODE     ---       #401
L251 LINKER/LOCATER V4.66.93.0                                                        07/11/2022  11:40:15  PAGE 30


      00FF1A59H   LINE      CODE     ---       #403
      ---         BLOCKEND  ---      ---       LVL=0

      00FF1BBEH   BLOCK     CODE     ---       LVL=0
      00FF1BBEH   LINE      CODE     ---       #406
      00FF1BBEH   LINE      CODE     ---       #408
      00FF1BC1H   LINE      CODE     ---       #409
      00FF1BC7H   LINE      CODE     ---       #410
      00FF1BCDH   LINE      CODE     ---       #411
      00FF1BD2H   LINE      CODE     ---       #413
      ---         BLOCKEND  ---      ---       LVL=0

      00FF1ABCH   BLOCK     CODE     ---       LVL=0
      00FF1ABCH   LINE      CODE     ---       #416
      00FF1ABCH   LINE      CODE     ---       #418
      00FF1ABFH   LINE      CODE     ---       #419
      00FF1AC5H   LINE      CODE     ---       #420
      00FF1ACBH   LINE      CODE     ---       #421
      00FF1AD1H   LINE      CODE     ---       #423
      ---         BLOCKEND  ---      ---       LVL=0

      00FF1BA7H   BLOCK     CODE     ---       LVL=0
      00FF1BA7H   LINE      CODE     ---       #426
      00FF1BA7H   LINE      CODE     ---       #428
      00FF1BAAH   LINE      CODE     ---       #429
      00FF1BB0H   LINE      CODE     ---       #430
      00FF1BB6H   LINE      CODE     ---       #431
      00FF1BBBH   LINE      CODE     ---       #433
      ---         BLOCKEND  ---      ---       LVL=0

      00FF1A8CH   BLOCK     CODE     ---       LVL=0
      00FF1A8CH   LINE      CODE     ---       #436
      00FF1A8CH   LINE      CODE     ---       #438
      00FF1A8FH   LINE      CODE     ---       #439
      00FF1A95H   LINE      CODE     ---       #440
      00FF1A9BH   LINE      CODE     ---       #441
      00FF1AA1H   LINE      CODE     ---       #443
      ---         BLOCKEND  ---      ---       LVL=0

      00FF1C68H   BLOCK     CODE     ---       LVL=0
      00FF1C68H   LINE      CODE     ---       #446
      00FF1C68H   LINE      CODE     ---       #448
      00FF1C6BH   LINE      CODE     ---       #449
      00FF1C71H   LINE      CODE     ---       #450
      00FF1C77H   LINE      CODE     ---       #452
      ---         BLOCKEND  ---      ---       LVL=0

      00FF191DH   BLOCK     CODE     ---       LVL=0
      R15         REGSYM    ---      BYTE      bContrast
      00FF191DH   LINE      CODE     ---       #455
      00FF1921H   LINE      CODE     ---       #457
      00FF1924H   LINE      CODE     ---       #458
      00FF192AH   LINE      CODE     ---       #459
      00FF1930H   LINE      CODE     ---       #460
      00FF1936H   LINE      CODE     ---       #462
      00FF1939H   LINE      CODE     ---       #463
      ---         BLOCKEND  ---      ---       LVL=0

      00FF00A9H   BLOCK     CODE     ---       LVL=0
      R15         REGSYM    ---      BYTE      bMode
      00FF00A9H   LINE      CODE     ---       #465
      00FF00ADH   LINE      CODE     ---       #467
      00FF00B0H   LINE      CODE     ---       #468
      00FF00B6H   LINE      CODE     ---       #469
      00FF00BCH   LINE      CODE     ---       #470
L251 LINKER/LOCATER V4.66.93.0                                                        07/11/2022  11:40:15  PAGE 31


      00FF00C2H   LINE      CODE     ---       #472
      00FF00C5H   LINE      CODE     ---       #473
      ---         BLOCKEND  ---      ---       LVL=0

      00FF161FH   BLOCK     CODE     ---       LVL=0
      R12         REGSYM    ---      BYTE      bPageStart
      R13         REGSYM    ---      BYTE      bPageEnd
      WR14        REGSYM    ---      WORD      nInterval
      00FF161FH   LINE      CODE     ---       #475
      00FF1625H   LINE      CODE     ---       #477
      00FF1628H   LINE      CODE     ---       #478
      00FF162EH   LINE      CODE     ---       #479
      00FF1634H   LINE      CODE     ---       #480
      00FF1639H   LINE      CODE     ---       #481
      00FF163FH   LINE      CODE     ---       #482
      00FF1645H   LINE      CODE     ---       #483
      00FF1650H   LINE      CODE     ---       #485
      00FF1653H   LINE      CODE     ---       #486
      ---         BLOCKEND  ---      ---       LVL=0

      00FF15AFH   BLOCK     CODE     ---       LVL=0
      R12         REGSYM    ---      BYTE      bPageStart
      R13         REGSYM    ---      BYTE      bPageEnd
      WR14        REGSYM    ---      WORD      nInterval
      00FF15AFH   LINE      CODE     ---       #488
      00FF15B5H   LINE      CODE     ---       #490
      00FF15B8H   LINE      CODE     ---       #491
      00FF15BEH   LINE      CODE     ---       #492
      00FF15C4H   LINE      CODE     ---       #493
      00FF15CAH   LINE      CODE     ---       #494
      00FF15D0H   LINE      CODE     ---       #495
      00FF15D6H   LINE      CODE     ---       #496
      00FF15E1H   LINE      CODE     ---       #498
      00FF15E4H   LINE      CODE     ---       #499
      ---         BLOCKEND  ---      ---       LVL=0

      00FF15E7H   BLOCK     CODE     ---       LVL=0
      R12         REGSYM    ---      BYTE      bPageStart
      R13         REGSYM    ---      BYTE      bPageEnd
      WR14        REGSYM    ---      WORD      nInterval
      00FF15E7H   LINE      CODE     ---       #501
      00FF15EDH   LINE      CODE     ---       #503
      00FF15F0H   LINE      CODE     ---       #504
      00FF15F6H   LINE      CODE     ---       #505
      00FF15FCH   LINE      CODE     ---       #506
      00FF1602H   LINE      CODE     ---       #507
      00FF1608H   LINE      CODE     ---       #508
      00FF160EH   LINE      CODE     ---       #509
      00FF1619H   LINE      CODE     ---       #511
      00FF161CH   LINE      CODE     ---       #512
      ---         BLOCKEND  ---      ---       LVL=0

      00FF1A2CH   BLOCK     CODE     ---       LVL=0
      00FF1A2CH   LINE      CODE     ---       #514
      00FF1A2CH   LINE      CODE     ---       #516
      00FF1A2FH   LINE      CODE     ---       #517
      00FF1A35H   LINE      CODE     ---       #518
      00FF1A3BH   LINE      CODE     ---       #519
      00FF1A41H   LINE      CODE     ---       #521
      ---         BLOCKEND  ---      ---       LVL=0

      00FF1B62H   BLOCK     CODE     ---       LVL=0
      00FF1B62H   LINE      CODE     ---       #524
      00FF1B62H   LINE      CODE     ---       #526
      00FF1B65H   LINE      CODE     ---       #527
L251 LINKER/LOCATER V4.66.93.0                                                        07/11/2022  11:40:15  PAGE 32


      00FF1B6BH   LINE      CODE     ---       #528
      00FF1B71H   LINE      CODE     ---       #529
      00FF1B76H   LINE      CODE     ---       #531
      ---         BLOCKEND  ---      ---       LVL=0

      00FF0CAAH   BLOCK     CODE     ---       LVL=0
      REG=3       REGSYM    ---      ---       dat
      00000088H   SYMBOL    EDATA    WORD      size
      00FF0CB2H   BLOCK     CODE     NEAR LAB  LVL=1
      0000008AH   SYMBOL    EDATA    BYTE      cnt
      0000008BH   SYMBOL    EDATA    WORD      addr
      ---         BLOCKEND  ---      ---       LVL=1
      00FF0CAAH   LINE      CODE     ---       #534
      00FF0CB2H   LINE      CODE     ---       #535
      00FF0CB2H   LINE      CODE     ---       #539
      00FF0CB8H   LINE      CODE     ---       #540
      00FF0CBAH   LINE      CODE     ---       #542
      00FF0CC0H   LINE      CODE     ---       #543
      00FF0CCAH   LINE      CODE     ---       #544
      00FF0CCEH   LINE      CODE     ---       #546
      00FF0CD1H   LINE      CODE     ---       #547
      00FF0CDFH   LINE      CODE     ---       #548
      00FF0CE5H   LINE      CODE     ---       #549
      00FF0CF4H   LINE      CODE     ---       #550
      00FF0D0BH   LINE      CODE     ---       #552
      00FF0D0EH   LINE      CODE     ---       #554
      00FF0D16H   LINE      CODE     ---       #555
      00FF0D24H   LINE      CODE     ---       #556
      00FF0D2EH   LINE      CODE     ---       #557
      00FF0D36H   LINE      CODE     ---       #558
      ---         BLOCKEND  ---      ---       LVL=0

      00FF1392H   BLOCK     CODE     ---       LVL=0
      R12         REGSYM    ---      BYTE      x
      R13         REGSYM    ---      BYTE      y
      R14         REGSYM    ---      BYTE      cx
      R15         REGSYM    ---      BYTE      cy
      REG=7       REGSYM    ---      ---       dat
      00FF1392H   LINE      CODE     ---       #560
      00FF139CH   LINE      CODE     ---       #562
      00FF13A3H   LINE      CODE     ---       #564
      00FF13A6H   LINE      CODE     ---       #565
      00FF13ACH   LINE      CODE     ---       #566
      00FF13B2H   LINE      CODE     ---       #567
      00FF13B8H   LINE      CODE     ---       #568
      00FF13BEH   LINE      CODE     ---       #569
      00FF13C4H   LINE      CODE     ---       #570
      00FF13CAH   LINE      CODE     ---       #572
      00FF13CDH   LINE      CODE     ---       #573
      ---         BLOCKEND  ---      ---       LVL=0

      ---         MODULE    ---      ---       usb_req_class
      00FF0003H   PUBLIC    CODE     ---       usb_get_protocol
      00FF0006H   PUBLIC    CODE     ---       usb_set_protocol
      00FF18ADH   PUBLIC    CODE     ---       usb_get_idle
      00FF17DFH   PUBLIC    CODE     ---       usb_get_report
      00FF1784H   PUBLIC    CODE     ---       usb_req_class
      00FF195BH   PUBLIC    CODE     ---       usb_set_idle
      00FF1809H   PUBLIC    CODE     ---       usb_set_report
      0000001FH   PUBLIC    EDATA    BYTE      bHidIdle
      000000D0H   SFRSYM    DATA     BYTE      PSW
      0000009DH   SFRSYM    DATA     BYTE      IRCBAND
      00000097H   SFRSYM    DATA     BYTE      AUXR2
      000000EFH   SFRSYM    DATA     BYTE      AUXINTIF
      000000FDH   SFRSYM    DATA     BYTE      S4CON
L251 LINKER/LOCATER V4.66.93.0                                                        07/11/2022  11:40:15  PAGE 33


      000000ACH   SFRSYM    DATA     BYTE      S3CON
      0000009AH   SFRSYM    DATA     BYTE      S2CON
      000000B7H   SFRSYM    DATA     BYTE      IPH
      000000CDH   SFRSYM    DATA     BYTE      SPSTAT
      000000DDH   SFRSYM    DATA     BYTE      T4T3M
      000000C1H   SFRSYM    DATA     BYTE      WDT_CONTR
      000000DFH   SFRSYM    DATA     BYTE      IP3
      000000F4H   SFRSYM    DATA     BYTE      USBCON
      000000B5H   SFRSYM    DATA     BYTE      IP2
      000000FFH   SFRSYM    DATA     BYTE      RSTCFG
      000000F9H   SFRSYM    DATA     BYTE      LINICR
      0000008EH   SFRSYM    DATA     BYTE      AUXR
      000000AFH   SFRSYM    DATA     BYTE      IE2
      00000088H   SFRSYM    DATA     BYTE      TCON
      00000098H   SFRSYM    DATA     BYTE      SCON
      000000F1H   SFRSYM    DATA     BYTE      CANICR
      00000087H   SFRSYM    DATA     BYTE      PCON
      000000BCH   SFRSYM    DATA     BYTE      ADC_CONTR
      000000E7H   SFRSYM    DATA     BYTE      CMPCR2
      000000E6H   SFRSYM    DATA     BYTE      CMPCR1
      000000B8H   SFRSYM    DATA     BYTE      IP
      0000008FH   SFRSYM    DATA     BYTE      INTCLKO
      000000EEH   SFRSYM    DATA     BYTE      IP3H
      000000B6H   SFRSYM    DATA     BYTE      IP2H
      000000A8H   SFRSYM    DATA     BYTE      IE
      000000BBH   SFRSYM    DATA     BYTE      P_SW3
      000000BAH   SFRSYM    DATA     BYTE      P_SW2
      000000A2H   SFRSYM    DATA     BYTE      P_SW1
      000000CEH   SFRSYM    DATA     BYTE      SPCTL
      000000F8H   SFRSYM    DATA     BYTE      P7
      000000E8H   SFRSYM    DATA     BYTE      P6
      000000C8H   SFRSYM    DATA     BYTE      P5
      000000C0H   SFRSYM    DATA     BYTE      P4
      000000B0H   SFRSYM    DATA     BYTE      P3
      000000A0H   SFRSYM    DATA     BYTE      P2
      00000090H   SFRSYM    DATA     BYTE      P1
      00000080H   SFRSYM    DATA     BYTE      P0

      00FF1784H   BLOCK     CODE     ---       LVL=0
      00FF1784H   LINE      CODE     ---       #7
      00FF1784H   LINE      CODE     ---       #9
      00FF179DH   LINE      CODE     ---       #11
      00FF179DH   LINE      CODE     ---       #12
      00FF17A0H   LINE      CODE     ---       #13
      00FF17A0H   LINE      CODE     ---       #14
      00FF17A0H   LINE      CODE     ---       #15
      00FF17A3H   LINE      CODE     ---       #16
      00FF17A3H   LINE      CODE     ---       #17
      00FF17A3H   LINE      CODE     ---       #18
      00FF17A6H   LINE      CODE     ---       #19
      00FF17A6H   LINE      CODE     ---       #20
      00FF17A6H   LINE      CODE     ---       #21
      00FF17A9H   LINE      CODE     ---       #22
      00FF17A9H   LINE      CODE     ---       #23
      00FF17A9H   LINE      CODE     ---       #24
      00FF17ACH   LINE      CODE     ---       #25
      00FF17ACH   LINE      CODE     ---       #26
      00FF17ACH   LINE      CODE     ---       #27
      00FF17AFH   LINE      CODE     ---       #28
      00FF17AFH   LINE      CODE     ---       #29
      00FF17AFH   LINE      CODE     ---       #30
      00FF17B2H   LINE      CODE     ---       #31
      00FF17B2H   LINE      CODE     ---       #32
      00FF17B2H   LINE      CODE     ---       #33
      ---         BLOCKEND  ---      ---       LVL=0
L251 LINKER/LOCATER V4.66.93.0                                                        07/11/2022  11:40:15  PAGE 34



      00FF17DFH   BLOCK     CODE     ---       LVL=0
      00FF17DFH   LINE      CODE     ---       #35
      00FF17DFH   LINE      CODE     ---       #37
      00FF17EFH   LINE      CODE     ---       #40
      00FF17F2H   LINE      CODE     ---       #41
      00FF17F2H   LINE      CODE     ---       #42
      00FF17F2H   LINE      CODE     ---       #44
      00FF17FEH   LINE      CODE     ---       #45
      00FF1806H   LINE      CODE     ---       #47
      00FF1809H   LINE      CODE     ---       #48
      ---         BLOCKEND  ---      ---       LVL=0

      00FF1809H   BLOCK     CODE     ---       LVL=0
      00FF1809H   LINE      CODE     ---       #50
      00FF1809H   LINE      CODE     ---       #52
      00FF1819H   LINE      CODE     ---       #55
      00FF181CH   LINE      CODE     ---       #56
      00FF181CH   LINE      CODE     ---       #57
      00FF181CH   LINE      CODE     ---       #59
      00FF1828H   LINE      CODE     ---       #60
      00FF1830H   LINE      CODE     ---       #62
      00FF1833H   LINE      CODE     ---       #63
      ---         BLOCKEND  ---      ---       LVL=0

      00FF18ADH   BLOCK     CODE     ---       LVL=0
      00FF18ADH   LINE      CODE     ---       #65
      00FF18ADH   LINE      CODE     ---       #67
      00FF18BDH   LINE      CODE     ---       #70
      00FF18C0H   LINE      CODE     ---       #71
      00FF18C0H   LINE      CODE     ---       #72
      00FF18C0H   LINE      CODE     ---       #74
      00FF18C8H   LINE      CODE     ---       #75
      00FF18D0H   LINE      CODE     ---       #77
      00FF18D3H   LINE      CODE     ---       #78
      ---         BLOCKEND  ---      ---       LVL=0

      00FF195BH   BLOCK     CODE     ---       LVL=0
      00FF195BH   LINE      CODE     ---       #80
      00FF195BH   LINE      CODE     ---       #82
      00FF196BH   LINE      CODE     ---       #85
      00FF196EH   LINE      CODE     ---       #86
      00FF196EH   LINE      CODE     ---       #87
      00FF196EH   LINE      CODE     ---       #89
      00FF1976H   LINE      CODE     ---       #91
      00FF1979H   LINE      CODE     ---       #92
      ---         BLOCKEND  ---      ---       LVL=0

      00FF0003H   BLOCK     CODE     ---       LVL=0
      00FF0003H   LINE      CODE     ---       #94
      00FF0003H   LINE      CODE     ---       #96
      ---         BLOCKEND  ---      ---       LVL=0

      00FF0006H   BLOCK     CODE     ---       LVL=0
      00FF0006H   LINE      CODE     ---       #99
      00FF0006H   LINE      CODE     ---       #101
      ---         BLOCKEND  ---      ---       LVL=0

      ---         MODULE    ---      ---       usb_req_std
      00FF144CH   PUBLIC    CODE     ---       usb_get_interface
      00FF000EH   PUBLIC    CODE     ---       usb_clear_feature
      00FF1885H   PUBLIC    CODE     ---       usb_set_interface
      00FF0B39H   PUBLIC    CODE     ---       usb_get_descriptor
      00FF00C8H   PUBLIC    CODE     ---       usb_set_descriptor
      00FF1126H   PUBLIC    CODE     ---       usb_req_std
L251 LINKER/LOCATER V4.66.93.0                                                        07/11/2022  11:40:15  PAGE 35


      00FF1CD0H   PUBLIC    CODE     ---       usb_synch_frame
      00FF12C4H   PUBLIC    CODE     ---       usb_set_address
      00FF0C15H   PUBLIC    CODE     ---       usb_set_feature
      00FF11D8H   PUBLIC    CODE     ---       usb_get_configuration
      00FF0DC8H   PUBLIC    CODE     ---       usb_set_configuration
      00FF094CH   PUBLIC    CODE     ---       usb_get_status
      000000D0H   SFRSYM    DATA     BYTE      PSW
      0000009DH   SFRSYM    DATA     BYTE      IRCBAND
      00000097H   SFRSYM    DATA     BYTE      AUXR2
      000000EFH   SFRSYM    DATA     BYTE      AUXINTIF
      000000FDH   SFRSYM    DATA     BYTE      S4CON
      000000ACH   SFRSYM    DATA     BYTE      S3CON
      0000009AH   SFRSYM    DATA     BYTE      S2CON
      000000B7H   SFRSYM    DATA     BYTE      IPH
      000000CDH   SFRSYM    DATA     BYTE      SPSTAT
      000000DDH   SFRSYM    DATA     BYTE      T4T3M
      000000C1H   SFRSYM    DATA     BYTE      WDT_CONTR
      000000DFH   SFRSYM    DATA     BYTE      IP3
      000000F4H   SFRSYM    DATA     BYTE      USBCON
      000000B5H   SFRSYM    DATA     BYTE      IP2
      000000FFH   SFRSYM    DATA     BYTE      RSTCFG
      000000F9H   SFRSYM    DATA     BYTE      LINICR
      0000008EH   SFRSYM    DATA     BYTE      AUXR
      000000AFH   SFRSYM    DATA     BYTE      IE2
      00000088H   SFRSYM    DATA     BYTE      TCON
      00000098H   SFRSYM    DATA     BYTE      SCON
      000000F1H   SFRSYM    DATA     BYTE      CANICR
      00000087H   SFRSYM    DATA     BYTE      PCON
      000000BCH   SFRSYM    DATA     BYTE      ADC_CONTR
      000000E7H   SFRSYM    DATA     BYTE      CMPCR2
      000000E6H   SFRSYM    DATA     BYTE      CMPCR1
      000000B8H   SFRSYM    DATA     BYTE      IP
      0000008FH   SFRSYM    DATA     BYTE      INTCLKO
      000000EEH   SFRSYM    DATA     BYTE      IP3H
      000000B6H   SFRSYM    DATA     BYTE      IP2H
      000000A8H   SFRSYM    DATA     BYTE      IE
      000000BBH   SFRSYM    DATA     BYTE      P_SW3
      000000BAH   SFRSYM    DATA     BYTE      P_SW2
      000000A2H   SFRSYM    DATA     BYTE      P_SW1
      000000CEH   SFRSYM    DATA     BYTE      SPCTL
      000000F8H   SFRSYM    DATA     BYTE      P7
      000000E8H   SFRSYM    DATA     BYTE      P6
      000000C8H   SFRSYM    DATA     BYTE      P5
      000000C0H   SFRSYM    DATA     BYTE      P4
      000000B0H   SFRSYM    DATA     BYTE      P3
      000000A0H   SFRSYM    DATA     BYTE      P2
      00000090H   SFRSYM    DATA     BYTE      P1
      00000080H   SFRSYM    DATA     BYTE      P0

      00FF1126H   BLOCK     CODE     ---       LVL=0
      00FF1126H   LINE      CODE     ---       #7
      00FF1126H   LINE      CODE     ---       #9
      00FF115EH   LINE      CODE     ---       #11
      00FF115EH   LINE      CODE     ---       #12
      00FF1161H   LINE      CODE     ---       #13
      00FF1161H   LINE      CODE     ---       #14
      00FF1161H   LINE      CODE     ---       #15
      00FF1164H   LINE      CODE     ---       #16
      00FF1164H   LINE      CODE     ---       #17
      00FF1164H   LINE      CODE     ---       #18
      00FF1167H   LINE      CODE     ---       #19
      00FF1167H   LINE      CODE     ---       #20
      00FF1167H   LINE      CODE     ---       #21
      00FF116AH   LINE      CODE     ---       #22
      00FF116AH   LINE      CODE     ---       #23
L251 LINKER/LOCATER V4.66.93.0                                                        07/11/2022  11:40:15  PAGE 36


      00FF116AH   LINE      CODE     ---       #24
      00FF116DH   LINE      CODE     ---       #25
      00FF116DH   LINE      CODE     ---       #26
      00FF116DH   LINE      CODE     ---       #27
      00FF1170H   LINE      CODE     ---       #28
      00FF1170H   LINE      CODE     ---       #29
      00FF1170H   LINE      CODE     ---       #30
      00FF1173H   LINE      CODE     ---       #31
      00FF1173H   LINE      CODE     ---       #32
      00FF1173H   LINE      CODE     ---       #33
      00FF1176H   LINE      CODE     ---       #34
      00FF1176H   LINE      CODE     ---       #35
      00FF1176H   LINE      CODE     ---       #36
      00FF1179H   LINE      CODE     ---       #37
      00FF1179H   LINE      CODE     ---       #38
      00FF1179H   LINE      CODE     ---       #39
      00FF117CH   LINE      CODE     ---       #40
      00FF117CH   LINE      CODE     ---       #41
      00FF117CH   LINE      CODE     ---       #42
      00FF117FH   LINE      CODE     ---       #43
      00FF117FH   LINE      CODE     ---       #44
      00FF117FH   LINE      CODE     ---       #45
      00FF1182H   LINE      CODE     ---       #46
      00FF1182H   LINE      CODE     ---       #47
      00FF1182H   LINE      CODE     ---       #48
      ---         BLOCKEND  ---      ---       LVL=0

      00FF094CH   BLOCK     CODE     ---       LVL=0
      00FF094EH   BLOCK     CODE     NEAR LAB  LVL=1
      R10         REGSYM    ---      BYTE      ep
      ---         BLOCKEND  ---      ---       LVL=1
      00FF094CH   LINE      CODE     ---       #50
      00FF094EH   LINE      CODE     ---       #51
      00FF094EH   LINE      CODE     ---       #54
      00FF096FH   LINE      CODE     ---       #59
      00FF096FH   LINE      CODE     ---       #60
      00FF0972H   LINE      CODE     ---       #61
      00FF0972H   LINE      CODE     ---       #63
      00FF0983H   LINE      CODE     ---       #65
      00FF0983H   LINE      CODE     ---       #66
      00FF098FH   LINE      CODE     ---       #69
      00FF098FH   LINE      CODE     ---       #70
      00FF0992H   LINE      CODE     ---       #71
      00FF0992H   LINE      CODE     ---       #74
      00FF0992H   LINE      CODE     ---       #75
      00FF0992H   LINE      CODE     ---       #76
      00FF0992H   LINE      CODE     ---       #77
      00FF0994H   LINE      CODE     ---       #78
      00FF0994H   LINE      CODE     ---       #79
      00FF09AAH   LINE      CODE     ---       #83
      00FF09AAH   LINE      CODE     ---       #84
      00FF09ADH   LINE      CODE     ---       #85
      00FF09ADH   LINE      CODE     ---       #88
      00FF09B5H   LINE      CODE     ---       #89
      00FF09B5H   LINE      CODE     ---       #90
      00FF09B5H   LINE      CODE     ---       #91
      00FF09B7H   LINE      CODE     ---       #92
      00FF09B7H   LINE      CODE     ---       #93
      00FF09C4H   LINE      CODE     ---       #96
      00FF09C4H   LINE      CODE     ---       #97
      00FF09C6H   LINE      CODE     ---       #98
      00FF09C6H   LINE      CODE     ---       #101
      00FF09CFH   LINE      CODE     ---       #102
      00FF09D8H   LINE      CODE     ---       #105
      00FF09D8H   LINE      CODE     ---       #120
L251 LINKER/LOCATER V4.66.93.0                                                        07/11/2022  11:40:15  PAGE 37


      00FF09F1H   LINE      CODE     ---       #122
      00FF09F9H   LINE      CODE     ---       #123
      00FF09F9H   LINE      CODE     ---       #124
      00FF09FBH   LINE      CODE     ---       #127
      00FF0A03H   LINE      CODE     ---       #128
      00FF0A03H   LINE      CODE     ---       #129
      00FF0A03H   LINE      CODE     ---       #130
      00FF0A05H   LINE      CODE     ---       #133
      00FF0A05H   LINE      CODE     ---       #148
      00FF0A1EH   LINE      CODE     ---       #150
      00FF0A26H   LINE      CODE     ---       #151
      00FF0A26H   LINE      CODE     ---       #152
      00FF0A28H   LINE      CODE     ---       #155
      00FF0A34H   LINE      CODE     ---       #156
      00FF0A3CH   LINE      CODE     ---       #157
      00FF0A3CH   LINE      CODE     ---       #158
      00FF0A3EH   LINE      CODE     ---       #160
      00FF0A3EH   LINE      CODE     ---       #161
      00FF0A3EH   LINE      CODE     ---       #162
      00FF0A40H   LINE      CODE     ---       #163
      00FF0A40H   LINE      CODE     ---       #164
      00FF0A40H   LINE      CODE     ---       #165
      00FF0A40H   LINE      CODE     ---       #166
      00FF0A40H   LINE      CODE     ---       #167
      00FF0A43H   LINE      CODE     ---       #168
      00FF0A45H   LINE      CODE     ---       #169
      00FF0A45H   LINE      CODE     ---       #171
      00FF0A48H   LINE      CODE     ---       #172
      ---         BLOCKEND  ---      ---       LVL=0

      00FF000EH   BLOCK     CODE     ---       LVL=0
      R7          REGSYM    ---      BYTE      ep
      00FF000EH   LINE      CODE     ---       #174
      00FF000EH   LINE      CODE     ---       #175
      00FF000EH   LINE      CODE     ---       #178
      00FF0039H   LINE      CODE     ---       #185
      00FF0039H   LINE      CODE     ---       #186
      00FF003BH   LINE      CODE     ---       #187
      00FF003BH   LINE      CODE     ---       #189
      00FF0044H   LINE      CODE     ---       #190
      00FF004DH   LINE      CODE     ---       #193
      00FF004DH   LINE      CODE     ---       #208
      00FF0067H   LINE      CODE     ---       #209
      00FF006CH   LINE      CODE     ---       #210
      00FF0071H   LINE      CODE     ---       #211
      00FF0071H   LINE      CODE     ---       #212
      00FF0073H   LINE      CODE     ---       #215
      00FF0073H   LINE      CODE     ---       #230
      00FF008DH   LINE      CODE     ---       #231
      00FF0092H   LINE      CODE     ---       #232
      00FF009AH   LINE      CODE     ---       #233
      00FF00A1H   LINE      CODE     ---       #234
      00FF00A3H   LINE      CODE     ---       #236
      00FF00A3H   LINE      CODE     ---       #237
      00FF00A6H   LINE      CODE     ---       #238
      00FF00A6H   LINE      CODE     ---       #239
      00FF00A6H   LINE      CODE     ---       #241
      00FF00A9H   LINE      CODE     ---       #242
      ---         BLOCKEND  ---      ---       LVL=0

      00FF0C15H   BLOCK     CODE     ---       LVL=0
      R7          REGSYM    ---      BYTE      ep
      00FF0C15H   LINE      CODE     ---       #244
      00FF0C15H   LINE      CODE     ---       #245
      00FF0C15H   LINE      CODE     ---       #248
L251 LINKER/LOCATER V4.66.93.0                                                        07/11/2022  11:40:15  PAGE 38


      00FF0C40H   LINE      CODE     ---       #255
      00FF0C40H   LINE      CODE     ---       #256
      00FF0C42H   LINE      CODE     ---       #257
      00FF0C42H   LINE      CODE     ---       #259
      00FF0C4BH   LINE      CODE     ---       #260
      00FF0C54H   LINE      CODE     ---       #263
      00FF0C54H   LINE      CODE     ---       #278
      00FF0C6BH   LINE      CODE     ---       #279
      00FF0C70H   LINE      CODE     ---       #280
      00FF0C75H   LINE      CODE     ---       #281
      00FF0C75H   LINE      CODE     ---       #282
      00FF0C77H   LINE      CODE     ---       #285
      00FF0C77H   LINE      CODE     ---       #300
      00FF0C8EH   LINE      CODE     ---       #301
      00FF0C93H   LINE      CODE     ---       #302
      00FF0C9BH   LINE      CODE     ---       #303
      00FF0CA2H   LINE      CODE     ---       #304
      00FF0CA4H   LINE      CODE     ---       #306
      00FF0CA4H   LINE      CODE     ---       #307
      00FF0CA7H   LINE      CODE     ---       #308
      00FF0CA7H   LINE      CODE     ---       #309
      00FF0CA7H   LINE      CODE     ---       #311
      00FF0CAAH   LINE      CODE     ---       #312
      ---         BLOCKEND  ---      ---       LVL=0

      00FF12C4H   BLOCK     CODE     ---       LVL=0
      00FF12C6H   BLOCK     CODE     NEAR LAB  LVL=1
      R15         REGSYM    ---      BYTE      addr
      ---         BLOCKEND  ---      ---       LVL=1
      00FF12C4H   LINE      CODE     ---       #314
      00FF12C6H   LINE      CODE     ---       #315
      00FF12C6H   LINE      CODE     ---       #318
      00FF12EFH   LINE      CODE     ---       #325
      00FF12F2H   LINE      CODE     ---       #326
      00FF12F4H   LINE      CODE     ---       #327
      00FF12F4H   LINE      CODE     ---       #329
      00FF12F4H   LINE      CODE     ---       #330
      00FF12FAH   LINE      CODE     ---       #331
      00FF12FEH   LINE      CODE     ---       #333
      00FF1300H   LINE      CODE     ---       #334
      00FF1302H   LINE      CODE     ---       #337
      00FF1308H   LINE      CODE     ---       #338
      00FF1308H   LINE      CODE     ---       #340
      00FF130BH   LINE      CODE     ---       #341
      ---         BLOCKEND  ---      ---       LVL=0

      00FF0B39H   BLOCK     CODE     ---       LVL=0
      00FF0B39H   LINE      CODE     ---       #343
      00FF0B39H   LINE      CODE     ---       #345
      00FF0B44H   LINE      CODE     ---       #347
      00FF0B44H   LINE      CODE     ---       #348
      00FF0B47H   LINE      CODE     ---       #349
      00FF0B47H   LINE      CODE     ---       #351
      00FF0B60H   LINE      CODE     ---       #353
      00FF0B60H   LINE      CODE     ---       #354
      00FF0B6AH   LINE      CODE     ---       #356
      00FF0B6AH   LINE      CODE     ---       #357
      00FF0B6AH   LINE      CODE     ---       #358
      00FF0B6CH   LINE      CODE     ---       #361
      00FF0B78H   LINE      CODE     ---       #362
      00FF0B7CH   LINE      CODE     ---       #363
      00FF0B7CH   LINE      CODE     ---       #364
      00FF0B7EH   LINE      CODE     ---       #365
      00FF0B7EH   LINE      CODE     ---       #366
      00FF0B8AH   LINE      CODE     ---       #367
L251 LINKER/LOCATER V4.66.93.0                                                        07/11/2022  11:40:15  PAGE 39


      00FF0B8EH   LINE      CODE     ---       #368
      00FF0B90H   LINE      CODE     ---       #369
      00FF0B90H   LINE      CODE     ---       #370
      00FF0B9EH   LINE      CODE     ---       #372
      00FF0B9EH   LINE      CODE     ---       #373
      00FF0BAAH   LINE      CODE     ---       #374
      00FF0BAEH   LINE      CODE     ---       #375
      00FF0BB0H   LINE      CODE     ---       #376
      00FF0BB0H   LINE      CODE     ---       #377
      00FF0BBCH   LINE      CODE     ---       #378
      00FF0BC0H   LINE      CODE     ---       #379
      00FF0BC2H   LINE      CODE     ---       #380
      00FF0BC2H   LINE      CODE     ---       #381
      00FF0BCCH   LINE      CODE     ---       #383
      00FF0BD0H   LINE      CODE     ---       #384
      00FF0BD5H   LINE      CODE     ---       #385
      00FF0BD7H   LINE      CODE     ---       #388
      00FF0BE3H   LINE      CODE     ---       #389
      00FF0BE7H   LINE      CODE     ---       #390
      00FF0BE7H   LINE      CODE     ---       #391
      00FF0BE9H   LINE      CODE     ---       #392
      00FF0BE9H   LINE      CODE     ---       #393
      00FF0BE9H   LINE      CODE     ---       #394
      00FF0BEBH   LINE      CODE     ---       #395
      00FF0BEBH   LINE      CODE     ---       #396
      00FF0BEBH   LINE      CODE     ---       #397
      00FF0BEBH   LINE      CODE     ---       #398
      00FF0BF7H   LINE      CODE     ---       #399
      00FF0BFFH   LINE      CODE     ---       #400
      00FF0C01H   LINE      CODE     ---       #401
      00FF0C01H   LINE      CODE     ---       #402
      00FF0C04H   LINE      CODE     ---       #403
      00FF0C04H   LINE      CODE     ---       #404
      00FF0C04H   LINE      CODE     ---       #406
      00FF0C0EH   LINE      CODE     ---       #408
      00FF0C12H   LINE      CODE     ---       #409
      00FF0C12H   LINE      CODE     ---       #411
      00FF0C15H   LINE      CODE     ---       #412
      ---         BLOCKEND  ---      ---       LVL=0

      00FF00C8H   BLOCK     CODE     ---       LVL=0
      00FF00C8H   LINE      CODE     ---       #414
      00FF00C8H   LINE      CODE     ---       #416
      ---         BLOCKEND  ---      ---       LVL=0

      00FF11D8H   BLOCK     CODE     ---       LVL=0
      00FF11D8H   LINE      CODE     ---       #419
      00FF11D8H   LINE      CODE     ---       #421
      00FF1201H   LINE      CODE     ---       #428
      00FF1204H   LINE      CODE     ---       #429
      00FF1204H   LINE      CODE     ---       #430
      00FF1204H   LINE      CODE     ---       #432
      00FF120BH   LINE      CODE     ---       #434
      00FF1213H   LINE      CODE     ---       #435
      00FF1213H   LINE      CODE     ---       #436
      00FF1215H   LINE      CODE     ---       #439
      00FF1221H   LINE      CODE     ---       #440
      00FF1229H   LINE      CODE     ---       #441
      00FF1229H   LINE      CODE     ---       #443
      00FF122CH   LINE      CODE     ---       #444
      ---         BLOCKEND  ---      ---       LVL=0

      00FF0DC8H   BLOCK     CODE     ---       LVL=0
      00FF0DC8H   LINE      CODE     ---       #446
      00FF0DC8H   LINE      CODE     ---       #448
L251 LINKER/LOCATER V4.66.93.0                                                        07/11/2022  11:40:15  PAGE 40


      00FF0DF1H   LINE      CODE     ---       #455
      00FF0DF4H   LINE      CODE     ---       #456
      00FF0DF4H   LINE      CODE     ---       #457
      00FF0DF4H   LINE      CODE     ---       #459
      00FF0DFBH   LINE      CODE     ---       #461
      00FF0E01H   LINE      CODE     ---       #462
      00FF0E06H   LINE      CODE     ---       #463
      00FF0E0AH   LINE      CODE     ---       #465
      00FF0E12H   LINE      CODE     ---       #466
      00FF0E1AH   LINE      CODE     ---       #467
      00FF0E22H   LINE      CODE     ---       #490
      00FF0E2AH   LINE      CODE     ---       #491
      00FF0E31H   LINE      CODE     ---       #492
      00FF0E39H   LINE      CODE     ---       #514
      00FF0E40H   LINE      CODE     ---       #515
      00FF0E42H   LINE      CODE     ---       #518
      00FF0E48H   LINE      CODE     ---       #519
      00FF0E4EH   LINE      CODE     ---       #520
      00FF0E52H   LINE      CODE     ---       #521
      00FF0E52H   LINE      CODE     ---       #523
      00FF0E55H   LINE      CODE     ---       #524
      ---         BLOCKEND  ---      ---       LVL=0

      00FF144CH   BLOCK     CODE     ---       LVL=0
      00FF144CH   LINE      CODE     ---       #526
      00FF144CH   LINE      CODE     ---       #528
      00FF1470H   LINE      CODE     ---       #534
      00FF1473H   LINE      CODE     ---       #535
      00FF1473H   LINE      CODE     ---       #536
      00FF1473H   LINE      CODE     ---       #538
      00FF147FH   LINE      CODE     ---       #539
      00FF1487H   LINE      CODE     ---       #541
      00FF148AH   LINE      CODE     ---       #542
      ---         BLOCKEND  ---      ---       LVL=0

      00FF1885H   BLOCK     CODE     ---       LVL=0
      00FF1885H   LINE      CODE     ---       #544
      00FF1885H   LINE      CODE     ---       #546
      00FF18A7H   LINE      CODE     ---       #552
      00FF18AAH   LINE      CODE     ---       #553
      00FF18AAH   LINE      CODE     ---       #554
      00FF18AAH   LINE      CODE     ---       #556
      00FF18ADH   LINE      CODE     ---       #557
      ---         BLOCKEND  ---      ---       LVL=0

      00FF1CD0H   BLOCK     CODE     ---       LVL=0
      00FF1CD0H   LINE      CODE     ---       #559
      00FF1CD0H   LINE      CODE     ---       #561
      ---         BLOCKEND  ---      ---       LVL=0

      ---         MODULE    ---      ---       usb_req_vendor
      00FF1CD3H   PUBLIC    CODE     ---       usb_req_vendor
      000000D0H   SFRSYM    DATA     BYTE      PSW
      0000009DH   SFRSYM    DATA     BYTE      IRCBAND
      00000097H   SFRSYM    DATA     BYTE      AUXR2
      000000EFH   SFRSYM    DATA     BYTE      AUXINTIF
      000000FDH   SFRSYM    DATA     BYTE      S4CON
      000000ACH   SFRSYM    DATA     BYTE      S3CON
      0000009AH   SFRSYM    DATA     BYTE      S2CON
      000000B7H   SFRSYM    DATA     BYTE      IPH
      000000CDH   SFRSYM    DATA     BYTE      SPSTAT
      000000DDH   SFRSYM    DATA     BYTE      T4T3M
      000000C1H   SFRSYM    DATA     BYTE      WDT_CONTR
      000000DFH   SFRSYM    DATA     BYTE      IP3
      000000F4H   SFRSYM    DATA     BYTE      USBCON
L251 LINKER/LOCATER V4.66.93.0                                                        07/11/2022  11:40:15  PAGE 41


      000000B5H   SFRSYM    DATA     BYTE      IP2
      000000FFH   SFRSYM    DATA     BYTE      RSTCFG
      000000F9H   SFRSYM    DATA     BYTE      LINICR
      0000008EH   SFRSYM    DATA     BYTE      AUXR
      000000AFH   SFRSYM    DATA     BYTE      IE2
      00000088H   SFRSYM    DATA     BYTE      TCON
      00000098H   SFRSYM    DATA     BYTE      SCON
      000000F1H   SFRSYM    DATA     BYTE      CANICR
      00000087H   SFRSYM    DATA     BYTE      PCON
      000000BCH   SFRSYM    DATA     BYTE      ADC_CONTR
      000000E7H   SFRSYM    DATA     BYTE      CMPCR2
      000000E6H   SFRSYM    DATA     BYTE      CMPCR1
      000000B8H   SFRSYM    DATA     BYTE      IP
      0000008FH   SFRSYM    DATA     BYTE      INTCLKO
      000000EEH   SFRSYM    DATA     BYTE      IP3H
      000000B6H   SFRSYM    DATA     BYTE      IP2H
      000000A8H   SFRSYM    DATA     BYTE      IE
      000000BBH   SFRSYM    DATA     BYTE      P_SW3
      000000BAH   SFRSYM    DATA     BYTE      P_SW2
      000000A2H   SFRSYM    DATA     BYTE      P_SW1
      000000CEH   SFRSYM    DATA     BYTE      SPCTL
      000000F8H   SFRSYM    DATA     BYTE      P7
      000000E8H   SFRSYM    DATA     BYTE      P6
      000000C8H   SFRSYM    DATA     BYTE      P5
      000000C0H   SFRSYM    DATA     BYTE      P4
      000000B0H   SFRSYM    DATA     BYTE      P3
      000000A0H   SFRSYM    DATA     BYTE      P2
      00000090H   SFRSYM    DATA     BYTE      P1
      00000080H   SFRSYM    DATA     BYTE      P0

      00FF1CD3H   BLOCK     CODE     ---       LVL=0
      00FF1CD3H   LINE      CODE     ---       #5
      00FF1CD3H   LINE      CODE     ---       #7
      ---         BLOCKEND  ---      ---       LVL=0

      ---         MODULE    ---      ---       usb_desc
      00FF0EDFH   PUBLIC    CODE     ---       PRODUCTDESC
      00FF0EF9H   PUBLIC    CODE     ---       LANGIDDESC
      00FF0EFDH   PUBLIC    CODE     ---       DEVICEDESC
      00FF0F0FH   PUBLIC    CODE     ---       HIDREPORTDESC
      00FF0F2AH   PUBLIC    CODE     ---       CONFIGDESC
      00FF0F53H   PUBLIC    CODE     ---       PACKET0
      00FF0F55H   PUBLIC    CODE     ---       PACKET1
      00FF0F57H   PUBLIC    CODE     ---       MANUFACTDESC
      000000D0H   SFRSYM    DATA     BYTE      PSW
      0000009DH   SFRSYM    DATA     BYTE      IRCBAND
      00000097H   SFRSYM    DATA     BYTE      AUXR2
      000000EFH   SFRSYM    DATA     BYTE      AUXINTIF
      000000FDH   SFRSYM    DATA     BYTE      S4CON
      000000ACH   SFRSYM    DATA     BYTE      S3CON
      0000009AH   SFRSYM    DATA     BYTE      S2CON
      000000B7H   SFRSYM    DATA     BYTE      IPH
      000000CDH   SFRSYM    DATA     BYTE      SPSTAT
      000000DDH   SFRSYM    DATA     BYTE      T4T3M
      000000C1H   SFRSYM    DATA     BYTE      WDT_CONTR
      000000DFH   SFRSYM    DATA     BYTE      IP3
      000000F4H   SFRSYM    DATA     BYTE      USBCON
      000000B5H   SFRSYM    DATA     BYTE      IP2
      000000FFH   SFRSYM    DATA     BYTE      RSTCFG
      000000F9H   SFRSYM    DATA     BYTE      LINICR
      0000008EH   SFRSYM    DATA     BYTE      AUXR
      000000AFH   SFRSYM    DATA     BYTE      IE2
      00000088H   SFRSYM    DATA     BYTE      TCON
      00000098H   SFRSYM    DATA     BYTE      SCON
      000000F1H   SFRSYM    DATA     BYTE      CANICR
L251 LINKER/LOCATER V4.66.93.0                                                        07/11/2022  11:40:15  PAGE 42


      00000087H   SFRSYM    DATA     BYTE      PCON
      000000BCH   SFRSYM    DATA     BYTE      ADC_CONTR
      000000E7H   SFRSYM    DATA     BYTE      CMPCR2
      000000E6H   SFRSYM    DATA     BYTE      CMPCR1
      000000B8H   SFRSYM    DATA     BYTE      IP
      0000008FH   SFRSYM    DATA     BYTE      INTCLKO
      000000EEH   SFRSYM    DATA     BYTE      IP3H
      000000B6H   SFRSYM    DATA     BYTE      IP2H
      000000A8H   SFRSYM    DATA     BYTE      IE
      000000BBH   SFRSYM    DATA     BYTE      P_SW3
      000000BAH   SFRSYM    DATA     BYTE      P_SW2
      000000A2H   SFRSYM    DATA     BYTE      P_SW1
      000000CEH   SFRSYM    DATA     BYTE      SPCTL
      000000F8H   SFRSYM    DATA     BYTE      P7
      000000E8H   SFRSYM    DATA     BYTE      P6
      000000C8H   SFRSYM    DATA     BYTE      P5
      000000C0H   SFRSYM    DATA     BYTE      P4
      000000B0H   SFRSYM    DATA     BYTE      P3
      000000A0H   SFRSYM    DATA     BYTE      P2
      00000090H   SFRSYM    DATA     BYTE      P1
      00000080H   SFRSYM    DATA     BYTE      P0

      ---         MODULE    ---      ---       VSPRINTF
      00000089H   PUBLIC    EDATA    ---       ?VSPRINTF?BYTE
      00FF00CEH   PUBLIC    CODE     NEAR LAB  VSPRINTF

      ---         MODULE    ---      ---       ?C?PRNFMT
      00FF0117H   PUBLIC    CODE     ---       ?C?PRNFMT

      ---         MODULE    ---      ---       ?C?FPCONVERT
      00FF0534H   PUBLIC    CODE     ---       ?C?FPCONVERT
      00FF05ECH   PUBLIC    CODE     ---       ?C?FPROUND

      ---         MODULE    ---      ---       ?C?FPMUL
      00FF062FH   PUBLIC    CODE     ---       ?C?FPMUL

      ---         MODULE    ---      ---       ?C?FPDIV
      00FF06CFH   PUBLIC    CODE     ---       ?C?FPDIV

      ---         MODULE    ---      ---       ?C?FTNPWR
      00FF0780H   PUBLIC    CODE     ---       ?C?FTNPWR

      ---         MODULE    ---      ---       ?C?FPGETOPN
      00FF07B7H   PUBLIC    CODE     ---       ?C?FPGETOPN2
      00FF07F4H   PUBLIC    CODE     ---       ?C?FPNANRESULT
      00FF07FCH   PUBLIC    CODE     ---       ?C?FPOVERFLOW
      00FF07D0H   PUBLIC    CODE     ---       ?C?FPRESULT
      00FF07E6H   PUBLIC    CODE     ---       ?C?FPRESULT2
      00FF07F9H   PUBLIC    CODE     ---       ?C?FPUNDERFLOW

      ---         MODULE    ---      ---       ?C_START
      00FF0000H   PUBLIC    CODE     ---       ?C?STARTUP
      00FF0000H   PUBLIC    CODE     ---       ?C_STARTUP

      ---         MODULE    ---      ---       ?C?INITEDATA
      00FF1366H   PUBLIC    CODE     ---       ?C?INITEDATA

      ---         MODULE    ---      ---       ?C?LMUL
      00FF0808H   PUBLIC    CODE     ---       ?C?LMUL

      ---         MODULE    ---      ---       STRCMP?_
      00FF199AH   PUBLIC    CODE     NEAR LAB  STRCMP?_

      ---         MODULE    ---      ---       STRLEN
      00FF1CB5H   PUBLIC    CODE     ---       strlen?_
L251 LINKER/LOCATER V4.66.93.0                                                        07/11/2022  11:40:15  PAGE 43



      ---         MODULE    ---      ---       memcpy
      00FF18F8H   PUBLIC    CODE     ---       memcpy?_

      ---         MODULE    ---      ---       ?C?INITEDATA_END
      00FF1CF7H   PUBLIC    HCONST   WORD      ?C?INITEDATA_END

Program Size: data=8.4 edata+hdata=402 xdata=192 const=44 code=7382
L251 RUN COMPLETE.  0 WARNING(S),  0 ERROR(S)
