L251 LINKER/LOCATER V4.66.93.0                                                          07/09/2022  14:01:57  PAGE 1


L251 LINKER/LOCATER V4.66.93.0, INVOKED BY:
C:\KEIL_V5\C251\BIN\L251.EXE .\Objects\main.obj, ..\COMM\stc_usb_hid_32g.LIB TO .\Objects\Test PRINT (.\Listings\Test.ma
>> p) CASE DISABLEWARNING (57) CLASSES (EDATA (0X0-0XFFF), HDATA (0X0-0XFFF))


CPU MODE:     251 SOURCE MODE
INTR FRAME:   2 BYTES SAVED ON INTERRUPT
MEMORY MODEL: XSMALL WITH FLOATING POINT ARITHMETIC


INPUT MODULES INCLUDED:
  .\Objects\main.obj (main)
         COMMENT TYPE 0: C251 V5.60.0
  ..\COMM\stc_usb_hid_32g.LIB (usb)
         COMMENT TYPE 0: C251 V5.60.0
  ..\COMM\stc_usb_hid_32g.LIB (util)
         COMMENT TYPE 0: C251 V5.60.0
  ..\COMM\stc_usb_hid_32g.LIB (usb_req_class)
         COMMENT TYPE 0: C251 V5.60.0
  ..\COMM\stc_usb_hid_32g.LIB (usb_req_std)
         COMMENT TYPE 0: C251 V5.60.0
  ..\COMM\stc_usb_hid_32g.LIB (usb_req_vendor)
         COMMENT TYPE 0: C251 V5.60.0
  ..\COMM\stc_usb_hid_32g.LIB (usb_desc)
         COMMENT TYPE 0: C251 V5.60.0
  C:\KEIL_V5\C251\LIB\C2SFPXS.LIB (VSPRINTF)
         COMMENT TYPE 0: A251 V4.69.6.0
  C:\KEIL_V5\C251\LIB\C2SFPXS.LIB (?C?PRNFMT)
         COMMENT TYPE 0: A251 V4.69.6.0
  C:\KEIL_V5\C251\LIB\C2SFPXS.LIB (?C?FPCONVERT)
         COMMENT TYPE 0: A251 V4.69.6.0
  C:\KEIL_V5\C251\LIB\C2SFPXS.LIB (?C?FPMUL)
         COMMENT TYPE 0: A251 V4.69.6.0
  C:\KEIL_V5\C251\LIB\C2SFPXS.LIB (?C?FPDIV)
         COMMENT TYPE 0: A251 V4.69.6.0
  C:\KEIL_V5\C251\LIB\C2SFPXS.LIB (?C?FTNPWR)
         COMMENT TYPE 0: A251 V4.69.6.0
  C:\KEIL_V5\C251\LIB\C2SFPXS.LIB (?C?FPGETOPN)
         COMMENT TYPE 0: A251 V4.69.6.0
  C:\KEIL_V5\C251\LIB\C2SXS.LIB (?C_START)
         COMMENT TYPE 0: A251 V4.69.6.0
  C:\KEIL_V5\C251\LIB\C2SXS.LIB (?C?INITEDATA)
         COMMENT TYPE 0: A251 V4.69.6.0
  C:\KEIL_V5\C251\LIB\C2SXS.LIB (?C?LMUL)
         COMMENT TYPE 0: A251 V4.69.6.0
  C:\KEIL_V5\C251\LIB\C2SXS.LIB (STRCMP?_)
         COMMENT TYPE 0: A251 V4.69.6.0
  C:\KEIL_V5\C251\LIB\C2SXS.LIB (STRLEN)
         COMMENT TYPE 0: C251 V5.58.7
  C:\KEIL_V5\C251\LIB\C2SXS.LIB (memcpy)
         COMMENT TYPE 0: C251 V5.58.7
  C:\KEIL_V5\C251\LIB\C2SXS.LIB (?C?INITEDATA_END)
         COMMENT TYPE 0: A251 V4.69.6.0


ACTIVE MEMORY CLASSES OF MODULE:  .\Objects\Test (main)

BASE        START       END         USED      MEMORY CLASS
==========================================================
000000H     000000H     000FFFH     000191H   EDATA
000000H     000000H     000FFFH               HDATA
000000H     FF0000H     FFFFFFH     000023H   HCONST
FF0000H     FF0000H     FFFFFFH     001AAFH   CODE
000020H.0   000020H.0   00002FH.7   000000H.4 BIT
010000H     010000H     01FFFFH     0000C8H   XDATA
FF0000H     FF0000H     FFFFFFH     000004H   CONST
L251 LINKER/LOCATER V4.66.93.0                                                        07/09/2022  14:01:57  PAGE 2


000000H     000000H     00007FH     000008H   DATA


MEMORY MAP OF MODULE:  .\Objects\Test (main)


START     STOP      LENGTH    ALIGN  RELOC    MEMORY CLASS   SEGMENT NAME
=========================================================================
000000H   000007H   000008H   ---    AT..     DATA           "REG BANK 0"
000008H   000019H   000012H   BYTE   UNIT     EDATA          ?ED?USB
00001AH   00001EH   000005H   BYTE   UNIT     EDATA          ?ED?LCD12864_SETBUFFER?UTIL
00001FH   00001FH   000001H   BYTE   UNIT     EDATA          ?ED?USB_REQ_CLASS
000020H.0 000020H.2 000000H.3 BIT    UNIT     BIT            ?BI?USB
000020H.3 000020H.3 000000H.1 BIT    UNIT     BIT            ?BI?MAIN
000020H.4 000020H   000000H.4 ---    ---      **GAP**
000021H   00004CH   00002CH   BYTE   UNIT     EDATA          ?ED?SEG7_SHOWSTRING?UTIL
00004DH   000078H   00002CH   BYTE   UNIT     EDATA          ?ED?PRINTF_HID?UTIL
000079H   000086H   00000EH   BYTE   UNIT     EDATA          ?ED?MAIN
000087H   00008EH   000008H   BYTE   UNIT     EDATA          _EDATA_GROUP_
00008FH   000093H   000005H   BYTE   UNIT     EDATA          ?ED?OLED12864_SETBUFFER?UTIL
000094H   000097H   000004H   BYTE   UNIT     EDATA          ?ED?VSPRINTF
000098H   000099H   000002H   BYTE   UNIT     EDATA          ?ED?LCD12864_SHOWSTRING?UTIL
00009AH   000199H   000100H   BYTE   UNIT     EDATA          ?STACK
00019AH   00FFFFH   00FE66H   ---    ---      **GAP**
010000H   0100BFH   0000C0H   BYTE   INSEG    XDATA          ?XD?USB
0100C0H   0100C7H   000008H   BYTE   INSEG    XDATA          ?XD?MAIN
0100C8H   FEFFFFH   FDFF38H   ---    ---      **GAP**
FF0000H   FF0002H   000003H   ---    OFFS..   CODE           ?CO?start251?4
FF0003H   FF009DH   00009BH   BYTE   INSEG    CODE           ?PR?USB_CLEAR_FEATURE?USB_REQ_STD
FF009EH   FF00CAH   00002DH   BYTE   INSEG    CODE           ?PR?USB_IN_EP1?USB
FF00CBH   FF00CDH   000003H   ---    OFFS..   CODE           ?PR?IV?25
FF00CEH   FF0818H   00074BH   BYTE   UNIT     CODE           ?C?LIB_CODE
FF0819H   FF0917H   0000FFH   BYTE   INSEG    CODE           ?PR?USB_GET_STATUS?USB_REQ_STD
FF0918H   FF09F3H   0000DCH   BYTE   INSEG    CODE           ?PR?USB_GET_DESCRIPTOR?USB_REQ_STD
FF09F4H   FF0ACEH   0000DBH   BYTE   INSEG    CODE           ?PR?MAIN?MAIN
FF0ACFH   FF0B63H   000095H   BYTE   INSEG    CODE           ?PR?USB_SET_FEATURE?USB_REQ_STD
FF0B64H   FF0BF2H   00008FH   BYTE   INSEG    CODE           ?PR?OLED12864_SETBUFFER?UTIL
FF0BF3H   FF0C81H   00008FH   BYTE   INSEG    CODE           ?PR?LCD12864_SETBUFFER?UTIL
FF0C82H   FF0D0EH   00008DH   BYTE   INSEG    CODE           ?PR?USB_SET_CONFIGURATION?USB_REQ_STD
FF0D0FH   FF0D98H   00008AH   BYTE   INSEG    CODE           ?PR?USB_SETUP?USB
FF0D99H   FF0E18H   000080H   BYTE   UNIT     CODE           ?CO?USB_DESC
FF0E19H   FF0E94H   00007CH   BYTE   INSEG    CODE           ?PR?USB_OUT_EP1?USB
FF0E95H   FF0F0EH   00007AH   BYTE   INSEG    CODE           ?PR?USB_ISR?USB
FF0F0FH   FF0F75H   000067H   BYTE   INSEG    CODE           ?PR?USB_CTRL_IN?USB
FF0F76H   FF0FD1H   00005CH   BYTE   INSEG    CODE           ?PR?USB_REQ_STD?USB_REQ_STD
FF0FD2H   FF1027H   000056H   BYTE   INSEG    CODE           ?PR?USB_CTRL_OUT?USB
FF1028H   FF107BH   000054H   BYTE   INSEG    CODE           ?PR?USB_GET_CONFIGURATION?USB_REQ_STD
FF107CH   FF10C8H   00004DH   BYTE   INSEG    CODE           ?PR?LCD12864_SHOWPICTURE?UTIL
FF10C9H   FF1113H   00004BH   BYTE   INSEG    CODE           ?PR?USB_INIT?USB
FF1114H   FF115DH   00004AH   BYTE   INSEG    CODE           ?PR?USB_SET_ADDRESS?USB_REQ_STD
FF115EH   FF11A2H   000045H   BYTE   INSEG    CODE           ?PR?SEG7_SHOWSTRING?UTIL
FF11A3H   FF11B5H   000013H   BYTE   UNIT     CODE           ?C_C51STARTUP
FF11B6H   FF11DEH   000029H   BYTE   UNIT     CODE           ?C_C51STARTUP?2
FF11DFH   FF11E1H   000003H   BYTE   UNIT     CODE           ?C_C51STARTUP?3
FF11E2H   FF121FH   00003EH   BYTE   INSEG    CODE           ?PR?OLED12864_SHOWPICTURE?UTIL
FF1220H   FF125DH   00003EH   BYTE   INSEG    CODE           ?PR?LED40_SENDDATA?UTIL
FF125EH   FF129BH   00003EH   BYTE   INSEG    CODE           ?PR?LED64_SENDDATA?UTIL
FF129CH   FF12D9H   00003EH   BYTE   INSEG    CODE           ?PR?USB_GET_INTERFACE?USB_REQ_STD
FF12DAH   FF1316H   00003DH   BYTE   INSEG    CODE           ?PR?KEYRESETSCAN?MAIN
FF1317H   FF1351H   00003BH   BYTE   INSEG    CODE           ?PR?SEG7_SHOWLONG?UTIL
FF1352H   FF138CH   00003BH   BYTE   INSEG    CODE           ?PR?LCD12864_SHOWSTRING?UTIL
FF138DH   FF13C6H   00003AH   BYTE   INSEG    CODE           ?PR?USB_READ_FIFO?_?USB
FF13C7H   FF13FEH   000038H   BYTE   INSEG    CODE           ?PR?USB_RESET?USB
FF13FFH   FF1436H   000038H   BYTE   INSEG    CODE           ?PR?OLED12864_SCROLLRIGHT?UTIL
FF1437H   FF146EH   000038H   BYTE   INSEG    CODE           ?PR?OLED12864_SCROLLUP?UTIL
L251 LINKER/LOCATER V4.66.93.0                                                        07/09/2022  14:01:57  PAGE 3


FF146FH   FF14A5H   000037H   BYTE   INSEG    CODE           ?PR?OLED12864_SCROLLLEFT?UTIL
FF14A6H   FF14DAH   000035H   BYTE   INSEG    CODE           ?PR?REVERSE2?UTIL
FF14DBH   FF150DH   000033H   BYTE   INSEG    CODE           ?PR?SEG7_SHOWCODE?UTIL
FF150EH   FF153EH   000031H   BYTE   INSEG    CODE           ?PR?SEG7_SHOWFLOAT?UTIL
FF153FH   FF156DH   00002FH   BYTE   INSEG    CODE           ?PR?PRINTF_HID?UTIL
FF156EH   FF159BH   00002EH   BYTE   INSEG    CODE           ?PR?USB_REQ_CLASS?USB_REQ_CLASS
FF159CH   FF15C5H   00002AH   BYTE   INSEG    CODE           ?PR?USB_GET_REPORT?USB_REQ_CLASS
FF15C6H   FF15EFH   00002AH   BYTE   INSEG    CODE           ?PR?USB_SET_REPORT?USB_REQ_CLASS
FF15F0H   FF1618H   000029H   BYTE   INSEG    CODE           ?PR?USB_IN?USB
FF1619H   FF1641H   000029H   BYTE   INSEG    CODE           ?PR?USB_WRITE_FIFO?_?USB
FF1642H   FF1669H   000028H   BYTE   INSEG    CODE           ?PR?USB_SET_INTERFACE?USB_REQ_STD
FF166AH   FF168FH   000026H   BYTE   INSEG    CODE           ?PR?USB_GET_IDLE?USB_REQ_CLASS
FF1690H   FF16B4H   000025H   BYTE   INSEG    CODE           ?PR?LCD12864_SCROLLUP?UTIL
FF16B5H   FF16D9H   000025H   BYTE   INSEG    CODE           ?PR?MEMCPY?_?MEMCPY
FF16DAH   FF16F8H   00001FH   BYTE   INSEG    CODE           ?PR?OLED12864_SETADDRESSMODE?UTIL
FF16F9H   FF1717H   00001FH   BYTE   INSEG    CODE           ?PR?OLED12864_SETCONTRAST?UTIL
FF1718H   FF1736H   00001FH   BYTE   INSEG    CODE           ?PR?LCD12864_REVERSELINE?UTIL
FF1737H   FF1754H   00001EH   BYTE   INSEG    CODE           ?PR?USB_SET_IDLE?USB_REQ_CLASS
FF1755H   FF1771H   00001DH   BYTE   INSEG    CODE           ?PR?SLEEP_US?UTIL
FF1772H   FF178BH   00001AH   BYTE   UNIT     CODE           ?PR?STRCMP?_
FF178CH   FF17A4H   000019H   BYTE   INSEG    CODE           ?PR?USB_BULK_INTR_OUT?USB
FF17A5H   FF17BDH   000019H   BYTE   INSEG    CODE           ?PR?OLED12864_SETHEADER?UTIL
FF17BEH   FF17D6H   000019H   BYTE   INSEG    CODE           ?PR?LCD12864_SETHEADER?UTIL
FF17D7H   FF17EFH   000019H   BYTE   INSEG    CODE           ?PR?SEG7_SETHEADER?UTIL
FF17F0H   FF1807H   000018H   BYTE   INSEG    CODE           ?PR?USB_OUT_DONE?USB
FF1808H   FF181FH   000018H   BYTE   INSEG    CODE           ?PR?OLED12864_SCROLLSTART?UTIL
FF1820H   FF1837H   000018H   BYTE   INSEG    CODE           ?PR?OLED12864_DISPLAYON?UTIL
FF1838H   FF184FH   000018H   BYTE   INSEG    CODE           ?PR?LCD12864_SCROLLRIGHT?UTIL
FF1850H   FF1867H   000018H   BYTE   INSEG    CODE           ?PR?LCD12864_AUTOWRAPON?UTIL
FF1868H   FF187FH   000018H   BYTE   INSEG    CODE           ?PR?OLED12864_VERTICALMIRROR?UTIL
FF1880H   FF1897H   000018H   BYTE   INSEG    CODE           ?PR?LCD12864_CURSORRETURNHOME?UTIL
FF1898H   FF18AFH   000018H   BYTE   INSEG    CODE           ?PR?OLED12864_DISPLAYENTIRE?UTIL
FF18B0H   FF18C7H   000018H   BYTE   INSEG    CODE           ?PR?LCD12864_DISPLAYON?UTIL
FF18C8H   FF18DFH   000018H   BYTE   INSEG    CODE           ?PR?LCD12864_CURSORMOVERIGHT?UTIL
FF18E0H   FF18F7H   000018H   BYTE   INSEG    CODE           ?PR?SLEEP_MS?UTIL
FF18F8H   FF190FH   000018H   BYTE   INSEG    CODE           ?PR?LCD12864_CURSORON?UTIL
FF1910H   FF1926H   000017H   BYTE   INSEG    CODE           ?PR?OLED12864_DISPLAYOFF?UTIL
FF1927H   FF193DH   000017H   BYTE   INSEG    CODE           ?PR?LCD12864_AUTOWRAPOFF?UTIL
FF193EH   FF1954H   000017H   BYTE   INSEG    CODE           ?PR?OLED12864_SCROLLSTOP?UTIL
FF1955H   FF196BH   000017H   BYTE   INSEG    CODE           ?PR?LCD12864_DISPLAYOFF?UTIL
FF196CH   FF1982H   000017H   BYTE   INSEG    CODE           ?PR?LCD12864_SCROLLLEFT?UTIL
FF1983H   FF1999H   000017H   BYTE   INSEG    CODE           ?PR?OLED12864_HORIZONTALMIRROR?UTIL
FF199AH   FF19B0H   000017H   BYTE   INSEG    CODE           ?PR?OLED12864_DISPLAYCONTENT?UTIL
FF19B1H   FF19C7H   000017H   BYTE   INSEG    CODE           ?PR?LCD12864_CURSOROFF?UTIL
FF19C8H   FF19DEH   000017H   BYTE   INSEG    CODE           ?PR?LCD12864_CURSORMOVELEFT?UTIL
FF19DFH   FF19F4H   000016H   BYTE   INSEG    CODE           ?PR?DELAY_MS?MAIN
FF19F5H   FF1A09H   000015H   BYTE   INSEG    CODE           ?PR?USB_BULK_INTR_IN?USB
FF1A0AH   FF1A1EH   000015H   BYTE   INSEG    CODE           ?PR?USB_READ_REG?USB
FF1A1FH   FF1A31H   000013H   BYTE   INSEG    CODE           ?PR?USB_WRITE_REG?USB
FF1A32H   FF1A43H   000012H   BYTE   INSEG    CODE           ?PR?LCD12864_DISPLAYCLEAR?UTIL
FF1A44H   FF1A55H   000012H   BYTE   INSEG    CODE           ?PR?OLED12864_DISPLAYREVERSE?UTIL
FF1A56H   FF1A66H   000011H   BYTE   INSEG    CODE           ?PR?USB_SETUP_IN?USB
FF1A67H   FF1A74H   00000EH   BYTE   INSEG    CODE           ?PR?USB_SETUP_OUT?USB
FF1A75H   FF1A82H   00000EH   BYTE   INSEG    CODE           ?PR?USB_SETUP_STALL?USB
FF1A83H   FF1A90H   00000EH   BYTE   INSEG    CODE           ?PR?STRLEN?_?STRLEN
FF1A91H   FF1A9DH   00000DH   BYTE   INSEG    CODE           ?PR?USB_SETUP_STATUS?USB
FF1A9EH   FF1AA0H   000003H   BYTE   INSEG    CODE           ?PR?USB_GET_PROTOCOL?USB_REQ_CLASS
FF1AA1H   FF1AA3H   000003H   BYTE   INSEG    CODE           ?PR?USB_SET_PROTOCOL?USB_REQ_CLASS
FF1AA4H   FF1AA6H   000003H   BYTE   INSEG    CODE           ?PR?USB_SET_DESCRIPTOR?USB_REQ_STD
FF1AA7H   FF1AA9H   000003H   BYTE   INSEG    CODE           ?PR?USB_SYNCH_FRAME?USB_REQ_STD
FF1AAAH   FF1AACH   000003H   BYTE   INSEG    CODE           ?PR?USB_REQ_VENDOR?USB_REQ_VENDOR
FF1AADH   FF1AADH   000001H   BYTE   INSEG    CODE           ?PR?USB_SUSPEND?USB
FF1AAEH   FF1AAEH   000001H   BYTE   INSEG    CODE           ?PR?USB_RESUME?USB
FF1AAFH   FF1AB2H   000004H   BYTE   UNIT     CONST          ?CO?PRINTF
FF1AB3H   FF1ACCH   00001AH   BYTE   UNIT     HCONST         ?C_INITEDATA
L251 LINKER/LOCATER V4.66.93.0                                                        07/09/2022  14:01:57  PAGE 4


FF1ACDH   FF1AD5H   000009H   BYTE   UNIT     HCONST         ?HC?MAIN



OVERLAY MAP OF MODULE:   .\Objects\Test (main)


FUNCTION/MODULE                        EDATA_GROUP
--> CALLED FUNCTION/MODULE             START  STOP
==================================================
usb_isr/usb                            ----- -----
  +--> usb_read_reg/usb
  +--> usb_resume/usb
  +--> usb_reset/usb
  +--> usb_setup/usb
  +--> usb_in_ep1/usb
  +--> usb_out_ep1/usb
  +--> usb_suspend/usb

usb_read_reg/usb                       ----- -----

usb_resume/usb                         ----- -----

usb_reset/usb                          ----- -----
  +--> usb_write_reg/usb

usb_write_reg/usb                      ----- -----

usb_setup/usb                          ----- -----
  +--> usb_write_reg/usb
  +--> usb_read_reg/usb
  +--> usb_read_fifo?_/usb
  +--> reverse2/util
  +--> usb_req_std/usb_req_std
  +--> usb_req_class/usb_req_class
  +--> usb_req_vendor/usb_req_vendor
  +--> usb_setup_stall/usb
  +--> usb_ctrl_in/usb
  +--> usb_ctrl_out/usb

usb_read_fifo?_/usb                    ----- -----
  +--> usb_read_reg/usb

reverse2/util                          0087H 008AH

usb_req_std/usb_req_std                ----- -----
  +--> usb_get_status/usb_req_std
  +--> usb_clear_feature/usb_req_std
  +--> usb_set_feature/usb_req_std
  +--> usb_set_address/usb_req_std
  +--> usb_get_descriptor/usb_req_std
  +--> usb_set_descriptor/usb_req_std
  +--> usb_get_configuration/usb_req_std
  +--> usb_set_configuration/usb_req_std
  +--> usb_get_interface/usb_req_std
  +--> usb_set_interface/usb_req_std
  +--> usb_synch_frame/usb_req_std
  +--> usb_setup_stall/usb

usb_get_status/usb_req_std             ----- -----
  +--> usb_setup_stall/usb
  +--> usb_setup_in/usb

usb_setup_stall/usb                    ----- -----
  +--> usb_write_reg/usb
L251 LINKER/LOCATER V4.66.93.0                                                        07/09/2022  14:01:57  PAGE 5



usb_setup_in/usb                       ----- -----
  +--> usb_write_reg/usb
  +--> usb_ctrl_in/usb

usb_ctrl_in/usb                        ----- -----
  +--> usb_write_reg/usb
  +--> usb_read_reg/usb
  +--> usb_write_fifo?_/usb

usb_write_fifo?_/usb                   ----- -----
  +--> usb_write_reg/usb

usb_clear_feature/usb_req_std          ----- -----
  +--> usb_write_reg/usb
  +--> usb_setup_stall/usb
  +--> usb_setup_status/usb

usb_setup_status/usb                   ----- -----
  +--> usb_write_reg/usb

usb_set_feature/usb_req_std            ----- -----
  +--> usb_write_reg/usb
  +--> usb_setup_stall/usb
  +--> usb_setup_status/usb

usb_set_address/usb_req_std            ----- -----
  +--> usb_setup_stall/usb
  +--> usb_write_reg/usb
  +--> usb_setup_status/usb

usb_get_descriptor/usb_req_std         ----- -----
  +--> usb_setup_stall/usb
  +--> usb_setup_in/usb

usb_set_descriptor/usb_req_std         ----- -----
  +--> usb_setup_stall/usb

usb_get_configuration/usb_req_std      ----- -----
  +--> usb_setup_stall/usb
  +--> usb_setup_in/usb

usb_set_configuration/usb_req_std      ----- -----
  +--> usb_setup_stall/usb
  +--> usb_write_reg/usb
  +--> usb_setup_status/usb

usb_get_interface/usb_req_std          ----- -----
  +--> usb_setup_stall/usb
  +--> usb_setup_in/usb

usb_set_interface/usb_req_std          ----- -----
  +--> usb_setup_stall/usb
  +--> usb_setup_status/usb

usb_synch_frame/usb_req_std            ----- -----
  +--> usb_setup_stall/usb

usb_req_class/usb_req_class            ----- -----
  +--> usb_get_report/usb_req_class
  +--> usb_set_report/usb_req_class
  +--> usb_get_idle/usb_req_class
  +--> usb_set_idle/usb_req_class
  +--> usb_get_protocol/usb_req_class
  +--> usb_set_protocol/usb_req_class
L251 LINKER/LOCATER V4.66.93.0                                                        07/09/2022  14:01:57  PAGE 6


  +--> usb_setup_stall/usb

usb_get_report/usb_req_class           ----- -----
  +--> usb_setup_stall/usb
  +--> usb_setup_in/usb

usb_set_report/usb_req_class           ----- -----
  +--> usb_setup_stall/usb
  +--> usb_setup_out/usb

usb_setup_out/usb                      ----- -----
  +--> usb_write_reg/usb

usb_get_idle/usb_req_class             ----- -----
  +--> usb_setup_stall/usb
  +--> usb_setup_in/usb

usb_set_idle/usb_req_class             ----- -----
  +--> usb_setup_stall/usb
  +--> usb_setup_status/usb

usb_get_protocol/usb_req_class         ----- -----
  +--> usb_setup_stall/usb

usb_set_protocol/usb_req_class         ----- -----
  +--> usb_setup_stall/usb

usb_req_vendor/usb_req_vendor          ----- -----
  +--> usb_setup_stall/usb

usb_ctrl_out/usb                       ----- -----
  +--> usb_write_reg/usb
  +--> usb_read_reg/usb
  +--> usb_read_fifo?_/usb

usb_in_ep1/usb                         ----- -----
  +--> usb_write_reg/usb
  +--> usb_read_reg/usb

usb_out_ep1/usb                        ----- -----
  +--> usb_write_reg/usb
  +--> usb_read_reg/usb
  +--> usb_bulk_intr_out/usb
  +--> usb_read_fifo?_/usb
  +--> STRCMP?_/STRCMP?_
  +--> sleep_ms/util

usb_bulk_intr_out/usb                  ----- -----
  +--> usb_read_fifo?_/usb
  +--> usb_write_reg/usb

STRCMP?_/STRCMP?_                      ----- -----

sleep_ms/util                          ----- -----
  +--> sleep_us/util

sleep_us/util                          ----- -----

usb_suspend/usb                        ----- -----

*** NEW ROOT *************************

?C_C51STARTUP                          ----- -----

*** NEW ROOT *************************
L251 LINKER/LOCATER V4.66.93.0                                                        07/09/2022  14:01:57  PAGE 7



?C_C51STARTUP?3                        ----- -----
  +--> main/main

main/main                              ----- -----
  +--> usb_init/usb
  +--> delay_ms/main
  +--> usb_OUT_done/usb
  +--> KeyResetScan/main
  +--> SEG7_ShowLong/util
  +--> SEG7_ShowFloat/util
  +--> SEG7_ShowCode/util

usb_init/usb                           ----- -----
  +--> usb_write_reg/usb

delay_ms/main                          ----- -----

usb_OUT_done/usb                       ----- -----
  +--> usb_write_reg/usb

KeyResetScan/main                      ----- -----
  +--> delay_ms/main

SEG7_ShowLong/util                     008BH 008EH
  +--> SEG7_SetHeader/util
  +--> usb_IN/usb

SEG7_SetHeader/util                    ----- -----

usb_IN/usb                             ----- -----
  +--> usb_write_reg/usb
  +--> usb_read_reg/usb
  +--> usb_bulk_intr_in/usb

usb_bulk_intr_in/usb                   ----- -----
  +--> usb_write_fifo?_/usb
  +--> usb_write_reg/usb

SEG7_ShowFloat/util                    ----- -----
  +--> SEG7_SetHeader/util
  +--> usb_IN/usb

SEG7_ShowCode/util                     ----- -----
  +--> SEG7_SetHeader/util
  +--> memcpy?_/memcpy
  +--> usb_IN/usb

memcpy?_/memcpy                        ----- -----

*** NEW ROOT *************************

?C_C51STARTUP?2                        ----- -----



PUBLIC SYMBOLS OF MODULE:  .\Objects\Test (main)


      VALUE       CLASS    TYPE      PUBLIC SYMBOL NAME
      =================================================
      000000FFH   NUMBER   ---       ?C?CODESEG
      00FF0534H   CODE     ---       ?C?FPCONVERT
      00FF06CFH   CODE     ---       ?C?FPDIV
      00FF07B7H   CODE     ---       ?C?FPGETOPN2
L251 LINKER/LOCATER V4.66.93.0                                                        07/09/2022  14:01:57  PAGE 8


      00FF062FH   CODE     ---       ?C?FPMUL
      00FF07F4H   CODE     ---       ?C?FPNANRESULT
      00FF07FCH   CODE     ---       ?C?FPOVERFLOW
      00FF07D0H   CODE     ---       ?C?FPRESULT
      00FF07E6H   CODE     ---       ?C?FPRESULT2
      00FF05ECH   CODE     ---       ?C?FPROUND
      00FF07F9H   CODE     ---       ?C?FPUNDERFLOW
      00FF0780H   CODE     ---       ?C?FTNPWR
      00FF11B6H   CODE     ---       ?C?INITEDATA
      00FF1ACBH   HCONST   WORD      ?C?INITEDATA_END
      00FF0808H   CODE     ---       ?C?LMUL
      00FF0117H   CODE     ---       ?C?PRNFMT
      00FF0000H   CODE     ---       ?C?STARTUP
      00000001H   NUMBER   ---       ?C?XDATASEG
      00FF0000H   CODE     ---       ?C_STARTUP
      00000075H   EDATA    BYTE      ?printf_hid?BYTE
      00000049H   EDATA    BYTE      ?SEG7_ShowString?BYTE
      0000008CH   EDATA    ---       ?vsprintf?BYTE
*SFR* 000000BCH   DATA     BYTE      ADC_CONTR
*SFR* 000000DEH   DATA     BYTE      ADCCFG
*SFR* 000000EFH   DATA     BYTE      AUXINTIF
*SFR* 0000008EH   DATA     BYTE      AUXR
*SFR* 00000097H   DATA     BYTE      AUXR2
      0000001FH   EDATA    BYTE      bHidIdle
      00000020H.1 BIT      BIT       bUsbFeatureReady
      00000020H.2 BIT      BIT       bUsbInBusy
      00000020H.0 BIT      BIT       bUsbOutReady
*SFR* 000000F1H   DATA     BYTE      CANICR
*SFR* 000000EAH   DATA     BYTE      CKCON
*SFR* 000000E6H   DATA     BYTE      CMPCR1
*SFR* 000000E7H   DATA     BYTE      CMPCR2
      000100C0H   XDATA    ---       cod
      00FF0DE4H   CODE     ---       CONFIGDESC
      00FF19DFH   CODE     ---       delay_ms
      00FF0DB7H   CODE     ---       DEVICEDESC
      00000010H   EDATA    BYTE      DeviceState
*SFR* 000000A8H.7 DATA     BIT       EA
*SFR* 000000BAH.7 DATA     BIT       EAXFR
      00000011H   EDATA    ---       Ep0State
*SFR* 000000AFH.7 DATA     BIT       EUSB
      00FF0DC9H   CODE     ---       HIDREPORTDESC
*SFR* 000000C7H   DATA     BYTE      IAP_CONTR
*SFR* 000000A8H   DATA     BYTE      IE
*SFR* 000000AFH   DATA     BYTE      IE2
      00000018H   EDATA    BYTE      InEpState
*SFR* 0000008FH   DATA     BYTE      INTCLKO
*SFR* 000000B8H   DATA     BYTE      IP
*SFR* 000000B5H   DATA     BYTE      IP2
*SFR* 000000B6H   DATA     BYTE      IP2H
*SFR* 000000DFH   DATA     BYTE      IP3
*SFR* 000000EEH   DATA     BYTE      IP3H
*SFR* 000000B7H   DATA     BYTE      IPH
*SFR* 0000009DH   DATA     BYTE      IRCBAND
      0000007DH   EDATA    WORD      Key_cnt
      00000020H.3 BIT      BIT       Key_Flag
      00FF12DAH   CODE     ---       KeyResetScan
      00FF0DB3H   CODE     ---       LANGIDDESC
      00FF1927H   CODE     ---       LCD12864_AutoWrapOff
      00FF1850H   CODE     ---       LCD12864_AutoWrapOn
      00FF19C8H   CODE     ---       LCD12864_CursorMoveLeft
      00FF18C8H   CODE     ---       LCD12864_CursorMoveRight
      00FF19B1H   CODE     ---       LCD12864_CursorOff
      00FF18F8H   CODE     ---       LCD12864_CursorOn
      00FF1880H   CODE     ---       LCD12864_CursorReturnHome
      00FF1A32H   CODE     ---       LCD12864_DisplayClear
L251 LINKER/LOCATER V4.66.93.0                                                        07/09/2022  14:01:57  PAGE 9


      00FF1955H   CODE     ---       LCD12864_DisplayOff
      00FF18B0H   CODE     ---       LCD12864_DisplayOn
      00FF1718H   CODE     ---       LCD12864_ReverseLine
      00FF196CH   CODE     ---       LCD12864_ScrollLeft
      00FF1838H   CODE     ---       LCD12864_ScrollRight
      00FF1690H   CODE     ---       LCD12864_ScrollUp
      00FF107CH   CODE     ---       LCD12864_ShowPicture
      00FF1352H   CODE     ---       LCD12864_ShowString
      00FF1220H   CODE     ---       LED40_SendData
      00FF125EH   CODE     ---       LED64_SendData
*SFR* 000000F9H   DATA     BYTE      LINICR
      00FF09F4H   CODE     ---       main
      00FF0E11H   CODE     ---       MANUFACTDESC
      00FF16B5H   CODE     ---       memcpy?_
      00FF199AH   CODE     ---       OLED12864_DisplayContent
      00FF1898H   CODE     ---       OLED12864_DisplayEntire
      00FF1910H   CODE     ---       OLED12864_DisplayOff
      00FF1820H   CODE     ---       OLED12864_DisplayOn
      00FF1A44H   CODE     ---       OLED12864_DisplayReverse
      00FF1983H   CODE     ---       OLED12864_HorizontalMirror
      00FF146FH   CODE     ---       OLED12864_ScrollLeft
      00FF13FFH   CODE     ---       OLED12864_ScrollRight
      00FF1808H   CODE     ---       OLED12864_ScrollStart
      00FF193EH   CODE     ---       OLED12864_ScrollStop
      00FF1437H   CODE     ---       OLED12864_ScrollUp
      00FF16DAH   CODE     ---       OLED12864_SetAddressMode
      00FF16F9H   CODE     ---       OLED12864_SetContrast
      00FF11E2H   CODE     ---       OLED12864_ShowPicture
      00FF1868H   CODE     ---       OLED12864_VerticalMirror
      00000019H   EDATA    BYTE      OutEpState
*SFR* 00000080H   DATA     BYTE      P0
*SFR* 00000094H   DATA     BYTE      P0M0
*SFR* 00000093H   DATA     BYTE      P0M1
*SFR* 00000090H   DATA     BYTE      P1
*SFR* 00000092H   DATA     BYTE      P1M0
*SFR* 00000091H   DATA     BYTE      P1M1
*SFR* 000000A0H   DATA     BYTE      P2
*SFR* 00000096H   DATA     BYTE      P2M0
*SFR* 00000095H   DATA     BYTE      P2M1
*SFR* 000000B0H   DATA     BYTE      P3
*SFR* 000000B0H.2 DATA     BIT       P32
*SFR* 000000B0H.3 DATA     BIT       P33
*SFR* 000000B2H   DATA     BYTE      P3M0
*SFR* 000000B1H   DATA     BYTE      P3M1
*SFR* 000000C0H   DATA     BYTE      P4
*SFR* 000000B4H   DATA     BYTE      P4M0
*SFR* 000000B3H   DATA     BYTE      P4M1
*SFR* 000000C8H   DATA     BYTE      P5
*SFR* 000000C8H.4 DATA     BIT       P54
*SFR* 000000CAH   DATA     BYTE      P5M0
*SFR* 000000C9H   DATA     BYTE      P5M1
*SFR* 000000E8H   DATA     BYTE      P6
*SFR* 000000CCH   DATA     BYTE      P6M0
*SFR* 000000CBH   DATA     BYTE      P6M1
*SFR* 000000F8H   DATA     BYTE      P7
*SFR* 000000E2H   DATA     BYTE      P7M0
*SFR* 000000E1H   DATA     BYTE      P7M1
*SFR* 000000A2H   DATA     BYTE      P_SW1
*SFR* 000000BAH   DATA     BYTE      P_SW2
*SFR* 000000BBH   DATA     BYTE      P_SW3
      00FF0E0DH   CODE     ---       PACKET0
      00FF0E0FH   CODE     ---       PACKET1
*SFR* 00000087H   DATA     BYTE      PCON
      00FF153FH   CODE     ---       printf_hid
      00FF0D99H   CODE     ---       PRODUCTDESC
L251 LINKER/LOCATER V4.66.93.0                                                        07/09/2022  14:01:57  PAGE 10


*SFR* 000000D0H   DATA     BYTE      PSW
      00FF14A6H   CODE     ---       reverse2
*SFR* 000000FFH   DATA     BYTE      RSTCFG
*SFR* 0000009AH   DATA     BYTE      S2CON
*SFR* 000000ACH   DATA     BYTE      S3CON
*SFR* 000000FDH   DATA     BYTE      S4CON
*SFR* 00000098H   DATA     BYTE      SCON
      00FF14DBH   CODE     ---       SEG7_ShowCode
      00FF150EH   CODE     ---       SEG7_ShowFloat
      00FF1317H   CODE     ---       SEG7_ShowLong
      00FF115EH   CODE     ---       SEG7_ShowString
      00000008H   EDATA    ---       Setup
      00FF18E0H   CODE     ---       sleep_ms
      00FF1755H   CODE     ---       sleep_us
*SFR* 000000CEH   DATA     BYTE      SPCTL
*SFR* 000000CDH   DATA     BYTE      SPSTAT
      00FF1776H   CODE     NEAR LAB  strcmp?_
      00FF1A83H   CODE     ---       strlen?_
*SFR* 000000DDH   DATA     BYTE      T4T3M
*SFR* 00000088H   DATA     BYTE      TCON
*SFR* 00000089H   DATA     BYTE      TMOD
      00FF19F5H   CODE     ---       usb_bulk_intr_in
      00FF178CH   CODE     ---       usb_bulk_intr_out
      00FF0003H   CODE     ---       usb_clear_feature
      00FF0F0FH   CODE     ---       usb_ctrl_in
      00FF0FD2H   CODE     ---       usb_ctrl_out
      00FF1028H   CODE     ---       usb_get_configuration
      00FF0918H   CODE     ---       usb_get_descriptor
      00FF166AH   CODE     ---       usb_get_idle
      00FF129CH   CODE     ---       usb_get_interface
      00FF1A9EH   CODE     ---       usb_get_protocol
      00FF159CH   CODE     ---       usb_get_report
      00FF0819H   CODE     ---       usb_get_status
      00FF15F0H   CODE     ---       usb_IN
      00FF009EH   CODE     ---       usb_in_ep1
      00FF10C9H   CODE     ---       usb_init
      00FF0E95H   CODE     ---       usb_isr
      00FF17F0H   CODE     ---       usb_OUT_done
      00FF0E19H   CODE     ---       usb_out_ep1
      00FF138DH   CODE     ---       usb_read_fifo?_
      00FF1A0AH   CODE     ---       usb_read_reg
      00FF156EH   CODE     ---       usb_req_class
      00FF0F76H   CODE     ---       usb_req_std
      00FF1AAAH   CODE     ---       usb_req_vendor
      00FF13C7H   CODE     ---       usb_reset
      00FF1AAEH   CODE     ---       usb_resume
      00FF1114H   CODE     ---       usb_set_address
      00FF0C82H   CODE     ---       usb_set_configuration
      00FF1AA4H   CODE     ---       usb_set_descriptor
      00FF0ACFH   CODE     ---       usb_set_feature
      00FF1737H   CODE     ---       usb_set_idle
      00FF1642H   CODE     ---       usb_set_interface
      00FF1AA1H   CODE     ---       usb_set_protocol
      00FF15C6H   CODE     ---       usb_set_report
      00FF0D0FH   CODE     ---       usb_setup
      00FF1A56H   CODE     ---       usb_setup_in
      00FF1A67H   CODE     ---       usb_setup_out
      00FF1A75H   CODE     ---       usb_setup_stall
      00FF1A91H   CODE     ---       usb_setup_status
      00FF1AADH   CODE     ---       usb_suspend
      00FF1AA7H   CODE     ---       usb_synch_frame
      00FF1619H   CODE     ---       usb_write_fifo?_
      00FF1A1FH   CODE     ---       usb_write_reg
*SFR* 000000FCH   DATA     BYTE      USBADR
*SFR* 000000DCH   DATA     BYTE      USBCLK
L251 LINKER/LOCATER V4.66.93.0                                                        07/09/2022  14:01:57  PAGE 11


*SFR* 000000F4H   DATA     BYTE      USBCON
*SFR* 000000ECH   DATA     BYTE      USBDAT
      00010080H   XDATA    ---       UsbFeatureBuffer
      00010000H   XDATA    ---       UsbInBuffer
      00010040H   XDATA    ---       UsbOutBuffer
      00000083H   EDATA    ---       USER_DEVICEDESC
      0000007FH   EDATA    ---       USER_PRODUCTDESC
      00000079H   EDATA    ---       USER_STCISPCMD
      00FF00CEH   CODE     NEAR LAB  vsprintf
*SFR* 000000C1H   DATA     BYTE      WDT_CONTR
*SFR* 000000E9H   DATA     BYTE      WTST



SYMBOL TABLE OF MODULE:  .\Objects\Test (main)

      VALUE       REP       CLASS    TYPE      SYMBOL NAME
      ====================================================
      ---         MODULE    ---      ---       main
      00FF09F4H   PUBLIC    CODE     ---       main
      00FF12DAH   PUBLIC    CODE     ---       KeyResetScan
      00FF19DFH   PUBLIC    CODE     ---       delay_ms
      00000020H.3 PUBLIC    BIT      BIT       Key_Flag
      000100C0H   PUBLIC    XDATA    ---       cod
      00000079H   PUBLIC    EDATA    ---       USER_STCISPCMD
      0000007DH   PUBLIC    EDATA    WORD      Key_cnt
      0000007FH   PUBLIC    EDATA    ---       USER_PRODUCTDESC
      00000083H   PUBLIC    EDATA    ---       USER_DEVICEDESC
      00000094H   SFRSYM    DATA     BYTE      P0M0
      000000D0H   SFRSYM    DATA     BYTE      PSW
      000000BAH.7 SFRSYM    DATA     BIT       EAXFR
      0000009DH   SFRSYM    DATA     BYTE      IRCBAND
      00000097H   SFRSYM    DATA     BYTE      AUXR2
      000000EAH   SFRSYM    DATA     BYTE      CKCON
      000000EFH   SFRSYM    DATA     BYTE      AUXINTIF
      000000FDH   SFRSYM    DATA     BYTE      S4CON
      000000ACH   SFRSYM    DATA     BYTE      S3CON
      0000009AH   SFRSYM    DATA     BYTE      S2CON
      000000B7H   SFRSYM    DATA     BYTE      IPH
      000000CDH   SFRSYM    DATA     BYTE      SPSTAT
      000000DDH   SFRSYM    DATA     BYTE      T4T3M
      000000C1H   SFRSYM    DATA     BYTE      WDT_CONTR
      000000E9H   SFRSYM    DATA     BYTE      WTST
      000000DFH   SFRSYM    DATA     BYTE      IP3
      000000F4H   SFRSYM    DATA     BYTE      USBCON
      000000B5H   SFRSYM    DATA     BYTE      IP2
      000000FFH   SFRSYM    DATA     BYTE      RSTCFG
      000000DCH   SFRSYM    DATA     BYTE      USBCLK
      000000C7H   SFRSYM    DATA     BYTE      IAP_CONTR
      000000F9H   SFRSYM    DATA     BYTE      LINICR
      0000008EH   SFRSYM    DATA     BYTE      AUXR
      000000AFH   SFRSYM    DATA     BYTE      IE2
      000000C8H.4 SFRSYM    DATA     BIT       P54
      000000B0H.3 SFRSYM    DATA     BIT       P33
      00000088H   SFRSYM    DATA     BYTE      TCON
      00000089H   SFRSYM    DATA     BYTE      TMOD
      000000B0H.2 SFRSYM    DATA     BIT       P32
      00000098H   SFRSYM    DATA     BYTE      SCON
      000000F1H   SFRSYM    DATA     BYTE      CANICR
      00000087H   SFRSYM    DATA     BYTE      PCON
      000000BCH   SFRSYM    DATA     BYTE      ADC_CONTR
      000000AFH.7 SFRSYM    DATA     BIT       EUSB
      000000E7H   SFRSYM    DATA     BYTE      CMPCR2
      000000E6H   SFRSYM    DATA     BYTE      CMPCR1
      000000DEH   SFRSYM    DATA     BYTE      ADCCFG
L251 LINKER/LOCATER V4.66.93.0                                                        07/09/2022  14:01:57  PAGE 12


      000000B8H   SFRSYM    DATA     BYTE      IP
      0000008FH   SFRSYM    DATA     BYTE      INTCLKO
      000000EEH   SFRSYM    DATA     BYTE      IP3H
      000000B6H   SFRSYM    DATA     BYTE      IP2H
      000000A8H   SFRSYM    DATA     BYTE      IE
      000000BBH   SFRSYM    DATA     BYTE      P_SW3
      000000BAH   SFRSYM    DATA     BYTE      P_SW2
      000000A2H   SFRSYM    DATA     BYTE      P_SW1
      000000CEH   SFRSYM    DATA     BYTE      SPCTL
      000000F8H   SFRSYM    DATA     BYTE      P7
      000000A8H.7 SFRSYM    DATA     BIT       EA
      000000E1H   SFRSYM    DATA     BYTE      P7M1
      000000E8H   SFRSYM    DATA     BYTE      P6
      000000C8H   SFRSYM    DATA     BYTE      P5
      000000CBH   SFRSYM    DATA     BYTE      P6M1
      000000E2H   SFRSYM    DATA     BYTE      P7M0
      000000C0H   SFRSYM    DATA     BYTE      P4
      000000C9H   SFRSYM    DATA     BYTE      P5M1
      000000CCH   SFRSYM    DATA     BYTE      P6M0
      000000B0H   SFRSYM    DATA     BYTE      P3
      000000B3H   SFRSYM    DATA     BYTE      P4M1
      000000CAH   SFRSYM    DATA     BYTE      P5M0
      000000A0H   SFRSYM    DATA     BYTE      P2
      000000B1H   SFRSYM    DATA     BYTE      P3M1
      000000B4H   SFRSYM    DATA     BYTE      P4M0
      00000090H   SFRSYM    DATA     BYTE      P1
      00000095H   SFRSYM    DATA     BYTE      P2M1
      000000B2H   SFRSYM    DATA     BYTE      P3M0
      00000080H   SFRSYM    DATA     BYTE      P0
      00000091H   SFRSYM    DATA     BYTE      P1M1
      00000096H   SFRSYM    DATA     BYTE      P2M0
      00000092H   SFRSYM    DATA     BYTE      P1M0
      00000093H   SFRSYM    DATA     BYTE      P0M1

      00FF09F4H   BLOCK     CODE     ---       LVL=0
      00FF09F4H   LINE      CODE     ---       #56
      00FF09F4H   LINE      CODE     ---       #58
      00FF09F7H   LINE      CODE     ---       #59
      00FF09FAH   LINE      CODE     ---       #60
      00FF09FDH   LINE      CODE     ---       #62
      00FF0A03H   LINE      CODE     ---       #63
      00FF0A09H   LINE      CODE     ---       #64
      00FF0A0FH   LINE      CODE     ---       #65
      00FF0A15H   LINE      CODE     ---       #66
      00FF0A1BH   LINE      CODE     ---       #67
      00FF0A21H   LINE      CODE     ---       #68
      00FF0A27H   LINE      CODE     ---       #69
      00FF0A2DH   LINE      CODE     ---       #72
      00FF0A30H   LINE      CODE     ---       #73
      00FF0A33H   LINE      CODE     ---       #74
      00FF0A40H   LINE      CODE     ---       #75
      00FF0A4EH   LINE      CODE     ---       #76
      00FF0A51H   LINE      CODE     ---       #79
      00FF0A54H   LINE      CODE     ---       #80
      00FF0A56H   LINE      CODE     ---       #82
      00FF0A56H   LINE      CODE     ---       #84
      00FF0A5BH   LINE      CODE     ---       #85
      00FF0A5EH   LINE      CODE     ---       #90
      00FF0A61H   LINE      CODE     ---       #91
      00FF0A61H   LINE      CODE     ---       #93
      00FF0A64H   LINE      CODE     ---       #95
      00FF0A67H   LINE      CODE     ---       #97
      00FF0A6AH   LINE      CODE     ---       #98
      00FF0A77H   LINE      CODE     ---       #99
      00FF0A79H   LINE      CODE     ---       #100
L251 LINKER/LOCATER V4.66.93.0                                                        07/09/2022  14:01:57  PAGE 13


      00FF0A7CH   LINE      CODE     ---       #102
      00FF0A7FH   LINE      CODE     ---       #103
      00FF0A8AH   LINE      CODE     ---       #104
      00FF0A8CH   LINE      CODE     ---       #105
      00FF0A8FH   LINE      CODE     ---       #107
      00FF0A95H   LINE      CODE     ---       #108
      00FF0A9BH   LINE      CODE     ---       #109
      00FF0AA1H   LINE      CODE     ---       #110
      00FF0AA7H   LINE      CODE     ---       #111
      00FF0AADH   LINE      CODE     ---       #112
      00FF0AB3H   LINE      CODE     ---       #113
      00FF0AB9H   LINE      CODE     ---       #114
      00FF0ABFH   LINE      CODE     ---       #115
      00FF0AC2H   LINE      CODE     ---       #116
      00FF0ACDH   LINE      CODE     ---       #117
      ---         BLOCKEND  ---      ---       LVL=0

      00FF19DFH   BLOCK     CODE     ---       LVL=0
      R10         REGSYM    ---      BYTE      ms
      00FF19E1H   BLOCK     CODE     NEAR LAB  LVL=1
      WR8         REGSYM    ---      WORD      i
      ---         BLOCKEND  ---      ---       LVL=1
      00FF19DFH   LINE      CODE     ---       #130
      00FF19E1H   LINE      CODE     ---       #131
      00FF19E1H   LINE      CODE     ---       #133
      00FF19E1H   LINE      CODE     ---       #134
      00FF19E5H   LINE      CODE     ---       #135
      00FF19EDH   LINE      CODE     ---       #136
      00FF19F4H   LINE      CODE     ---       #137
      ---         BLOCKEND  ---      ---       LVL=0

      00FF12DAH   BLOCK     CODE     ---       LVL=0
      00FF12DAH   LINE      CODE     ---       #148
      00FF12DAH   LINE      CODE     ---       #150
      00FF12DDH   LINE      CODE     ---       #152
      00FF12E0H   LINE      CODE     ---       #154
      00FF12EAH   LINE      CODE     ---       #155
      00FF12F0H   LINE      CODE     ---       #157
      00FF12F2H   LINE      CODE     ---       #159
      00FF12F5H   LINE      CODE     ---       #160
      00FF12F8H   LINE      CODE     ---       #161
      00FF1304H   LINE      CODE     ---       #163
      00FF1309H   LINE      CODE     ---       #164
      00FF130CH   LINE      CODE     ---       #165
      00FF130EH   LINE      CODE     ---       #171
      00FF1314H   LINE      CODE     ---       #172
      00FF1316H   LINE      CODE     ---       #173
      00FF1316H   LINE      CODE     ---       #174
      ---         BLOCKEND  ---      ---       LVL=0

      ---         MODULE    ---      ---       usb
      00FF1A56H   PUBLIC    CODE     ---       usb_setup_in
      00FF1A67H   PUBLIC    CODE     ---       usb_setup_out
      00FF0F0FH   PUBLIC    CODE     ---       usb_ctrl_in
      00FF0FD2H   PUBLIC    CODE     ---       usb_ctrl_out
      00FF17F0H   PUBLIC    CODE     ---       usb_OUT_done
      00FF1AADH   PUBLIC    CODE     ---       usb_suspend
      00FF19F5H   PUBLIC    CODE     ---       usb_bulk_intr_in
      00FF178CH   PUBLIC    CODE     ---       usb_bulk_intr_out
      00FF1AAEH   PUBLIC    CODE     ---       usb_resume
      00FF15F0H   PUBLIC    CODE     ---       usb_IN
      00FF138DH   PUBLIC    CODE     ---       usb_read_fifo?_
      00FF13C7H   PUBLIC    CODE     ---       usb_reset
      00FF0D0FH   PUBLIC    CODE     ---       usb_setup
      00FF1619H   PUBLIC    CODE     ---       usb_write_fifo?_
L251 LINKER/LOCATER V4.66.93.0                                                        07/09/2022  14:01:57  PAGE 14


      00FF10C9H   PUBLIC    CODE     ---       usb_init
      00FF1A75H   PUBLIC    CODE     ---       usb_setup_stall
      00FF1A91H   PUBLIC    CODE     ---       usb_setup_status
      00FF1A0AH   PUBLIC    CODE     ---       usb_read_reg
      00FF009EH   PUBLIC    CODE     ---       usb_in_ep1
      00FF0E19H   PUBLIC    CODE     ---       usb_out_ep1
      00FF1A1FH   PUBLIC    CODE     ---       usb_write_reg
      00FF0E95H   PUBLIC    CODE     ---       usb_isr
      00000008H   PUBLIC    EDATA    ---       Setup
      00000010H   PUBLIC    EDATA    BYTE      DeviceState
      00000011H   PUBLIC    EDATA    ---       Ep0State
      00000018H   PUBLIC    EDATA    BYTE      InEpState
      00000019H   PUBLIC    EDATA    BYTE      OutEpState
      00000020H.0 PUBLIC    BIT      BIT       bUsbOutReady
      00000020H.1 PUBLIC    BIT      BIT       bUsbFeatureReady
      00000020H.2 PUBLIC    BIT      BIT       bUsbInBusy
      00010000H   PUBLIC    XDATA    ---       UsbInBuffer
      00010040H   PUBLIC    XDATA    ---       UsbOutBuffer
      00010080H   PUBLIC    XDATA    ---       UsbFeatureBuffer
      000000D0H   SFRSYM    DATA     BYTE      PSW
      0000009DH   SFRSYM    DATA     BYTE      IRCBAND
      00000097H   SFRSYM    DATA     BYTE      AUXR2
      000000EFH   SFRSYM    DATA     BYTE      AUXINTIF
      000000FDH   SFRSYM    DATA     BYTE      S4CON
      000000ACH   SFRSYM    DATA     BYTE      S3CON
      0000009AH   SFRSYM    DATA     BYTE      S2CON
      000000B7H   SFRSYM    DATA     BYTE      IPH
      000000CDH   SFRSYM    DATA     BYTE      SPSTAT
      000000DDH   SFRSYM    DATA     BYTE      T4T3M
      000000C1H   SFRSYM    DATA     BYTE      WDT_CONTR
      000000DFH   SFRSYM    DATA     BYTE      IP3
      000000F4H   SFRSYM    DATA     BYTE      USBCON
      000000B5H   SFRSYM    DATA     BYTE      IP2
      000000FFH   SFRSYM    DATA     BYTE      RSTCFG
      000000DCH   SFRSYM    DATA     BYTE      USBCLK
      000000ECH   SFRSYM    DATA     BYTE      USBDAT
      000000C7H   SFRSYM    DATA     BYTE      IAP_CONTR
      000000F9H   SFRSYM    DATA     BYTE      LINICR
      000000FCH   SFRSYM    DATA     BYTE      USBADR
      0000008EH   SFRSYM    DATA     BYTE      AUXR
      000000AFH   SFRSYM    DATA     BYTE      IE2
      00000088H   SFRSYM    DATA     BYTE      TCON
      00000098H   SFRSYM    DATA     BYTE      SCON
      000000F1H   SFRSYM    DATA     BYTE      CANICR
      00000087H   SFRSYM    DATA     BYTE      PCON
      000000BCH   SFRSYM    DATA     BYTE      ADC_CONTR
      000000AFH.7 SFRSYM    DATA     BIT       EUSB
      000000E7H   SFRSYM    DATA     BYTE      CMPCR2
      000000E6H   SFRSYM    DATA     BYTE      CMPCR1
      000000B8H   SFRSYM    DATA     BYTE      IP
      0000008FH   SFRSYM    DATA     BYTE      INTCLKO
      000000EEH   SFRSYM    DATA     BYTE      IP3H
      000000B6H   SFRSYM    DATA     BYTE      IP2H
      000000A8H   SFRSYM    DATA     BYTE      IE
      000000BBH   SFRSYM    DATA     BYTE      P_SW3
      000000BAH   SFRSYM    DATA     BYTE      P_SW2
      000000A2H   SFRSYM    DATA     BYTE      P_SW1
      000000CEH   SFRSYM    DATA     BYTE      SPCTL
      000000F8H   SFRSYM    DATA     BYTE      P7
      000000E8H   SFRSYM    DATA     BYTE      P6
      000000C8H   SFRSYM    DATA     BYTE      P5
      000000C0H   SFRSYM    DATA     BYTE      P4
      000000B0H   SFRSYM    DATA     BYTE      P3
      000000A0H   SFRSYM    DATA     BYTE      P2
      00000090H   SFRSYM    DATA     BYTE      P1
L251 LINKER/LOCATER V4.66.93.0                                                        07/09/2022  14:01:57  PAGE 15


      00000080H   SFRSYM    DATA     BYTE      P0

      00FF10C9H   BLOCK     CODE     ---       LVL=0
      00FF10C9H   LINE      CODE     ---       #22
      00FF10C9H   LINE      CODE     ---       #24
      00FF10CCH   LINE      CODE     ---       #25
      00FF10CFH   LINE      CODE     ---       #27
      00FF10D5H   LINE      CODE     ---       #28
      00FF10DDH   LINE      CODE     ---       #29
      00FF10E5H   LINE      CODE     ---       #30
      00FF10EDH   LINE      CODE     ---       #31
      00FF10F5H   LINE      CODE     ---       #32
      00FF10FDH   LINE      CODE     ---       #34
      00FF1103H   LINE      CODE     ---       #35
      00FF1108H   LINE      CODE     ---       #36
      00FF110CH   LINE      CODE     ---       #37
      00FF1110H   LINE      CODE     ---       #39
      00FF1113H   LINE      CODE     ---       #40
      ---         BLOCKEND  ---      ---       LVL=0

      00FF1A0AH   BLOCK     CODE     ---       LVL=0
      R10         REGSYM    ---      BYTE      addr
      00FF1A0CH   BLOCK     CODE     NEAR LAB  LVL=1
      R11         REGSYM    ---      BYTE      dat
      ---         BLOCKEND  ---      ---       LVL=1
      00FF1A0AH   LINE      CODE     ---       #42
      00FF1A0CH   LINE      CODE     ---       #43
      00FF1A0CH   LINE      CODE     ---       #46
      00FF1A11H   LINE      CODE     ---       #47
      00FF1A17H   LINE      CODE     ---       #48
      00FF1A1CH   LINE      CODE     ---       #49
      00FF1A1EH   LINE      CODE     ---       #51
      00FF1A1EH   LINE      CODE     ---       #52
      ---         BLOCKEND  ---      ---       LVL=0

      00FF1A1FH   BLOCK     CODE     ---       LVL=0
      R7          REGSYM    ---      BYTE      addr
      R10         REGSYM    ---      BYTE      dat
      00FF1A1FH   LINE      CODE     ---       #54
      00FF1A23H   LINE      CODE     ---       #56
      00FF1A28H   LINE      CODE     ---       #57
      00FF1A2EH   LINE      CODE     ---       #58
      00FF1A31H   LINE      CODE     ---       #59
      ---         BLOCKEND  ---      ---       LVL=0

      00FF138DH   BLOCK     CODE     ---       LVL=0
      FFFFFFFEH   STKSYM    ---      BYTE      fifo
      REG=3       REGSYM    ---      ---       pdat
      00FF1395H   BLOCK     CODE     NEAR LAB  LVL=1
      00000000H   STKSYM    ---      BYTE      cnt
      FFFFFFFFH   STKSYM    ---      BYTE      ret
      ---         BLOCKEND  ---      ---       LVL=1
      00FF138DH   LINE      CODE     ---       #61
      00FF1395H   LINE      CODE     ---       #62
      00FF1395H   LINE      CODE     ---       #66
      00FF13A1H   LINE      CODE     ---       #67
      00FF13A3H   LINE      CODE     ---       #69
      00FF13AFH   LINE      CODE     ---       #70
      00FF13BCH   LINE      CODE     ---       #72
      00FF13C0H   LINE      CODE     ---       #73
      ---         BLOCKEND  ---      ---       LVL=0

      00FF1619H   BLOCK     CODE     ---       LVL=0
      00000000H   STKSYM    ---      BYTE      fifo
      REG=3       REGSYM    ---      ---       pdat
L251 LINKER/LOCATER V4.66.93.0                                                        07/09/2022  14:01:57  PAGE 16


      FFFFFFFFH   STKSYM    ---      BYTE      cnt
      00FF1619H   LINE      CODE     ---       #75
      00FF1621H   LINE      CODE     ---       #77
      00FF1623H   LINE      CODE     ---       #79
      00FF162EH   LINE      CODE     ---       #80
      00FF163DH   LINE      CODE     ---       #81
      ---         BLOCKEND  ---      ---       LVL=0

      00FF0E95H   BLOCK     CODE     ---       LVL=0
      00FF0EAFH   BLOCK     CODE     NEAR LAB  LVL=1
      R15         REGSYM    ---      BYTE      intrusb
      R13         REGSYM    ---      BYTE      intrin
      R14         REGSYM    ---      BYTE      introut
      ---         BLOCKEND  ---      ---       LVL=1
      00FF0E95H   LINE      CODE     ---       #83
      00FF0EAFH   LINE      CODE     ---       #84
      00FF0EAFH   LINE      CODE     ---       #89
      00FF0EB6H   LINE      CODE     ---       #90
      00FF0EBDH   LINE      CODE     ---       #91
      00FF0EC4H   LINE      CODE     ---       #93
      00FF0ECCH   LINE      CODE     ---       #94
      00FF0ED4H   LINE      CODE     ---       #96
      00FF0EDCH   LINE      CODE     ---       #99
      00FF0EE4H   LINE      CODE     ---       #115
      00FF0EECH   LINE      CODE     ---       #130
      00FF0EF4H   LINE      CODE     ---       #131
      ---         BLOCKEND  ---      ---       LVL=0

      00FF1AAEH   BLOCK     CODE     ---       LVL=0
      00FF1AAEH   LINE      CODE     ---       #133
      00FF1AAEH   LINE      CODE     ---       #135
      ---         BLOCKEND  ---      ---       LVL=0

      00FF13C7H   BLOCK     CODE     ---       LVL=0
      00FF13C7H   LINE      CODE     ---       #137
      00FF13C7H   LINE      CODE     ---       #139
      00FF13CDH   LINE      CODE     ---       #140
      00FF13D3H   LINE      CODE     ---       #141
      00FF13D8H   LINE      CODE     ---       #144
      00FF13E0H   LINE      CODE     ---       #145
      00FF13E8H   LINE      CODE     ---       #164
      00FF13F0H   LINE      CODE     ---       #165
      00FF13F8H   LINE      CODE     ---       #183
      ---         BLOCKEND  ---      ---       LVL=0

      00FF1AADH   BLOCK     CODE     ---       LVL=0
      00FF1AADH   LINE      CODE     ---       #186
      00FF1AADH   LINE      CODE     ---       #188
      ---         BLOCKEND  ---      ---       LVL=0

      00FF0D0FH   BLOCK     CODE     ---       LVL=0
      00FF0D11H   BLOCK     CODE     NEAR LAB  LVL=1
      R15         REGSYM    ---      BYTE      csr
      ---         BLOCKEND  ---      ---       LVL=1
      00FF0D0FH   LINE      CODE     ---       #190
      00FF0D11H   LINE      CODE     ---       #191
      00FF0D11H   LINE      CODE     ---       #194
      00FF0D18H   LINE      CODE     ---       #195
      00FF0D1FH   LINE      CODE     ---       #197
      00FF0D22H   LINE      CODE     ---       #199
      00FF0D2CH   LINE      CODE     ---       #200
      00FF0D31H   LINE      CODE     ---       #201
      00FF0D31H   LINE      CODE     ---       #202
      00FF0D36H   LINE      CODE     ---       #204
      00FF0D40H   LINE      CODE     ---       #205
L251 LINKER/LOCATER V4.66.93.0                                                        07/09/2022  14:01:57  PAGE 17


      00FF0D40H   LINE      CODE     ---       #207
      00FF0D4FH   LINE      CODE     ---       #209
      00FF0D4FH   LINE      CODE     ---       #210
      00FF0D54H   LINE      CODE     ---       #212
      00FF0D5DH   LINE      CODE     ---       #213
      00FF0D68H   LINE      CODE     ---       #214
      00FF0D7AH   LINE      CODE     ---       #216
      00FF0D7AH   LINE      CODE     ---       #217
      00FF0D7DH   LINE      CODE     ---       #218
      00FF0D7FH   LINE      CODE     ---       #219
      00FF0D7FH   LINE      CODE     ---       #220
      00FF0D82H   LINE      CODE     ---       #221
      00FF0D84H   LINE      CODE     ---       #222
      00FF0D84H   LINE      CODE     ---       #223
      00FF0D87H   LINE      CODE     ---       #224
      00FF0D89H   LINE      CODE     ---       #225
      00FF0D89H   LINE      CODE     ---       #226
      00FF0D8CH   LINE      CODE     ---       #227
      00FF0D8EH   LINE      CODE     ---       #228
      00FF0D8EH   LINE      CODE     ---       #229
      00FF0D8EH   LINE      CODE     ---       #230
      00FF0D8EH   LINE      CODE     ---       #231
      00FF0D8EH   LINE      CODE     ---       #232
      00FF0D91H   LINE      CODE     ---       #233
      00FF0D93H   LINE      CODE     ---       #234
      00FF0D93H   LINE      CODE     ---       #235
      00FF0D96H   LINE      CODE     ---       #236
      00FF0D96H   LINE      CODE     ---       #237
      00FF0D96H   LINE      CODE     ---       #238
      ---         BLOCKEND  ---      ---       LVL=0

      00FF1A75H   BLOCK     CODE     ---       LVL=0
      00FF1A75H   LINE      CODE     ---       #240
      00FF1A75H   LINE      CODE     ---       #242
      00FF1A7BH   LINE      CODE     ---       #243
      ---         BLOCKEND  ---      ---       LVL=0

      00FF1A56H   BLOCK     CODE     ---       LVL=0
      00FF1A56H   LINE      CODE     ---       #246
      00FF1A56H   LINE      CODE     ---       #248
      00FF1A5CH   LINE      CODE     ---       #249
      00FF1A64H   LINE      CODE     ---       #250
      ---         BLOCKEND  ---      ---       LVL=0

      00FF1A67H   BLOCK     CODE     ---       LVL=0
      00FF1A67H   LINE      CODE     ---       #253
      00FF1A67H   LINE      CODE     ---       #255
      00FF1A6DH   LINE      CODE     ---       #256
      ---         BLOCKEND  ---      ---       LVL=0

      00FF1A91H   BLOCK     CODE     ---       LVL=0
      00FF1A91H   LINE      CODE     ---       #259
      00FF1A91H   LINE      CODE     ---       #261
      00FF1A96H   LINE      CODE     ---       #262
      ---         BLOCKEND  ---      ---       LVL=0

      00FF0F0FH   BLOCK     CODE     ---       LVL=0
      00FF0F11H   BLOCK     CODE     NEAR LAB  LVL=1
      R11         REGSYM    ---      BYTE      csr
      R15         REGSYM    ---      BYTE      cnt
      ---         BLOCKEND  ---      ---       LVL=1
      00FF0F0FH   LINE      CODE     ---       #265
      00FF0F11H   LINE      CODE     ---       #266
      00FF0F11H   LINE      CODE     ---       #270
      00FF0F18H   LINE      CODE     ---       #271
L251 LINKER/LOCATER V4.66.93.0                                                        07/09/2022  14:01:57  PAGE 18


      00FF0F1DH   LINE      CODE     ---       #272
      00FF0F20H   LINE      CODE     ---       #274
      00FF0F31H   LINE      CODE     ---       #275
      00FF0F3CH   LINE      CODE     ---       #276
      00FF0F48H   LINE      CODE     ---       #277
      00FF0F54H   LINE      CODE     ---       #278
      00FF0F5CH   LINE      CODE     ---       #280
      00FF0F64H   LINE      CODE     ---       #281
      00FF0F69H   LINE      CODE     ---       #282
      00FF0F6BH   LINE      CODE     ---       #285
      00FF0F73H   LINE      CODE     ---       #286
      00FF0F73H   LINE      CODE     ---       #287
      ---         BLOCKEND  ---      ---       LVL=0

      00FF0FD2H   BLOCK     CODE     ---       LVL=0
      R11         REGSYM    ---      BYTE      csr
      R7          REGSYM    ---      BYTE      cnt
      00FF0FD2H   LINE      CODE     ---       #289
      00FF0FD2H   LINE      CODE     ---       #290
      00FF0FD2H   LINE      CODE     ---       #294
      00FF0FD9H   LINE      CODE     ---       #295
      00FF0FDEH   LINE      CODE     ---       #296
      00FF0FE1H   LINE      CODE     ---       #298
      00FF0FEAH   LINE      CODE     ---       #299
      00FF0FF6H   LINE      CODE     ---       #300
      00FF1000H   LINE      CODE     ---       #301
      00FF1008H   LINE      CODE     ---       #303
      00FF1010H   LINE      CODE     ---       #304
      00FF1015H   LINE      CODE     ---       #306
      00FF101CH   LINE      CODE     ---       #307
      00FF101EH   LINE      CODE     ---       #308
      00FF101FH   LINE      CODE     ---       #311
      00FF1027H   LINE      CODE     ---       #312
      00FF1027H   LINE      CODE     ---       #313
      ---         BLOCKEND  ---      ---       LVL=0

      00FF19F5H   BLOCK     CODE     ---       LVL=0
      REG=0       REGSYM    ---      ---       pData
      R7          REGSYM    ---      BYTE      bSize
      R10         REGSYM    ---      BYTE      ep
      00FF19F5H   LINE      CODE     ---       #315
      00FF19F9H   LINE      CODE     ---       #317
      00FF1A02H   LINE      CODE     ---       #318
      ---         BLOCKEND  ---      ---       LVL=0

      00FF178CH   BLOCK     CODE     ---       LVL=0
      REG=0       REGSYM    ---      ---       pData
      R7          REGSYM    ---      BYTE      ep
      00FF178EH   BLOCK     CODE     NEAR LAB  LVL=1
      R15         REGSYM    ---      BYTE      cnt
      ---         BLOCKEND  ---      ---       LVL=1
      00FF178CH   LINE      CODE     ---       #321
      00FF178EH   LINE      CODE     ---       #322
      00FF178EH   LINE      CODE     ---       #325
      00FF1799H   LINE      CODE     ---       #326
      00FF17A0H   LINE      CODE     ---       #328
      00FF17A2H   LINE      CODE     ---       #329
      ---         BLOCKEND  ---      ---       LVL=0

      00FF009EH   BLOCK     CODE     ---       LVL=0
      00FF00A0H   BLOCK     CODE     NEAR LAB  LVL=1
      R15         REGSYM    ---      BYTE      csr
      ---         BLOCKEND  ---      ---       LVL=1
      00FF009EH   LINE      CODE     ---       #332
      00FF00A0H   LINE      CODE     ---       #333
L251 LINKER/LOCATER V4.66.93.0                                                        07/09/2022  14:01:57  PAGE 19


      00FF00A0H   LINE      CODE     ---       #336
      00FF00A8H   LINE      CODE     ---       #337
      00FF00AFH   LINE      CODE     ---       #338
      00FF00B2H   LINE      CODE     ---       #340
      00FF00BAH   LINE      CODE     ---       #341
      00FF00BAH   LINE      CODE     ---       #342
      00FF00BFH   LINE      CODE     ---       #344
      00FF00C6H   LINE      CODE     ---       #345
      00FF00C6H   LINE      CODE     ---       #346
      00FF00C8H   LINE      CODE     ---       #347
      ---         BLOCKEND  ---      ---       LVL=0

      00FF0E19H   BLOCK     CODE     ---       LVL=0
      00FF0E1BH   BLOCK     CODE     NEAR LAB  LVL=1
      R15         REGSYM    ---      BYTE      csr
      ---         BLOCKEND  ---      ---       LVL=1
      00FF0E19H   LINE      CODE     ---       #423
      00FF0E1BH   LINE      CODE     ---       #424
      00FF0E1BH   LINE      CODE     ---       #427
      00FF0E23H   LINE      CODE     ---       #428
      00FF0E2AH   LINE      CODE     ---       #429
      00FF0E2DH   LINE      CODE     ---       #431
      00FF0E35H   LINE      CODE     ---       #432
      00FF0E35H   LINE      CODE     ---       #433
      00FF0E3AH   LINE      CODE     ---       #435
      00FF0E47H   LINE      CODE     ---       #436
      00FF0E54H   LINE      CODE     ---       #438
      00FF0E5EH   LINE      CODE     ---       #440
      00FF0E6BH   LINE      CODE     ---       #442
      00FF0E72H   LINE      CODE     ---       #444
      00FF0E75H   LINE      CODE     ---       #445
      00FF0E78H   LINE      CODE     ---       #446
      00FF0E84H   LINE      CODE     ---       #448
      00FF0E8BH   LINE      CODE     ---       #450
      00FF0E8EH   LINE      CODE     ---       #451
      00FF0E90H   LINE      CODE     ---       #452
      00FF0E90H   LINE      CODE     ---       #455
      00FF0E92H   LINE      CODE     ---       #457
      ---         BLOCKEND  ---      ---       LVL=0

      00FF15F0H   BLOCK     CODE     ---       LVL=0
      00FF15F0H   LINE      CODE     ---       #534
      00FF15F0H   LINE      CODE     ---       #536
      00FF15F3H   LINE      CODE     ---       #538
      00FF15FBH   LINE      CODE     ---       #539
      00FF1603H   LINE      CODE     ---       #540
      00FF1613H   LINE      CODE     ---       #541
      00FF1615H   LINE      CODE     ---       #543
      00FF1618H   LINE      CODE     ---       #544
      ---         BLOCKEND  ---      ---       LVL=0

      00FF17F0H   BLOCK     CODE     ---       LVL=0
      00FF17F0H   LINE      CODE     ---       #546
      00FF17F0H   LINE      CODE     ---       #548
      00FF17F3H   LINE      CODE     ---       #550
      00FF17FBH   LINE      CODE     ---       #551
      00FF1802H   LINE      CODE     ---       #552
      00FF1804H   LINE      CODE     ---       #554
      00FF1807H   LINE      CODE     ---       #555
      ---         BLOCKEND  ---      ---       LVL=0

      ---         MODULE    ---      ---       util
      00FF1A32H   PUBLIC    CODE     ---       LCD12864_DisplayClear
      00FF13FFH   PUBLIC    CODE     ---       OLED12864_ScrollRight
      00FF1910H   PUBLIC    CODE     ---       OLED12864_DisplayOff
L251 LINKER/LOCATER V4.66.93.0                                                        07/09/2022  14:01:57  PAGE 20


      00FF146FH   PUBLIC    CODE     ---       OLED12864_ScrollLeft
      00FF16DAH   PUBLIC    CODE     ---       OLED12864_SetAddressMode
      00FF16F9H   PUBLIC    CODE     ---       OLED12864_SetContrast
      00FF1927H   PUBLIC    CODE     ---       LCD12864_AutoWrapOff
      00FF11E2H   PUBLIC    CODE     ---       OLED12864_ShowPicture
      00FF1808H   PUBLIC    CODE     ---       OLED12864_ScrollStart
      00FF150EH   PUBLIC    CODE     ---       SEG7_ShowFloat
      00FF115EH   PUBLIC    CODE     ---       SEG7_ShowString
      00FF14DBH   PUBLIC    CODE     ---       SEG7_ShowCode
      00FF1220H   PUBLIC    CODE     ---       LED40_SendData
      00FF1820H   PUBLIC    CODE     ---       OLED12864_DisplayOn
      00FF1718H   PUBLIC    CODE     ---       LCD12864_ReverseLine
      00FF193EH   PUBLIC    CODE     ---       OLED12864_ScrollStop
      00FF125EH   PUBLIC    CODE     ---       LED64_SendData
      00FF153FH   PUBLIC    CODE     ---       printf_hid
      00FF1317H   PUBLIC    CODE     ---       SEG7_ShowLong
      00FF1838H   PUBLIC    CODE     ---       LCD12864_ScrollRight
      00FF1850H   PUBLIC    CODE     ---       LCD12864_AutoWrapOn
      00FF1955H   PUBLIC    CODE     ---       LCD12864_DisplayOff
      00FF14A6H   PUBLIC    CODE     ---       reverse2
      00FF196CH   PUBLIC    CODE     ---       LCD12864_ScrollLeft
      00FF1983H   PUBLIC    CODE     ---       OLED12864_HorizontalMirror
      00FF107CH   PUBLIC    CODE     ---       LCD12864_ShowPicture
      00FF1437H   PUBLIC    CODE     ---       OLED12864_ScrollUp
      00FF199AH   PUBLIC    CODE     ---       OLED12864_DisplayContent
      00FF1A44H   PUBLIC    CODE     ---       OLED12864_DisplayReverse
      00FF1868H   PUBLIC    CODE     ---       OLED12864_VerticalMirror
      00FF1880H   PUBLIC    CODE     ---       LCD12864_CursorReturnHome
      00FF1898H   PUBLIC    CODE     ---       OLED12864_DisplayEntire
      00FF18B0H   PUBLIC    CODE     ---       LCD12864_DisplayOn
      00FF18C8H   PUBLIC    CODE     ---       LCD12864_CursorMoveRight
      00FF1352H   PUBLIC    CODE     ---       LCD12864_ShowString
      00FF19B1H   PUBLIC    CODE     ---       LCD12864_CursorOff
      00FF18E0H   PUBLIC    CODE     ---       sleep_ms
      00FF19C8H   PUBLIC    CODE     ---       LCD12864_CursorMoveLeft
      00FF1755H   PUBLIC    CODE     ---       sleep_us
      00FF1690H   PUBLIC    CODE     ---       LCD12864_ScrollUp
      00FF18F8H   PUBLIC    CODE     ---       LCD12864_CursorOn
      00000049H   PUBLIC    EDATA    BYTE      ?SEG7_ShowString?BYTE
      00000075H   PUBLIC    EDATA    BYTE      ?printf_hid?BYTE
      000000D0H   SFRSYM    DATA     BYTE      PSW
      0000009DH   SFRSYM    DATA     BYTE      IRCBAND
      00000097H   SFRSYM    DATA     BYTE      AUXR2
      000000EFH   SFRSYM    DATA     BYTE      AUXINTIF
      000000FDH   SFRSYM    DATA     BYTE      S4CON
      000000ACH   SFRSYM    DATA     BYTE      S3CON
      0000009AH   SFRSYM    DATA     BYTE      S2CON
      000000B7H   SFRSYM    DATA     BYTE      IPH
      000000CDH   SFRSYM    DATA     BYTE      SPSTAT
      000000DDH   SFRSYM    DATA     BYTE      T4T3M
      000000C1H   SFRSYM    DATA     BYTE      WDT_CONTR
      000000DFH   SFRSYM    DATA     BYTE      IP3
      000000F4H   SFRSYM    DATA     BYTE      USBCON
      000000B5H   SFRSYM    DATA     BYTE      IP2
      000000FFH   SFRSYM    DATA     BYTE      RSTCFG
      000000F9H   SFRSYM    DATA     BYTE      LINICR
      0000008EH   SFRSYM    DATA     BYTE      AUXR
      000000AFH   SFRSYM    DATA     BYTE      IE2
      00000088H   SFRSYM    DATA     BYTE      TCON
      00000098H   SFRSYM    DATA     BYTE      SCON
      000000F1H   SFRSYM    DATA     BYTE      CANICR
      00000087H   SFRSYM    DATA     BYTE      PCON
      000000BCH   SFRSYM    DATA     BYTE      ADC_CONTR
      000000E7H   SFRSYM    DATA     BYTE      CMPCR2
      000000E6H   SFRSYM    DATA     BYTE      CMPCR1
L251 LINKER/LOCATER V4.66.93.0                                                        07/09/2022  14:01:57  PAGE 21


      000000B8H   SFRSYM    DATA     BYTE      IP
      0000008FH   SFRSYM    DATA     BYTE      INTCLKO
      000000EEH   SFRSYM    DATA     BYTE      IP3H
      000000B6H   SFRSYM    DATA     BYTE      IP2H
      000000A8H   SFRSYM    DATA     BYTE      IE
      000000BBH   SFRSYM    DATA     BYTE      P_SW3
      000000BAH   SFRSYM    DATA     BYTE      P_SW2
      000000A2H   SFRSYM    DATA     BYTE      P_SW1
      000000CEH   SFRSYM    DATA     BYTE      SPCTL
      000000F8H   SFRSYM    DATA     BYTE      P7
      000000E8H   SFRSYM    DATA     BYTE      P6
      000000C8H   SFRSYM    DATA     BYTE      P5
      000000C0H   SFRSYM    DATA     BYTE      P4
      000000B0H   SFRSYM    DATA     BYTE      P3
      000000A0H   SFRSYM    DATA     BYTE      P2
      00000090H   SFRSYM    DATA     BYTE      P1
      00000080H   SFRSYM    DATA     BYTE      P0
      00FF17A5H   SYMBOL    CODE     ---       OLED12864_SetHeader
      00FF0B64H   SYMBOL    CODE     ---       OLED12864_SetBuffer
      00FF17BEH   SYMBOL    CODE     ---       LCD12864_SetHeader
      00FF0BF3H   SYMBOL    CODE     ---       LCD12864_SetBuffer
      00FF17D7H   SYMBOL    CODE     ---       SEG7_SetHeader

      00FF14A6H   BLOCK     CODE     ---       LVL=0
      00000087H   SYMBOL    EDATA    WORD      w
      00FF14AAH   BLOCK     CODE     NEAR LAB  LVL=1
      00000089H   SYMBOL    EDATA    WORD      ret
      ---         BLOCKEND  ---      ---       LVL=1
      00FF14A6H   LINE      CODE     ---       #17
      00FF14AAH   LINE      CODE     ---       #18
      00FF14AAH   LINE      CODE     ---       #21
      00FF14C0H   LINE      CODE     ---       #22
      00FF14D6H   LINE      CODE     ---       #24
      00FF14DAH   LINE      CODE     ---       #25
      ---         BLOCKEND  ---      ---       LVL=0

      00FF1755H   BLOCK     CODE     ---       LVL=0
      WR6         REGSYM    ---      WORD      n
      00FF1755H   LINE      CODE     ---       #27
      00FF1755H   LINE      CODE     ---       #29
      00FF1757H   LINE      CODE     ---       #38
      00FF1758H   LINE      CODE     ---       #39
      00FF1759H   LINE      CODE     ---       #40
      00FF175AH   LINE      CODE     ---       #41
      00FF175BH   LINE      CODE     ---       #43
      00FF175CH   LINE      CODE     ---       #44
      00FF175DH   LINE      CODE     ---       #45
      00FF175EH   LINE      CODE     ---       #46
      00FF175FH   LINE      CODE     ---       #47
      00FF1760H   LINE      CODE     ---       #49
      00FF1761H   LINE      CODE     ---       #50
      00FF1762H   LINE      CODE     ---       #51
      00FF1763H   LINE      CODE     ---       #52
      00FF1764H   LINE      CODE     ---       #53
      00FF1765H   LINE      CODE     ---       #55
      00FF1766H   LINE      CODE     ---       #56
      00FF1767H   LINE      CODE     ---       #57
      00FF1768H   LINE      CODE     ---       #58
      00FF1769H   LINE      CODE     ---       #59
      00FF1771H   LINE      CODE     ---       #60
      ---         BLOCKEND  ---      ---       LVL=0

      00FF18E0H   BLOCK     CODE     ---       LVL=0
      WR14        REGSYM    ---      WORD      n
      00FF18E0H   LINE      CODE     ---       #62
L251 LINKER/LOCATER V4.66.93.0                                                        07/09/2022  14:01:57  PAGE 22


      00FF18E4H   LINE      CODE     ---       #64
      00FF18F5H   LINE      CODE     ---       #66
      ---         BLOCKEND  ---      ---       LVL=0

      00FF17D7H   BLOCK     CODE     ---       LVL=0
      00FF17D7H   LINE      CODE     ---       #68
      00FF17D7H   LINE      CODE     ---       #70
      00FF17DDH   LINE      CODE     ---       #71
      00FF17E3H   LINE      CODE     ---       #72
      00FF17E9H   LINE      CODE     ---       #73
      00FF17EFH   LINE      CODE     ---       #74
      ---         BLOCKEND  ---      ---       LVL=0

      00FF1317H   BLOCK     CODE     ---       LVL=0
      0000008BH   SYMBOL    EDATA    LONG      n
      R15         REGSYM    ---      CHAR      radix
      00FF1317H   LINE      CODE     ---       #76
      00FF131FH   LINE      CODE     ---       #78
      00FF1322H   LINE      CODE     ---       #79
      00FF1328H   LINE      CODE     ---       #80
      00FF132EH   LINE      CODE     ---       #81
      00FF1334H   LINE      CODE     ---       #82
      00FF1339H   LINE      CODE     ---       #83
      00FF134CH   LINE      CODE     ---       #85
      00FF134FH   LINE      CODE     ---       #86
      ---         BLOCKEND  ---      ---       LVL=0

      00FF150EH   BLOCK     CODE     ---       LVL=0
      DR12        REGSYM    ---      FLOAT     f
      00FF150EH   LINE      CODE     ---       #88
      00FF1512H   LINE      CODE     ---       #90
      00FF1515H   LINE      CODE     ---       #91
      00FF151BH   LINE      CODE     ---       #92
      00FF1521H   LINE      CODE     ---       #93
      00FF1526H   LINE      CODE     ---       #94
      00FF152AH   LINE      CODE     ---       #95
      00FF1539H   LINE      CODE     ---       #97
      00FF153CH   LINE      CODE     ---       #98
      ---         BLOCKEND  ---      ---       LVL=0

      00FF14DBH   BLOCK     CODE     ---       LVL=0
      REG=3       REGSYM    ---      ---       cod
      00FF14DBH   LINE      CODE     ---       #100
      00FF14DDH   LINE      CODE     ---       #102
      00FF14E0H   LINE      CODE     ---       #103
      00FF14E6H   LINE      CODE     ---       #104
      00FF14EBH   LINE      CODE     ---       #105
      00FF14EFH   LINE      CODE     ---       #106
      00FF14F3H   LINE      CODE     ---       #107
      00FF1508H   LINE      CODE     ---       #109
      00FF150BH   LINE      CODE     ---       #110
      ---         BLOCKEND  ---      ---       LVL=0

      00FF115EH   BLOCK     CODE     ---       LVL=0
      00000049H   SYMBOL    EDATA    ---       fmt
      00FF1164H   BLOCK     CODE     NEAR LAB  LVL=1
      REG=1       REGSYM    ---      ---       va
      WR14        REGSYM    ---      INT       ret
      ---         BLOCKEND  ---      ---       LVL=1
      00FF115EH   LINE      CODE     ---       #112
      00FF1164H   LINE      CODE     ---       #113
      00FF1164H   LINE      CODE     ---       #117
      00FF1167H   LINE      CODE     ---       #118
      00FF116DH   LINE      CODE     ---       #119
      00FF1172H   LINE      CODE     ---       #120
L251 LINKER/LOCATER V4.66.93.0                                                        07/09/2022  14:01:57  PAGE 23


      00FF1176H   LINE      CODE     ---       #121
      00FF117AH   LINE      CODE     ---       #123
      00FF1182H   LINE      CODE     ---       #124
      00FF119BH   LINE      CODE     ---       #127
      00FF119EH   LINE      CODE     ---       #129
      00FF11A0H   LINE      CODE     ---       #130
      ---         BLOCKEND  ---      ---       LVL=0

      00FF153FH   BLOCK     CODE     ---       LVL=0
      00000075H   SYMBOL    EDATA    ---       fmt
      00FF1545H   BLOCK     CODE     NEAR LAB  LVL=1
      REG=1       REGSYM    ---      ---       va
      WR14        REGSYM    ---      INT       ret
      ---         BLOCKEND  ---      ---       LVL=1
      00FF153FH   LINE      CODE     ---       #132
      00FF1545H   LINE      CODE     ---       #133
      00FF1545H   LINE      CODE     ---       #137
      00FF154DH   LINE      CODE     ---       #138
      00FF1566H   LINE      CODE     ---       #141
      00FF1569H   LINE      CODE     ---       #143
      00FF156BH   LINE      CODE     ---       #144
      ---         BLOCKEND  ---      ---       LVL=0

      00FF1220H   BLOCK     CODE     ---       LVL=0
      REG=0       REGSYM    ---      ---       dat
      R10         REGSYM    ---      BYTE      size
      00FF1220H   LINE      CODE     ---       #146
      00FF1222H   LINE      CODE     ---       #148
      00FF1227H   LINE      CODE     ---       #149
      00FF122AH   LINE      CODE     ---       #151
      00FF1230H   LINE      CODE     ---       #152
      00FF1236H   LINE      CODE     ---       #153
      00FF123CH   LINE      CODE     ---       #154
      00FF1242H   LINE      CODE     ---       #155
      00FF1248H   LINE      CODE     ---       #156
      00FF125BH   LINE      CODE     ---       #158
      ---         BLOCKEND  ---      ---       LVL=0

      00FF125EH   BLOCK     CODE     ---       LVL=0
      REG=0       REGSYM    ---      ---       dat
      R10         REGSYM    ---      BYTE      size
      00FF125EH   LINE      CODE     ---       #161
      00FF1260H   LINE      CODE     ---       #163
      00FF1265H   LINE      CODE     ---       #164
      00FF1268H   LINE      CODE     ---       #166
      00FF126EH   LINE      CODE     ---       #167
      00FF1274H   LINE      CODE     ---       #168
      00FF127AH   LINE      CODE     ---       #169
      00FF1280H   LINE      CODE     ---       #170
      00FF1286H   LINE      CODE     ---       #171
      00FF1299H   LINE      CODE     ---       #173
      ---         BLOCKEND  ---      ---       LVL=0

      00FF17BEH   BLOCK     CODE     ---       LVL=0
      00FF17BEH   LINE      CODE     ---       #176
      00FF17BEH   LINE      CODE     ---       #178
      00FF17C4H   LINE      CODE     ---       #179
      00FF17CAH   LINE      CODE     ---       #180
      00FF17D0H   LINE      CODE     ---       #181
      00FF17D6H   LINE      CODE     ---       #182
      ---         BLOCKEND  ---      ---       LVL=0

      00FF1955H   BLOCK     CODE     ---       LVL=0
      00FF1955H   LINE      CODE     ---       #184
      00FF1955H   LINE      CODE     ---       #186
L251 LINKER/LOCATER V4.66.93.0                                                        07/09/2022  14:01:57  PAGE 24


      00FF1958H   LINE      CODE     ---       #187
      00FF195EH   LINE      CODE     ---       #188
      00FF1964H   LINE      CODE     ---       #189
      00FF1969H   LINE      CODE     ---       #191
      ---         BLOCKEND  ---      ---       LVL=0

      00FF18B0H   BLOCK     CODE     ---       LVL=0
      00FF18B0H   LINE      CODE     ---       #194
      00FF18B0H   LINE      CODE     ---       #196
      00FF18B3H   LINE      CODE     ---       #197
      00FF18B9H   LINE      CODE     ---       #198
      00FF18BFH   LINE      CODE     ---       #199
      00FF18C5H   LINE      CODE     ---       #201
      ---         BLOCKEND  ---      ---       LVL=0

      00FF19B1H   BLOCK     CODE     ---       LVL=0
      00FF19B1H   LINE      CODE     ---       #204
      00FF19B1H   LINE      CODE     ---       #206
      00FF19B4H   LINE      CODE     ---       #207
      00FF19BAH   LINE      CODE     ---       #208
      00FF19C0H   LINE      CODE     ---       #209
      00FF19C5H   LINE      CODE     ---       #211
      ---         BLOCKEND  ---      ---       LVL=0

      00FF18F8H   BLOCK     CODE     ---       LVL=0
      00FF18F8H   LINE      CODE     ---       #214
      00FF18F8H   LINE      CODE     ---       #216
      00FF18FBH   LINE      CODE     ---       #217
      00FF1901H   LINE      CODE     ---       #218
      00FF1907H   LINE      CODE     ---       #219
      00FF190DH   LINE      CODE     ---       #221
      ---         BLOCKEND  ---      ---       LVL=0

      00FF19C8H   BLOCK     CODE     ---       LVL=0
      00FF19C8H   LINE      CODE     ---       #224
      00FF19C8H   LINE      CODE     ---       #226
      00FF19CBH   LINE      CODE     ---       #227
      00FF19D1H   LINE      CODE     ---       #228
      00FF19D7H   LINE      CODE     ---       #229
      00FF19DCH   LINE      CODE     ---       #231
      ---         BLOCKEND  ---      ---       LVL=0

      00FF18C8H   BLOCK     CODE     ---       LVL=0
      00FF18C8H   LINE      CODE     ---       #234
      00FF18C8H   LINE      CODE     ---       #236
      00FF18CBH   LINE      CODE     ---       #237
      00FF18D1H   LINE      CODE     ---       #238
      00FF18D7H   LINE      CODE     ---       #239
      00FF18DDH   LINE      CODE     ---       #241
      ---         BLOCKEND  ---      ---       LVL=0

      00FF1880H   BLOCK     CODE     ---       LVL=0
      00FF1880H   LINE      CODE     ---       #244
      00FF1880H   LINE      CODE     ---       #246
      00FF1883H   LINE      CODE     ---       #247
      00FF1889H   LINE      CODE     ---       #248
      00FF188FH   LINE      CODE     ---       #249
      00FF1895H   LINE      CODE     ---       #251
      ---         BLOCKEND  ---      ---       LVL=0

      00FF196CH   BLOCK     CODE     ---       LVL=0
      00FF196CH   LINE      CODE     ---       #254
      00FF196CH   LINE      CODE     ---       #256
      00FF196FH   LINE      CODE     ---       #257
      00FF1975H   LINE      CODE     ---       #258
L251 LINKER/LOCATER V4.66.93.0                                                        07/09/2022  14:01:57  PAGE 25


      00FF197BH   LINE      CODE     ---       #259
      00FF1980H   LINE      CODE     ---       #261
      ---         BLOCKEND  ---      ---       LVL=0

      00FF1838H   BLOCK     CODE     ---       LVL=0
      00FF1838H   LINE      CODE     ---       #264
      00FF1838H   LINE      CODE     ---       #266
      00FF183BH   LINE      CODE     ---       #267
      00FF1841H   LINE      CODE     ---       #268
      00FF1847H   LINE      CODE     ---       #269
      00FF184DH   LINE      CODE     ---       #271
      ---         BLOCKEND  ---      ---       LVL=0

      00FF1690H   BLOCK     CODE     ---       LVL=0
      R15         REGSYM    ---      BYTE      line
      00FF1690H   LINE      CODE     ---       #274
      00FF1694H   LINE      CODE     ---       #276
      00FF1697H   LINE      CODE     ---       #277
      00FF169DH   LINE      CODE     ---       #278
      00FF16A3H   LINE      CODE     ---       #279
      00FF16A9H   LINE      CODE     ---       #280
      00FF16AFH   LINE      CODE     ---       #282
      00FF16B2H   LINE      CODE     ---       #283
      ---         BLOCKEND  ---      ---       LVL=0

      00FF1927H   BLOCK     CODE     ---       LVL=0
      00FF1927H   LINE      CODE     ---       #285
      00FF1927H   LINE      CODE     ---       #287
      00FF192AH   LINE      CODE     ---       #288
      00FF1930H   LINE      CODE     ---       #289
      00FF1936H   LINE      CODE     ---       #290
      00FF193BH   LINE      CODE     ---       #292
      ---         BLOCKEND  ---      ---       LVL=0

      00FF1850H   BLOCK     CODE     ---       LVL=0
      00FF1850H   LINE      CODE     ---       #295
      00FF1850H   LINE      CODE     ---       #297
      00FF1853H   LINE      CODE     ---       #298
      00FF1859H   LINE      CODE     ---       #299
      00FF185FH   LINE      CODE     ---       #300
      00FF1865H   LINE      CODE     ---       #302
      ---         BLOCKEND  ---      ---       LVL=0

      00FF1718H   BLOCK     CODE     ---       LVL=0
      R15         REGSYM    ---      BYTE      line
      00FF1718H   LINE      CODE     ---       #305
      00FF171CH   LINE      CODE     ---       #307
      00FF171FH   LINE      CODE     ---       #308
      00FF1725H   LINE      CODE     ---       #309
      00FF172BH   LINE      CODE     ---       #310
      00FF1731H   LINE      CODE     ---       #312
      00FF1734H   LINE      CODE     ---       #313
      ---         BLOCKEND  ---      ---       LVL=0

      00FF1A32H   BLOCK     CODE     ---       LVL=0
      00FF1A32H   LINE      CODE     ---       #315
      00FF1A32H   LINE      CODE     ---       #317
      00FF1A35H   LINE      CODE     ---       #318
      00FF1A3BH   LINE      CODE     ---       #319
      00FF1A41H   LINE      CODE     ---       #321
      ---         BLOCKEND  ---      ---       LVL=0

      00FF0BF3H   BLOCK     CODE     ---       LVL=0
      REG=3       REGSYM    ---      ---       dat
      0000001AH   SYMBOL    EDATA    WORD      size
L251 LINKER/LOCATER V4.66.93.0                                                        07/09/2022  14:01:57  PAGE 26


      00FF0BFBH   BLOCK     CODE     NEAR LAB  LVL=1
      0000001CH   SYMBOL    EDATA    BYTE      cnt
      0000001DH   SYMBOL    EDATA    WORD      addr
      ---         BLOCKEND  ---      ---       LVL=1
      00FF0BF3H   LINE      CODE     ---       #324
      00FF0BFBH   LINE      CODE     ---       #325
      00FF0BFBH   LINE      CODE     ---       #329
      00FF0C01H   LINE      CODE     ---       #330
      00FF0C03H   LINE      CODE     ---       #332
      00FF0C09H   LINE      CODE     ---       #333
      00FF0C13H   LINE      CODE     ---       #334
      00FF0C17H   LINE      CODE     ---       #336
      00FF0C1AH   LINE      CODE     ---       #337
      00FF0C28H   LINE      CODE     ---       #338
      00FF0C2EH   LINE      CODE     ---       #339
      00FF0C3DH   LINE      CODE     ---       #340
      00FF0C54H   LINE      CODE     ---       #342
      00FF0C57H   LINE      CODE     ---       #344
      00FF0C5FH   LINE      CODE     ---       #345
      00FF0C6DH   LINE      CODE     ---       #346
      00FF0C77H   LINE      CODE     ---       #347
      00FF0C7FH   LINE      CODE     ---       #348
      ---         BLOCKEND  ---      ---       LVL=0

      00FF1352H   BLOCK     CODE     ---       LVL=0
      00000098H   SYMBOL    EDATA    BYTE      x
      00000099H   SYMBOL    EDATA    BYTE      y
      REG=3       REGSYM    ---      ---       str
      00FF1352H   LINE      CODE     ---       #350
      00FF135EH   LINE      CODE     ---       #352
      00FF1368H   LINE      CODE     ---       #354
      00FF136BH   LINE      CODE     ---       #355
      00FF1371H   LINE      CODE     ---       #356
      00FF1377H   LINE      CODE     ---       #357
      00FF137FH   LINE      CODE     ---       #358
      00FF1387H   LINE      CODE     ---       #360
      00FF138AH   LINE      CODE     ---       #361
      ---         BLOCKEND  ---      ---       LVL=0

      00FF107CH   BLOCK     CODE     ---       LVL=0
      R12         REGSYM    ---      BYTE      x
      R13         REGSYM    ---      BYTE      y
      R14         REGSYM    ---      BYTE      cx
      R15         REGSYM    ---      BYTE      cy
      REG=7       REGSYM    ---      ---       dat
      00FF107CH   LINE      CODE     ---       #363
      00FF1088H   LINE      CODE     ---       #365
      00FF109CH   LINE      CODE     ---       #367
      00FF109FH   LINE      CODE     ---       #368
      00FF10A5H   LINE      CODE     ---       #369
      00FF10ABH   LINE      CODE     ---       #370
      00FF10B1H   LINE      CODE     ---       #371
      00FF10B7H   LINE      CODE     ---       #372
      00FF10BDH   LINE      CODE     ---       #373
      00FF10C3H   LINE      CODE     ---       #375
      00FF10C6H   LINE      CODE     ---       #376
      ---         BLOCKEND  ---      ---       LVL=0

      00FF17A5H   BLOCK     CODE     ---       LVL=0
      00FF17A5H   LINE      CODE     ---       #378
      00FF17A5H   LINE      CODE     ---       #380
      00FF17ABH   LINE      CODE     ---       #381
      00FF17B1H   LINE      CODE     ---       #382
      00FF17B7H   LINE      CODE     ---       #383
      00FF17BDH   LINE      CODE     ---       #384
L251 LINKER/LOCATER V4.66.93.0                                                        07/09/2022  14:01:57  PAGE 27


      ---         BLOCKEND  ---      ---       LVL=0

      00FF1910H   BLOCK     CODE     ---       LVL=0
      00FF1910H   LINE      CODE     ---       #386
      00FF1910H   LINE      CODE     ---       #388
      00FF1913H   LINE      CODE     ---       #389
      00FF1919H   LINE      CODE     ---       #390
      00FF191FH   LINE      CODE     ---       #391
      00FF1924H   LINE      CODE     ---       #393
      ---         BLOCKEND  ---      ---       LVL=0

      00FF1820H   BLOCK     CODE     ---       LVL=0
      00FF1820H   LINE      CODE     ---       #396
      00FF1820H   LINE      CODE     ---       #398
      00FF1823H   LINE      CODE     ---       #399
      00FF1829H   LINE      CODE     ---       #400
      00FF182FH   LINE      CODE     ---       #401
      00FF1835H   LINE      CODE     ---       #403
      ---         BLOCKEND  ---      ---       LVL=0

      00FF199AH   BLOCK     CODE     ---       LVL=0
      00FF199AH   LINE      CODE     ---       #406
      00FF199AH   LINE      CODE     ---       #408
      00FF199DH   LINE      CODE     ---       #409
      00FF19A3H   LINE      CODE     ---       #410
      00FF19A9H   LINE      CODE     ---       #411
      00FF19AEH   LINE      CODE     ---       #413
      ---         BLOCKEND  ---      ---       LVL=0

      00FF1898H   BLOCK     CODE     ---       LVL=0
      00FF1898H   LINE      CODE     ---       #416
      00FF1898H   LINE      CODE     ---       #418
      00FF189BH   LINE      CODE     ---       #419
      00FF18A1H   LINE      CODE     ---       #420
      00FF18A7H   LINE      CODE     ---       #421
      00FF18ADH   LINE      CODE     ---       #423
      ---         BLOCKEND  ---      ---       LVL=0

      00FF1983H   BLOCK     CODE     ---       LVL=0
      00FF1983H   LINE      CODE     ---       #426
      00FF1983H   LINE      CODE     ---       #428
      00FF1986H   LINE      CODE     ---       #429
      00FF198CH   LINE      CODE     ---       #430
      00FF1992H   LINE      CODE     ---       #431
      00FF1997H   LINE      CODE     ---       #433
      ---         BLOCKEND  ---      ---       LVL=0

      00FF1868H   BLOCK     CODE     ---       LVL=0
      00FF1868H   LINE      CODE     ---       #436
      00FF1868H   LINE      CODE     ---       #438
      00FF186BH   LINE      CODE     ---       #439
      00FF1871H   LINE      CODE     ---       #440
      00FF1877H   LINE      CODE     ---       #441
      00FF187DH   LINE      CODE     ---       #443
      ---         BLOCKEND  ---      ---       LVL=0

      00FF1A44H   BLOCK     CODE     ---       LVL=0
      00FF1A44H   LINE      CODE     ---       #446
      00FF1A44H   LINE      CODE     ---       #448
      00FF1A47H   LINE      CODE     ---       #449
      00FF1A4DH   LINE      CODE     ---       #450
      00FF1A53H   LINE      CODE     ---       #452
      ---         BLOCKEND  ---      ---       LVL=0

      00FF16F9H   BLOCK     CODE     ---       LVL=0
L251 LINKER/LOCATER V4.66.93.0                                                        07/09/2022  14:01:57  PAGE 28


      R15         REGSYM    ---      BYTE      bContrast
      00FF16F9H   LINE      CODE     ---       #455
      00FF16FDH   LINE      CODE     ---       #457
      00FF1700H   LINE      CODE     ---       #458
      00FF1706H   LINE      CODE     ---       #459
      00FF170CH   LINE      CODE     ---       #460
      00FF1712H   LINE      CODE     ---       #462
      00FF1715H   LINE      CODE     ---       #463
      ---         BLOCKEND  ---      ---       LVL=0

      00FF16DAH   BLOCK     CODE     ---       LVL=0
      R15         REGSYM    ---      BYTE      bMode
      00FF16DAH   LINE      CODE     ---       #465
      00FF16DEH   LINE      CODE     ---       #467
      00FF16E1H   LINE      CODE     ---       #468
      00FF16E7H   LINE      CODE     ---       #469
      00FF16EDH   LINE      CODE     ---       #470
      00FF16F3H   LINE      CODE     ---       #472
      00FF16F6H   LINE      CODE     ---       #473
      ---         BLOCKEND  ---      ---       LVL=0

      00FF146FH   BLOCK     CODE     ---       LVL=0
      R12         REGSYM    ---      BYTE      bPageStart
      R13         REGSYM    ---      BYTE      bPageEnd
      WR14        REGSYM    ---      WORD      nInterval
      00FF146FH   LINE      CODE     ---       #475
      00FF1475H   LINE      CODE     ---       #477
      00FF1478H   LINE      CODE     ---       #478
      00FF147EH   LINE      CODE     ---       #479
      00FF1484H   LINE      CODE     ---       #480
      00FF1489H   LINE      CODE     ---       #481
      00FF148FH   LINE      CODE     ---       #482
      00FF1495H   LINE      CODE     ---       #483
      00FF14A0H   LINE      CODE     ---       #485
      00FF14A3H   LINE      CODE     ---       #486
      ---         BLOCKEND  ---      ---       LVL=0

      00FF13FFH   BLOCK     CODE     ---       LVL=0
      R12         REGSYM    ---      BYTE      bPageStart
      R13         REGSYM    ---      BYTE      bPageEnd
      WR14        REGSYM    ---      WORD      nInterval
      00FF13FFH   LINE      CODE     ---       #488
      00FF1405H   LINE      CODE     ---       #490
      00FF1408H   LINE      CODE     ---       #491
      00FF140EH   LINE      CODE     ---       #492
      00FF1414H   LINE      CODE     ---       #493
      00FF141AH   LINE      CODE     ---       #494
      00FF1420H   LINE      CODE     ---       #495
      00FF1426H   LINE      CODE     ---       #496
      00FF1431H   LINE      CODE     ---       #498
      00FF1434H   LINE      CODE     ---       #499
      ---         BLOCKEND  ---      ---       LVL=0

      00FF1437H   BLOCK     CODE     ---       LVL=0
      R12         REGSYM    ---      BYTE      bPageStart
      R13         REGSYM    ---      BYTE      bPageEnd
      WR14        REGSYM    ---      WORD      nInterval
      00FF1437H   LINE      CODE     ---       #501
      00FF143DH   LINE      CODE     ---       #503
      00FF1440H   LINE      CODE     ---       #504
      00FF1446H   LINE      CODE     ---       #505
      00FF144CH   LINE      CODE     ---       #506
      00FF1452H   LINE      CODE     ---       #507
      00FF1458H   LINE      CODE     ---       #508
      00FF145EH   LINE      CODE     ---       #509
L251 LINKER/LOCATER V4.66.93.0                                                        07/09/2022  14:01:57  PAGE 29


      00FF1469H   LINE      CODE     ---       #511
      00FF146CH   LINE      CODE     ---       #512
      ---         BLOCKEND  ---      ---       LVL=0

      00FF1808H   BLOCK     CODE     ---       LVL=0
      00FF1808H   LINE      CODE     ---       #514
      00FF1808H   LINE      CODE     ---       #516
      00FF180BH   LINE      CODE     ---       #517
      00FF1811H   LINE      CODE     ---       #518
      00FF1817H   LINE      CODE     ---       #519
      00FF181DH   LINE      CODE     ---       #521
      ---         BLOCKEND  ---      ---       LVL=0

      00FF193EH   BLOCK     CODE     ---       LVL=0
      00FF193EH   LINE      CODE     ---       #524
      00FF193EH   LINE      CODE     ---       #526
      00FF1941H   LINE      CODE     ---       #527
      00FF1947H   LINE      CODE     ---       #528
      00FF194DH   LINE      CODE     ---       #529
      00FF1952H   LINE      CODE     ---       #531
      ---         BLOCKEND  ---      ---       LVL=0

      00FF0B64H   BLOCK     CODE     ---       LVL=0
      REG=3       REGSYM    ---      ---       dat
      0000008FH   SYMBOL    EDATA    WORD      size
      00FF0B6CH   BLOCK     CODE     NEAR LAB  LVL=1
      00000091H   SYMBOL    EDATA    BYTE      cnt
      00000092H   SYMBOL    EDATA    WORD      addr
      ---         BLOCKEND  ---      ---       LVL=1
      00FF0B64H   LINE      CODE     ---       #534
      00FF0B6CH   LINE      CODE     ---       #535
      00FF0B6CH   LINE      CODE     ---       #539
      00FF0B72H   LINE      CODE     ---       #540
      00FF0B74H   LINE      CODE     ---       #542
      00FF0B7AH   LINE      CODE     ---       #543
      00FF0B84H   LINE      CODE     ---       #544
      00FF0B88H   LINE      CODE     ---       #546
      00FF0B8BH   LINE      CODE     ---       #547
      00FF0B99H   LINE      CODE     ---       #548
      00FF0B9FH   LINE      CODE     ---       #549
      00FF0BAEH   LINE      CODE     ---       #550
      00FF0BC5H   LINE      CODE     ---       #552
      00FF0BC8H   LINE      CODE     ---       #554
      00FF0BD0H   LINE      CODE     ---       #555
      00FF0BDEH   LINE      CODE     ---       #556
      00FF0BE8H   LINE      CODE     ---       #557
      00FF0BF0H   LINE      CODE     ---       #558
      ---         BLOCKEND  ---      ---       LVL=0

      00FF11E2H   BLOCK     CODE     ---       LVL=0
      R12         REGSYM    ---      BYTE      x
      R13         REGSYM    ---      BYTE      y
      R14         REGSYM    ---      BYTE      cx
      R15         REGSYM    ---      BYTE      cy
      REG=7       REGSYM    ---      ---       dat
      00FF11E2H   LINE      CODE     ---       #560
      00FF11ECH   LINE      CODE     ---       #562
      00FF11F3H   LINE      CODE     ---       #564
      00FF11F6H   LINE      CODE     ---       #565
      00FF11FCH   LINE      CODE     ---       #566
      00FF1202H   LINE      CODE     ---       #567
      00FF1208H   LINE      CODE     ---       #568
      00FF120EH   LINE      CODE     ---       #569
      00FF1214H   LINE      CODE     ---       #570
      00FF121AH   LINE      CODE     ---       #572
L251 LINKER/LOCATER V4.66.93.0                                                        07/09/2022  14:01:57  PAGE 30


      00FF121DH   LINE      CODE     ---       #573
      ---         BLOCKEND  ---      ---       LVL=0

      ---         MODULE    ---      ---       usb_req_class
      00FF1A9EH   PUBLIC    CODE     ---       usb_get_protocol
      00FF1AA1H   PUBLIC    CODE     ---       usb_set_protocol
      00FF166AH   PUBLIC    CODE     ---       usb_get_idle
      00FF159CH   PUBLIC    CODE     ---       usb_get_report
      00FF156EH   PUBLIC    CODE     ---       usb_req_class
      00FF1737H   PUBLIC    CODE     ---       usb_set_idle
      00FF15C6H   PUBLIC    CODE     ---       usb_set_report
      0000001FH   PUBLIC    EDATA    BYTE      bHidIdle
      000000D0H   SFRSYM    DATA     BYTE      PSW
      0000009DH   SFRSYM    DATA     BYTE      IRCBAND
      00000097H   SFRSYM    DATA     BYTE      AUXR2
      000000EFH   SFRSYM    DATA     BYTE      AUXINTIF
      000000FDH   SFRSYM    DATA     BYTE      S4CON
      000000ACH   SFRSYM    DATA     BYTE      S3CON
      0000009AH   SFRSYM    DATA     BYTE      S2CON
      000000B7H   SFRSYM    DATA     BYTE      IPH
      000000CDH   SFRSYM    DATA     BYTE      SPSTAT
      000000DDH   SFRSYM    DATA     BYTE      T4T3M
      000000C1H   SFRSYM    DATA     BYTE      WDT_CONTR
      000000DFH   SFRSYM    DATA     BYTE      IP3
      000000F4H   SFRSYM    DATA     BYTE      USBCON
      000000B5H   SFRSYM    DATA     BYTE      IP2
      000000FFH   SFRSYM    DATA     BYTE      RSTCFG
      000000F9H   SFRSYM    DATA     BYTE      LINICR
      0000008EH   SFRSYM    DATA     BYTE      AUXR
      000000AFH   SFRSYM    DATA     BYTE      IE2
      00000088H   SFRSYM    DATA     BYTE      TCON
      00000098H   SFRSYM    DATA     BYTE      SCON
      000000F1H   SFRSYM    DATA     BYTE      CANICR
      00000087H   SFRSYM    DATA     BYTE      PCON
      000000BCH   SFRSYM    DATA     BYTE      ADC_CONTR
      000000E7H   SFRSYM    DATA     BYTE      CMPCR2
      000000E6H   SFRSYM    DATA     BYTE      CMPCR1
      000000B8H   SFRSYM    DATA     BYTE      IP
      0000008FH   SFRSYM    DATA     BYTE      INTCLKO
      000000EEH   SFRSYM    DATA     BYTE      IP3H
      000000B6H   SFRSYM    DATA     BYTE      IP2H
      000000A8H   SFRSYM    DATA     BYTE      IE
      000000BBH   SFRSYM    DATA     BYTE      P_SW3
      000000BAH   SFRSYM    DATA     BYTE      P_SW2
      000000A2H   SFRSYM    DATA     BYTE      P_SW1
      000000CEH   SFRSYM    DATA     BYTE      SPCTL
      000000F8H   SFRSYM    DATA     BYTE      P7
      000000E8H   SFRSYM    DATA     BYTE      P6
      000000C8H   SFRSYM    DATA     BYTE      P5
      000000C0H   SFRSYM    DATA     BYTE      P4
      000000B0H   SFRSYM    DATA     BYTE      P3
      000000A0H   SFRSYM    DATA     BYTE      P2
      00000090H   SFRSYM    DATA     BYTE      P1
      00000080H   SFRSYM    DATA     BYTE      P0

      00FF156EH   BLOCK     CODE     ---       LVL=0
      00FF156EH   LINE      CODE     ---       #7
      00FF156EH   LINE      CODE     ---       #9
      00FF1587H   LINE      CODE     ---       #11
      00FF1587H   LINE      CODE     ---       #12
      00FF158AH   LINE      CODE     ---       #13
      00FF158AH   LINE      CODE     ---       #14
      00FF158AH   LINE      CODE     ---       #15
      00FF158DH   LINE      CODE     ---       #16
      00FF158DH   LINE      CODE     ---       #17
L251 LINKER/LOCATER V4.66.93.0                                                        07/09/2022  14:01:57  PAGE 31


      00FF158DH   LINE      CODE     ---       #18
      00FF1590H   LINE      CODE     ---       #19
      00FF1590H   LINE      CODE     ---       #20
      00FF1590H   LINE      CODE     ---       #21
      00FF1593H   LINE      CODE     ---       #22
      00FF1593H   LINE      CODE     ---       #23
      00FF1593H   LINE      CODE     ---       #24
      00FF1596H   LINE      CODE     ---       #25
      00FF1596H   LINE      CODE     ---       #26
      00FF1596H   LINE      CODE     ---       #27
      00FF1599H   LINE      CODE     ---       #28
      00FF1599H   LINE      CODE     ---       #29
      00FF1599H   LINE      CODE     ---       #30
      00FF159CH   LINE      CODE     ---       #31
      00FF159CH   LINE      CODE     ---       #32
      00FF159CH   LINE      CODE     ---       #33
      ---         BLOCKEND  ---      ---       LVL=0

      00FF159CH   BLOCK     CODE     ---       LVL=0
      00FF159CH   LINE      CODE     ---       #35
      00FF159CH   LINE      CODE     ---       #37
      00FF15ACH   LINE      CODE     ---       #40
      00FF15AFH   LINE      CODE     ---       #41
      00FF15AFH   LINE      CODE     ---       #42
      00FF15AFH   LINE      CODE     ---       #44
      00FF15BBH   LINE      CODE     ---       #45
      00FF15C3H   LINE      CODE     ---       #47
      00FF15C6H   LINE      CODE     ---       #48
      ---         BLOCKEND  ---      ---       LVL=0

      00FF15C6H   BLOCK     CODE     ---       LVL=0
      00FF15C6H   LINE      CODE     ---       #50
      00FF15C6H   LINE      CODE     ---       #52
      00FF15D6H   LINE      CODE     ---       #55
      00FF15D9H   LINE      CODE     ---       #56
      00FF15D9H   LINE      CODE     ---       #57
      00FF15D9H   LINE      CODE     ---       #59
      00FF15E5H   LINE      CODE     ---       #60
      00FF15EDH   LINE      CODE     ---       #62
      00FF15F0H   LINE      CODE     ---       #63
      ---         BLOCKEND  ---      ---       LVL=0

      00FF166AH   BLOCK     CODE     ---       LVL=0
      00FF166AH   LINE      CODE     ---       #65
      00FF166AH   LINE      CODE     ---       #67
      00FF167AH   LINE      CODE     ---       #70
      00FF167DH   LINE      CODE     ---       #71
      00FF167DH   LINE      CODE     ---       #72
      00FF167DH   LINE      CODE     ---       #74
      00FF1685H   LINE      CODE     ---       #75
      00FF168DH   LINE      CODE     ---       #77
      00FF1690H   LINE      CODE     ---       #78
      ---         BLOCKEND  ---      ---       LVL=0

      00FF1737H   BLOCK     CODE     ---       LVL=0
      00FF1737H   LINE      CODE     ---       #80
      00FF1737H   LINE      CODE     ---       #82
      00FF1747H   LINE      CODE     ---       #85
      00FF174AH   LINE      CODE     ---       #86
      00FF174AH   LINE      CODE     ---       #87
      00FF174AH   LINE      CODE     ---       #89
      00FF1752H   LINE      CODE     ---       #91
      00FF1755H   LINE      CODE     ---       #92
      ---         BLOCKEND  ---      ---       LVL=0

L251 LINKER/LOCATER V4.66.93.0                                                        07/09/2022  14:01:57  PAGE 32


      00FF1A9EH   BLOCK     CODE     ---       LVL=0
      00FF1A9EH   LINE      CODE     ---       #94
      00FF1A9EH   LINE      CODE     ---       #96
      ---         BLOCKEND  ---      ---       LVL=0

      00FF1AA1H   BLOCK     CODE     ---       LVL=0
      00FF1AA1H   LINE      CODE     ---       #99
      00FF1AA1H   LINE      CODE     ---       #101
      ---         BLOCKEND  ---      ---       LVL=0

      ---         MODULE    ---      ---       usb_req_std
      00FF129CH   PUBLIC    CODE     ---       usb_get_interface
      00FF0003H   PUBLIC    CODE     ---       usb_clear_feature
      00FF1642H   PUBLIC    CODE     ---       usb_set_interface
      00FF0918H   PUBLIC    CODE     ---       usb_get_descriptor
      00FF1AA4H   PUBLIC    CODE     ---       usb_set_descriptor
      00FF0F76H   PUBLIC    CODE     ---       usb_req_std
      00FF1AA7H   PUBLIC    CODE     ---       usb_synch_frame
      00FF1114H   PUBLIC    CODE     ---       usb_set_address
      00FF0ACFH   PUBLIC    CODE     ---       usb_set_feature
      00FF1028H   PUBLIC    CODE     ---       usb_get_configuration
      00FF0C82H   PUBLIC    CODE     ---       usb_set_configuration
      00FF0819H   PUBLIC    CODE     ---       usb_get_status
      000000D0H   SFRSYM    DATA     BYTE      PSW
      0000009DH   SFRSYM    DATA     BYTE      IRCBAND
      00000097H   SFRSYM    DATA     BYTE      AUXR2
      000000EFH   SFRSYM    DATA     BYTE      AUXINTIF
      000000FDH   SFRSYM    DATA     BYTE      S4CON
      000000ACH   SFRSYM    DATA     BYTE      S3CON
      0000009AH   SFRSYM    DATA     BYTE      S2CON
      000000B7H   SFRSYM    DATA     BYTE      IPH
      000000CDH   SFRSYM    DATA     BYTE      SPSTAT
      000000DDH   SFRSYM    DATA     BYTE      T4T3M
      000000C1H   SFRSYM    DATA     BYTE      WDT_CONTR
      000000DFH   SFRSYM    DATA     BYTE      IP3
      000000F4H   SFRSYM    DATA     BYTE      USBCON
      000000B5H   SFRSYM    DATA     BYTE      IP2
      000000FFH   SFRSYM    DATA     BYTE      RSTCFG
      000000F9H   SFRSYM    DATA     BYTE      LINICR
      0000008EH   SFRSYM    DATA     BYTE      AUXR
      000000AFH   SFRSYM    DATA     BYTE      IE2
      00000088H   SFRSYM    DATA     BYTE      TCON
      00000098H   SFRSYM    DATA     BYTE      SCON
      000000F1H   SFRSYM    DATA     BYTE      CANICR
      00000087H   SFRSYM    DATA     BYTE      PCON
      000000BCH   SFRSYM    DATA     BYTE      ADC_CONTR
      000000E7H   SFRSYM    DATA     BYTE      CMPCR2
      000000E6H   SFRSYM    DATA     BYTE      CMPCR1
      000000B8H   SFRSYM    DATA     BYTE      IP
      0000008FH   SFRSYM    DATA     BYTE      INTCLKO
      000000EEH   SFRSYM    DATA     BYTE      IP3H
      000000B6H   SFRSYM    DATA     BYTE      IP2H
      000000A8H   SFRSYM    DATA     BYTE      IE
      000000BBH   SFRSYM    DATA     BYTE      P_SW3
      000000BAH   SFRSYM    DATA     BYTE      P_SW2
      000000A2H   SFRSYM    DATA     BYTE      P_SW1
      000000CEH   SFRSYM    DATA     BYTE      SPCTL
      000000F8H   SFRSYM    DATA     BYTE      P7
      000000E8H   SFRSYM    DATA     BYTE      P6
      000000C8H   SFRSYM    DATA     BYTE      P5
      000000C0H   SFRSYM    DATA     BYTE      P4
      000000B0H   SFRSYM    DATA     BYTE      P3
      000000A0H   SFRSYM    DATA     BYTE      P2
      00000090H   SFRSYM    DATA     BYTE      P1
      00000080H   SFRSYM    DATA     BYTE      P0
L251 LINKER/LOCATER V4.66.93.0                                                        07/09/2022  14:01:57  PAGE 33



      00FF0F76H   BLOCK     CODE     ---       LVL=0
      00FF0F76H   LINE      CODE     ---       #7
      00FF0F76H   LINE      CODE     ---       #9
      00FF0FAEH   LINE      CODE     ---       #11
      00FF0FAEH   LINE      CODE     ---       #12
      00FF0FB1H   LINE      CODE     ---       #13
      00FF0FB1H   LINE      CODE     ---       #14
      00FF0FB1H   LINE      CODE     ---       #15
      00FF0FB4H   LINE      CODE     ---       #16
      00FF0FB4H   LINE      CODE     ---       #17
      00FF0FB4H   LINE      CODE     ---       #18
      00FF0FB7H   LINE      CODE     ---       #19
      00FF0FB7H   LINE      CODE     ---       #20
      00FF0FB7H   LINE      CODE     ---       #21
      00FF0FBAH   LINE      CODE     ---       #22
      00FF0FBAH   LINE      CODE     ---       #23
      00FF0FBAH   LINE      CODE     ---       #24
      00FF0FBDH   LINE      CODE     ---       #25
      00FF0FBDH   LINE      CODE     ---       #26
      00FF0FBDH   LINE      CODE     ---       #27
      00FF0FC0H   LINE      CODE     ---       #28
      00FF0FC0H   LINE      CODE     ---       #29
      00FF0FC0H   LINE      CODE     ---       #30
      00FF0FC3H   LINE      CODE     ---       #31
      00FF0FC3H   LINE      CODE     ---       #32
      00FF0FC3H   LINE      CODE     ---       #33
      00FF0FC6H   LINE      CODE     ---       #34
      00FF0FC6H   LINE      CODE     ---       #35
      00FF0FC6H   LINE      CODE     ---       #36
      00FF0FC9H   LINE      CODE     ---       #37
      00FF0FC9H   LINE      CODE     ---       #38
      00FF0FC9H   LINE      CODE     ---       #39
      00FF0FCCH   LINE      CODE     ---       #40
      00FF0FCCH   LINE      CODE     ---       #41
      00FF0FCCH   LINE      CODE     ---       #42
      00FF0FCFH   LINE      CODE     ---       #43
      00FF0FCFH   LINE      CODE     ---       #44
      00FF0FCFH   LINE      CODE     ---       #45
      00FF0FD2H   LINE      CODE     ---       #46
      00FF0FD2H   LINE      CODE     ---       #47
      00FF0FD2H   LINE      CODE     ---       #48
      ---         BLOCKEND  ---      ---       LVL=0

      00FF0819H   BLOCK     CODE     ---       LVL=0
      00FF081BH   BLOCK     CODE     NEAR LAB  LVL=1
      R10         REGSYM    ---      BYTE      ep
      ---         BLOCKEND  ---      ---       LVL=1
      00FF0819H   LINE      CODE     ---       #50
      00FF081BH   LINE      CODE     ---       #51
      00FF081BH   LINE      CODE     ---       #54
      00FF083CH   LINE      CODE     ---       #59
      00FF083CH   LINE      CODE     ---       #60
      00FF083FH   LINE      CODE     ---       #61
      00FF083FH   LINE      CODE     ---       #63
      00FF0850H   LINE      CODE     ---       #65
      00FF0850H   LINE      CODE     ---       #66
      00FF085CH   LINE      CODE     ---       #69
      00FF085CH   LINE      CODE     ---       #70
      00FF085FH   LINE      CODE     ---       #71
      00FF085FH   LINE      CODE     ---       #74
      00FF085FH   LINE      CODE     ---       #75
      00FF085FH   LINE      CODE     ---       #76
      00FF085FH   LINE      CODE     ---       #77
      00FF0861H   LINE      CODE     ---       #78
L251 LINKER/LOCATER V4.66.93.0                                                        07/09/2022  14:01:57  PAGE 34


      00FF0861H   LINE      CODE     ---       #79
      00FF0877H   LINE      CODE     ---       #83
      00FF0877H   LINE      CODE     ---       #84
      00FF087AH   LINE      CODE     ---       #85
      00FF087AH   LINE      CODE     ---       #88
      00FF0882H   LINE      CODE     ---       #89
      00FF0882H   LINE      CODE     ---       #90
      00FF0882H   LINE      CODE     ---       #91
      00FF0884H   LINE      CODE     ---       #92
      00FF0884H   LINE      CODE     ---       #93
      00FF0891H   LINE      CODE     ---       #96
      00FF0891H   LINE      CODE     ---       #97
      00FF0893H   LINE      CODE     ---       #98
      00FF0893H   LINE      CODE     ---       #101
      00FF089CH   LINE      CODE     ---       #102
      00FF08A5H   LINE      CODE     ---       #105
      00FF08A5H   LINE      CODE     ---       #120
      00FF08BEH   LINE      CODE     ---       #122
      00FF08C6H   LINE      CODE     ---       #123
      00FF08C6H   LINE      CODE     ---       #124
      00FF08C8H   LINE      CODE     ---       #127
      00FF08D0H   LINE      CODE     ---       #128
      00FF08D0H   LINE      CODE     ---       #129
      00FF08D0H   LINE      CODE     ---       #130
      00FF08D2H   LINE      CODE     ---       #133
      00FF08D2H   LINE      CODE     ---       #148
      00FF08EBH   LINE      CODE     ---       #150
      00FF08F3H   LINE      CODE     ---       #151
      00FF08F3H   LINE      CODE     ---       #152
      00FF08F5H   LINE      CODE     ---       #155
      00FF0901H   LINE      CODE     ---       #156
      00FF0909H   LINE      CODE     ---       #157
      00FF0909H   LINE      CODE     ---       #158
      00FF090BH   LINE      CODE     ---       #160
      00FF090BH   LINE      CODE     ---       #161
      00FF090BH   LINE      CODE     ---       #162
      00FF090DH   LINE      CODE     ---       #163
      00FF090DH   LINE      CODE     ---       #164
      00FF090DH   LINE      CODE     ---       #165
      00FF090DH   LINE      CODE     ---       #166
      00FF090DH   LINE      CODE     ---       #167
      00FF0910H   LINE      CODE     ---       #168
      00FF0912H   LINE      CODE     ---       #169
      00FF0912H   LINE      CODE     ---       #171
      00FF0915H   LINE      CODE     ---       #172
      ---         BLOCKEND  ---      ---       LVL=0

      00FF0003H   BLOCK     CODE     ---       LVL=0
      R7          REGSYM    ---      BYTE      ep
      00FF0003H   LINE      CODE     ---       #174
      00FF0003H   LINE      CODE     ---       #175
      00FF0003H   LINE      CODE     ---       #178
      00FF002EH   LINE      CODE     ---       #185
      00FF002EH   LINE      CODE     ---       #186
      00FF0030H   LINE      CODE     ---       #187
      00FF0030H   LINE      CODE     ---       #189
      00FF0039H   LINE      CODE     ---       #190
      00FF0042H   LINE      CODE     ---       #193
      00FF0042H   LINE      CODE     ---       #208
      00FF005CH   LINE      CODE     ---       #209
      00FF0061H   LINE      CODE     ---       #210
      00FF0066H   LINE      CODE     ---       #211
      00FF0066H   LINE      CODE     ---       #212
      00FF0068H   LINE      CODE     ---       #215
      00FF0068H   LINE      CODE     ---       #230
L251 LINKER/LOCATER V4.66.93.0                                                        07/09/2022  14:01:57  PAGE 35


      00FF0082H   LINE      CODE     ---       #231
      00FF0087H   LINE      CODE     ---       #232
      00FF008FH   LINE      CODE     ---       #233
      00FF0096H   LINE      CODE     ---       #234
      00FF0098H   LINE      CODE     ---       #236
      00FF0098H   LINE      CODE     ---       #237
      00FF009BH   LINE      CODE     ---       #238
      00FF009BH   LINE      CODE     ---       #239
      00FF009BH   LINE      CODE     ---       #241
      00FF009EH   LINE      CODE     ---       #242
      ---         BLOCKEND  ---      ---       LVL=0

      00FF0ACFH   BLOCK     CODE     ---       LVL=0
      R7          REGSYM    ---      BYTE      ep
      00FF0ACFH   LINE      CODE     ---       #244
      00FF0ACFH   LINE      CODE     ---       #245
      00FF0ACFH   LINE      CODE     ---       #248
      00FF0AFAH   LINE      CODE     ---       #255
      00FF0AFAH   LINE      CODE     ---       #256
      00FF0AFCH   LINE      CODE     ---       #257
      00FF0AFCH   LINE      CODE     ---       #259
      00FF0B05H   LINE      CODE     ---       #260
      00FF0B0EH   LINE      CODE     ---       #263
      00FF0B0EH   LINE      CODE     ---       #278
      00FF0B25H   LINE      CODE     ---       #279
      00FF0B2AH   LINE      CODE     ---       #280
      00FF0B2FH   LINE      CODE     ---       #281
      00FF0B2FH   LINE      CODE     ---       #282
      00FF0B31H   LINE      CODE     ---       #285
      00FF0B31H   LINE      CODE     ---       #300
      00FF0B48H   LINE      CODE     ---       #301
      00FF0B4DH   LINE      CODE     ---       #302
      00FF0B55H   LINE      CODE     ---       #303
      00FF0B5CH   LINE      CODE     ---       #304
      00FF0B5EH   LINE      CODE     ---       #306
      00FF0B5EH   LINE      CODE     ---       #307
      00FF0B61H   LINE      CODE     ---       #308
      00FF0B61H   LINE      CODE     ---       #309
      00FF0B61H   LINE      CODE     ---       #311
      00FF0B64H   LINE      CODE     ---       #312
      ---         BLOCKEND  ---      ---       LVL=0

      00FF1114H   BLOCK     CODE     ---       LVL=0
      00FF1116H   BLOCK     CODE     NEAR LAB  LVL=1
      R15         REGSYM    ---      BYTE      addr
      ---         BLOCKEND  ---      ---       LVL=1
      00FF1114H   LINE      CODE     ---       #314
      00FF1116H   LINE      CODE     ---       #315
      00FF1116H   LINE      CODE     ---       #318
      00FF113FH   LINE      CODE     ---       #325
      00FF1142H   LINE      CODE     ---       #326
      00FF1144H   LINE      CODE     ---       #327
      00FF1144H   LINE      CODE     ---       #329
      00FF1144H   LINE      CODE     ---       #330
      00FF114AH   LINE      CODE     ---       #331
      00FF114EH   LINE      CODE     ---       #333
      00FF1150H   LINE      CODE     ---       #334
      00FF1152H   LINE      CODE     ---       #337
      00FF1158H   LINE      CODE     ---       #338
      00FF1158H   LINE      CODE     ---       #340
      00FF115BH   LINE      CODE     ---       #341
      ---         BLOCKEND  ---      ---       LVL=0

      00FF0918H   BLOCK     CODE     ---       LVL=0
      00FF0918H   LINE      CODE     ---       #343
L251 LINKER/LOCATER V4.66.93.0                                                        07/09/2022  14:01:57  PAGE 36


      00FF0918H   LINE      CODE     ---       #345
      00FF0923H   LINE      CODE     ---       #347
      00FF0923H   LINE      CODE     ---       #348
      00FF0926H   LINE      CODE     ---       #349
      00FF0926H   LINE      CODE     ---       #351
      00FF093FH   LINE      CODE     ---       #353
      00FF093FH   LINE      CODE     ---       #354
      00FF0949H   LINE      CODE     ---       #356
      00FF0949H   LINE      CODE     ---       #357
      00FF0949H   LINE      CODE     ---       #358
      00FF094BH   LINE      CODE     ---       #361
      00FF0957H   LINE      CODE     ---       #362
      00FF095BH   LINE      CODE     ---       #363
      00FF095BH   LINE      CODE     ---       #364
      00FF095DH   LINE      CODE     ---       #365
      00FF095DH   LINE      CODE     ---       #366
      00FF0969H   LINE      CODE     ---       #367
      00FF096DH   LINE      CODE     ---       #368
      00FF096FH   LINE      CODE     ---       #369
      00FF096FH   LINE      CODE     ---       #370
      00FF097DH   LINE      CODE     ---       #372
      00FF097DH   LINE      CODE     ---       #373
      00FF0989H   LINE      CODE     ---       #374
      00FF098DH   LINE      CODE     ---       #375
      00FF098FH   LINE      CODE     ---       #376
      00FF098FH   LINE      CODE     ---       #377
      00FF099BH   LINE      CODE     ---       #378
      00FF099FH   LINE      CODE     ---       #379
      00FF09A1H   LINE      CODE     ---       #380
      00FF09A1H   LINE      CODE     ---       #381
      00FF09ABH   LINE      CODE     ---       #383
      00FF09AFH   LINE      CODE     ---       #384
      00FF09B4H   LINE      CODE     ---       #385
      00FF09B6H   LINE      CODE     ---       #388
      00FF09C2H   LINE      CODE     ---       #389
      00FF09C6H   LINE      CODE     ---       #390
      00FF09C6H   LINE      CODE     ---       #391
      00FF09C8H   LINE      CODE     ---       #392
      00FF09C8H   LINE      CODE     ---       #393
      00FF09C8H   LINE      CODE     ---       #394
      00FF09CAH   LINE      CODE     ---       #395
      00FF09CAH   LINE      CODE     ---       #396
      00FF09CAH   LINE      CODE     ---       #397
      00FF09CAH   LINE      CODE     ---       #398
      00FF09D6H   LINE      CODE     ---       #399
      00FF09DEH   LINE      CODE     ---       #400
      00FF09E0H   LINE      CODE     ---       #401
      00FF09E0H   LINE      CODE     ---       #402
      00FF09E3H   LINE      CODE     ---       #403
      00FF09E3H   LINE      CODE     ---       #404
      00FF09E3H   LINE      CODE     ---       #406
      00FF09EDH   LINE      CODE     ---       #408
      00FF09F1H   LINE      CODE     ---       #409
      00FF09F1H   LINE      CODE     ---       #411
      00FF09F4H   LINE      CODE     ---       #412
      ---         BLOCKEND  ---      ---       LVL=0

      00FF1AA4H   BLOCK     CODE     ---       LVL=0
      00FF1AA4H   LINE      CODE     ---       #414
      00FF1AA4H   LINE      CODE     ---       #416
      ---         BLOCKEND  ---      ---       LVL=0

      00FF1028H   BLOCK     CODE     ---       LVL=0
      00FF1028H   LINE      CODE     ---       #419
      00FF1028H   LINE      CODE     ---       #421
L251 LINKER/LOCATER V4.66.93.0                                                        07/09/2022  14:01:57  PAGE 37


      00FF1051H   LINE      CODE     ---       #428
      00FF1054H   LINE      CODE     ---       #429
      00FF1054H   LINE      CODE     ---       #430
      00FF1054H   LINE      CODE     ---       #432
      00FF105BH   LINE      CODE     ---       #434
      00FF1063H   LINE      CODE     ---       #435
      00FF1063H   LINE      CODE     ---       #436
      00FF1065H   LINE      CODE     ---       #439
      00FF1071H   LINE      CODE     ---       #440
      00FF1079H   LINE      CODE     ---       #441
      00FF1079H   LINE      CODE     ---       #443
      00FF107CH   LINE      CODE     ---       #444
      ---         BLOCKEND  ---      ---       LVL=0

      00FF0C82H   BLOCK     CODE     ---       LVL=0
      00FF0C82H   LINE      CODE     ---       #446
      00FF0C82H   LINE      CODE     ---       #448
      00FF0CABH   LINE      CODE     ---       #455
      00FF0CAEH   LINE      CODE     ---       #456
      00FF0CAEH   LINE      CODE     ---       #457
      00FF0CAEH   LINE      CODE     ---       #459
      00FF0CB5H   LINE      CODE     ---       #461
      00FF0CBBH   LINE      CODE     ---       #462
      00FF0CC0H   LINE      CODE     ---       #463
      00FF0CC4H   LINE      CODE     ---       #465
      00FF0CCCH   LINE      CODE     ---       #466
      00FF0CD4H   LINE      CODE     ---       #467
      00FF0CDCH   LINE      CODE     ---       #490
      00FF0CE4H   LINE      CODE     ---       #491
      00FF0CEBH   LINE      CODE     ---       #492
      00FF0CF3H   LINE      CODE     ---       #514
      00FF0CFAH   LINE      CODE     ---       #515
      00FF0CFCH   LINE      CODE     ---       #518
      00FF0D02H   LINE      CODE     ---       #519
      00FF0D08H   LINE      CODE     ---       #520
      00FF0D0CH   LINE      CODE     ---       #521
      00FF0D0CH   LINE      CODE     ---       #523
      00FF0D0FH   LINE      CODE     ---       #524
      ---         BLOCKEND  ---      ---       LVL=0

      00FF129CH   BLOCK     CODE     ---       LVL=0
      00FF129CH   LINE      CODE     ---       #526
      00FF129CH   LINE      CODE     ---       #528
      00FF12C0H   LINE      CODE     ---       #534
      00FF12C3H   LINE      CODE     ---       #535
      00FF12C3H   LINE      CODE     ---       #536
      00FF12C3H   LINE      CODE     ---       #538
      00FF12CFH   LINE      CODE     ---       #539
      00FF12D7H   LINE      CODE     ---       #541
      00FF12DAH   LINE      CODE     ---       #542
      ---         BLOCKEND  ---      ---       LVL=0

      00FF1642H   BLOCK     CODE     ---       LVL=0
      00FF1642H   LINE      CODE     ---       #544
      00FF1642H   LINE      CODE     ---       #546
      00FF1664H   LINE      CODE     ---       #552
      00FF1667H   LINE      CODE     ---       #553
      00FF1667H   LINE      CODE     ---       #554
      00FF1667H   LINE      CODE     ---       #556
      00FF166AH   LINE      CODE     ---       #557
      ---         BLOCKEND  ---      ---       LVL=0

      00FF1AA7H   BLOCK     CODE     ---       LVL=0
      00FF1AA7H   LINE      CODE     ---       #559
      00FF1AA7H   LINE      CODE     ---       #561
L251 LINKER/LOCATER V4.66.93.0                                                        07/09/2022  14:01:57  PAGE 38


      ---         BLOCKEND  ---      ---       LVL=0

      ---         MODULE    ---      ---       usb_req_vendor
      00FF1AAAH   PUBLIC    CODE     ---       usb_req_vendor
      000000D0H   SFRSYM    DATA     BYTE      PSW
      0000009DH   SFRSYM    DATA     BYTE      IRCBAND
      00000097H   SFRSYM    DATA     BYTE      AUXR2
      000000EFH   SFRSYM    DATA     BYTE      AUXINTIF
      000000FDH   SFRSYM    DATA     BYTE      S4CON
      000000ACH   SFRSYM    DATA     BYTE      S3CON
      0000009AH   SFRSYM    DATA     BYTE      S2CON
      000000B7H   SFRSYM    DATA     BYTE      IPH
      000000CDH   SFRSYM    DATA     BYTE      SPSTAT
      000000DDH   SFRSYM    DATA     BYTE      T4T3M
      000000C1H   SFRSYM    DATA     BYTE      WDT_CONTR
      000000DFH   SFRSYM    DATA     BYTE      IP3
      000000F4H   SFRSYM    DATA     BYTE      USBCON
      000000B5H   SFRSYM    DATA     BYTE      IP2
      000000FFH   SFRSYM    DATA     BYTE      RSTCFG
      000000F9H   SFRSYM    DATA     BYTE      LINICR
      0000008EH   SFRSYM    DATA     BYTE      AUXR
      000000AFH   SFRSYM    DATA     BYTE      IE2
      00000088H   SFRSYM    DATA     BYTE      TCON
      00000098H   SFRSYM    DATA     BYTE      SCON
      000000F1H   SFRSYM    DATA     BYTE      CANICR
      00000087H   SFRSYM    DATA     BYTE      PCON
      000000BCH   SFRSYM    DATA     BYTE      ADC_CONTR
      000000E7H   SFRSYM    DATA     BYTE      CMPCR2
      000000E6H   SFRSYM    DATA     BYTE      CMPCR1
      000000B8H   SFRSYM    DATA     BYTE      IP
      0000008FH   SFRSYM    DATA     BYTE      INTCLKO
      000000EEH   SFRSYM    DATA     BYTE      IP3H
      000000B6H   SFRSYM    DATA     BYTE      IP2H
      000000A8H   SFRSYM    DATA     BYTE      IE
      000000BBH   SFRSYM    DATA     BYTE      P_SW3
      000000BAH   SFRSYM    DATA     BYTE      P_SW2
      000000A2H   SFRSYM    DATA     BYTE      P_SW1
      000000CEH   SFRSYM    DATA     BYTE      SPCTL
      000000F8H   SFRSYM    DATA     BYTE      P7
      000000E8H   SFRSYM    DATA     BYTE      P6
      000000C8H   SFRSYM    DATA     BYTE      P5
      000000C0H   SFRSYM    DATA     BYTE      P4
      000000B0H   SFRSYM    DATA     BYTE      P3
      000000A0H   SFRSYM    DATA     BYTE      P2
      00000090H   SFRSYM    DATA     BYTE      P1
      00000080H   SFRSYM    DATA     BYTE      P0

      00FF1AAAH   BLOCK     CODE     ---       LVL=0
      00FF1AAAH   LINE      CODE     ---       #5
      00FF1AAAH   LINE      CODE     ---       #7
      ---         BLOCKEND  ---      ---       LVL=0

      ---         MODULE    ---      ---       usb_desc
      00FF0D99H   PUBLIC    CODE     ---       PRODUCTDESC
      00FF0DB3H   PUBLIC    CODE     ---       LANGIDDESC
      00FF0DB7H   PUBLIC    CODE     ---       DEVICEDESC
      00FF0DC9H   PUBLIC    CODE     ---       HIDREPORTDESC
      00FF0DE4H   PUBLIC    CODE     ---       CONFIGDESC
      00FF0E0DH   PUBLIC    CODE     ---       PACKET0
      00FF0E0FH   PUBLIC    CODE     ---       PACKET1
      00FF0E11H   PUBLIC    CODE     ---       MANUFACTDESC
      000000D0H   SFRSYM    DATA     BYTE      PSW
      0000009DH   SFRSYM    DATA     BYTE      IRCBAND
      00000097H   SFRSYM    DATA     BYTE      AUXR2
      000000EFH   SFRSYM    DATA     BYTE      AUXINTIF
L251 LINKER/LOCATER V4.66.93.0                                                        07/09/2022  14:01:57  PAGE 39


      000000FDH   SFRSYM    DATA     BYTE      S4CON
      000000ACH   SFRSYM    DATA     BYTE      S3CON
      0000009AH   SFRSYM    DATA     BYTE      S2CON
      000000B7H   SFRSYM    DATA     BYTE      IPH
      000000CDH   SFRSYM    DATA     BYTE      SPSTAT
      000000DDH   SFRSYM    DATA     BYTE      T4T3M
      000000C1H   SFRSYM    DATA     BYTE      WDT_CONTR
      000000DFH   SFRSYM    DATA     BYTE      IP3
      000000F4H   SFRSYM    DATA     BYTE      USBCON
      000000B5H   SFRSYM    DATA     BYTE      IP2
      000000FFH   SFRSYM    DATA     BYTE      RSTCFG
      000000F9H   SFRSYM    DATA     BYTE      LINICR
      0000008EH   SFRSYM    DATA     BYTE      AUXR
      000000AFH   SFRSYM    DATA     BYTE      IE2
      00000088H   SFRSYM    DATA     BYTE      TCON
      00000098H   SFRSYM    DATA     BYTE      SCON
      000000F1H   SFRSYM    DATA     BYTE      CANICR
      00000087H   SFRSYM    DATA     BYTE      PCON
      000000BCH   SFRSYM    DATA     BYTE      ADC_CONTR
      000000E7H   SFRSYM    DATA     BYTE      CMPCR2
      000000E6H   SFRSYM    DATA     BYTE      CMPCR1
      000000B8H   SFRSYM    DATA     BYTE      IP
      0000008FH   SFRSYM    DATA     BYTE      INTCLKO
      000000EEH   SFRSYM    DATA     BYTE      IP3H
      000000B6H   SFRSYM    DATA     BYTE      IP2H
      000000A8H   SFRSYM    DATA     BYTE      IE
      000000BBH   SFRSYM    DATA     BYTE      P_SW3
      000000BAH   SFRSYM    DATA     BYTE      P_SW2
      000000A2H   SFRSYM    DATA     BYTE      P_SW1
      000000CEH   SFRSYM    DATA     BYTE      SPCTL
      000000F8H   SFRSYM    DATA     BYTE      P7
      000000E8H   SFRSYM    DATA     BYTE      P6
      000000C8H   SFRSYM    DATA     BYTE      P5
      000000C0H   SFRSYM    DATA     BYTE      P4
      000000B0H   SFRSYM    DATA     BYTE      P3
      000000A0H   SFRSYM    DATA     BYTE      P2
      00000090H   SFRSYM    DATA     BYTE      P1
      00000080H   SFRSYM    DATA     BYTE      P0

      ---         MODULE    ---      ---       VSPRINTF
      0000008CH   PUBLIC    EDATA    ---       ?VSPRINTF?BYTE
      00FF00CEH   PUBLIC    CODE     NEAR LAB  VSPRINTF

      ---         MODULE    ---      ---       ?C?PRNFMT
      00FF0117H   PUBLIC    CODE     ---       ?C?PRNFMT

      ---         MODULE    ---      ---       ?C?FPCONVERT
      00FF0534H   PUBLIC    CODE     ---       ?C?FPCONVERT
      00FF05ECH   PUBLIC    CODE     ---       ?C?FPROUND

      ---         MODULE    ---      ---       ?C?FPMUL
      00FF062FH   PUBLIC    CODE     ---       ?C?FPMUL

      ---         MODULE    ---      ---       ?C?FPDIV
      00FF06CFH   PUBLIC    CODE     ---       ?C?FPDIV

      ---         MODULE    ---      ---       ?C?FTNPWR
      00FF0780H   PUBLIC    CODE     ---       ?C?FTNPWR

      ---         MODULE    ---      ---       ?C?FPGETOPN
      00FF07B7H   PUBLIC    CODE     ---       ?C?FPGETOPN2
      00FF07F4H   PUBLIC    CODE     ---       ?C?FPNANRESULT
      00FF07FCH   PUBLIC    CODE     ---       ?C?FPOVERFLOW
      00FF07D0H   PUBLIC    CODE     ---       ?C?FPRESULT
      00FF07E6H   PUBLIC    CODE     ---       ?C?FPRESULT2
L251 LINKER/LOCATER V4.66.93.0                                                        07/09/2022  14:01:57  PAGE 40


      00FF07F9H   PUBLIC    CODE     ---       ?C?FPUNDERFLOW

      ---         MODULE    ---      ---       ?C_START
      00FF0000H   PUBLIC    CODE     ---       ?C?STARTUP
      00FF0000H   PUBLIC    CODE     ---       ?C_STARTUP

      ---         MODULE    ---      ---       ?C?INITEDATA
      00FF11B6H   PUBLIC    CODE     ---       ?C?INITEDATA

      ---         MODULE    ---      ---       ?C?LMUL
      00FF0808H   PUBLIC    CODE     ---       ?C?LMUL

      ---         MODULE    ---      ---       STRCMP?_
      00FF1776H   PUBLIC    CODE     NEAR LAB  STRCMP?_

      ---         MODULE    ---      ---       STRLEN
      00FF1A83H   PUBLIC    CODE     ---       strlen?_

      ---         MODULE    ---      ---       memcpy
      00FF16B5H   PUBLIC    CODE     ---       memcpy?_

      ---         MODULE    ---      ---       ?C?INITEDATA_END
      00FF1ACBH   PUBLIC    HCONST   WORD      ?C?INITEDATA_END

Program Size: data=8.4 edata+hdata=401 xdata=200 const=39 code=6831
L251 RUN COMPLETE.  0 WARNING(S),  0 ERROR(S)
