L251 LINKER/LOCATER V4.66.93.0                                                          07/09/2022  13:58:26  PAGE 1


L251 LINKER/LOCATER V4.66.93.0, INVOKED BY:
C:\KEIL_V5\C251\BIN\L251.EXE Comparator.obj, ..\COMM\stc_usb_hid_32g.LIB TO Comparator CASE DISABLEWARNING (57) CLASSES 
>> (EDATA (0X0-0XFFF), HDATA (0X0-0XFFF))


CPU MODE:     251 SOURCE MODE
INTR FRAME:   2 BYTES SAVED ON INTERRUPT
MEMORY MODEL: XSMALL WITH FLOATING POINT ARITHMETIC


INPUT MODULES INCLUDED:
  Comparator.obj (Comparator)
         COMMENT TYPE 0: C251 V5.60.0
  ..\COMM\stc_usb_hid_32g.LIB (usb)
         COMMENT TYPE 0: C251 V5.60.0
  ..\COMM\stc_usb_hid_32g.LIB (usb_req_class)
         COMMENT TYPE 0: C251 V5.60.0
  ..\COMM\stc_usb_hid_32g.LIB (usb_req_std)
         COMMENT TYPE 0: C251 V5.60.0
  ..\COMM\stc_usb_hid_32g.LIB (usb_req_vendor)
         COMMENT TYPE 0: C251 V5.60.0
  ..\COMM\stc_usb_hid_32g.LIB (util)
         COMMENT TYPE 0: C251 V5.60.0
  ..\COMM\stc_usb_hid_32g.LIB (usb_desc)
         COMMENT TYPE 0: C251 V5.60.0
  C:\KEIL_V5\C251\LIB\C2SFPXS.LIB (VSPRINTF)
         COMMENT TYPE 0: A251 V4.69.6.0
  C:\KEIL_V5\C251\LIB\C2SFPXS.LIB (?C?PRNFMT)
         COMMENT TYPE 0: A251 V4.69.6.0
  C:\KEIL_V5\C251\LIB\C2SFPXS.LIB (?C?FPCONVERT)
         COMMENT TYPE 0: A251 V4.69.6.0
  C:\KEIL_V5\C251\LIB\C2SFPXS.LIB (?C?FPMUL)
         COMMENT TYPE 0: A251 V4.69.6.0
  C:\KEIL_V5\C251\LIB\C2SFPXS.LIB (?C?FPDIV)
         COMMENT TYPE 0: A251 V4.69.6.0
  C:\KEIL_V5\C251\LIB\C2SFPXS.LIB (?C?FTNPWR)
         COMMENT TYPE 0: A251 V4.69.6.0
  C:\KEIL_V5\C251\LIB\C2SFPXS.LIB (?C?FPGETOPN)
         COMMENT TYPE 0: A251 V4.69.6.0
  C:\KEIL_V5\C251\LIB\C2SXS.LIB (?C_START)
         COMMENT TYPE 0: A251 V4.69.6.0
  C:\KEIL_V5\C251\LIB\C2SXS.LIB (?C?INITEDATA)
         COMMENT TYPE 0: A251 V4.69.6.0
  C:\KEIL_V5\C251\LIB\C2SXS.LIB (?C?LMUL)
         COMMENT TYPE 0: A251 V4.69.6.0
  C:\KEIL_V5\C251\LIB\C2SXS.LIB (STRCMP?_)
         COMMENT TYPE 0: A251 V4.69.6.0
  C:\KEIL_V5\C251\LIB\C2SXS.LIB (STRLEN)
         COMMENT TYPE 0: C251 V5.58.7
  C:\KEIL_V5\C251\LIB\C2SXS.LIB (memcpy)
         COMMENT TYPE 0: C251 V5.58.7
  C:\KEIL_V5\C251\LIB\C2SXS.LIB (?C?INITEDATA_END)
         COMMENT TYPE 0: A251 V4.69.6.0


ACTIVE MEMORY CLASSES OF MODULE:  Comparator (Comparator)

BASE        START       END         USED      MEMORY CLASS
==========================================================
000000H     000000H     000FFFH     000191H   EDATA
000000H     000000H     000FFFH               HDATA
000000H     FF0000H     FFFFFFH     000023H   HCONST
FF0000H     FF0000H     FFFFFFH     001ADAH   CODE
000020H.0   000020H.0   00002FH.7   000000H.4 BIT
010000H     010000H     01FFFFH     0000C0H   XDATA
FF0000H     FF0000H     FFFFFFH     000004H   CONST
L251 LINKER/LOCATER V4.66.93.0                                                        07/09/2022  13:58:26  PAGE 2


000000H     000000H     00007FH     000008H   DATA


MEMORY MAP OF MODULE:  Comparator (Comparator)


START     STOP      LENGTH    ALIGN  RELOC    MEMORY CLASS   SEGMENT NAME
=========================================================================
000000H   000007H   000008H   ---    AT..     DATA           "REG BANK 0"
000008H   000019H   000012H   BYTE   UNIT     EDATA          ?ED?USB
00001AH   00001EH   000005H   BYTE   UNIT     EDATA          ?ED?LCD12864_SETBUFFER?UTIL
00001FH   00001FH   000001H   BYTE   UNIT     EDATA          ?ED?USB_REQ_CLASS
000020H.0 000020H.2 000000H.3 BIT    UNIT     BIT            ?BI?USB
000020H.3 000020H.3 000000H.1 BIT    UNIT     BIT            ?BI?COMPARATOR
000020H.4 000020H   000000H.4 ---    ---      **GAP**
000021H   00004CH   00002CH   BYTE   UNIT     EDATA          ?ED?SEG7_SHOWSTRING?UTIL
00004DH   000078H   00002CH   BYTE   UNIT     EDATA          ?ED?PRINTF_HID?UTIL
000079H   000086H   00000EH   BYTE   UNIT     EDATA          ?ED?COMPARATOR
000087H   00008BH   000005H   BYTE   UNIT     EDATA          ?ED?OLED12864_SETBUFFER?UTIL
00008CH   00008FH   000004H   BYTE   UNIT     EDATA          ?ED?SEG7_SHOWLONG?UTIL
000090H   000093H   000004H   BYTE   UNIT     EDATA          ?ED?VSPRINTF
000094H   000097H   000004H   BYTE   UNIT     EDATA          _EDATA_GROUP_
000098H   000099H   000002H   BYTE   UNIT     EDATA          ?ED?LCD12864_SHOWSTRING?UTIL
00009AH   000199H   000100H   BYTE   UNIT     EDATA          ?STACK
00019AH   00FFFFH   00FE66H   ---    ---      **GAP**
010000H   0100BFH   0000C0H   BYTE   INSEG    XDATA          ?XD?USB
0100C0H   FEFFFFH   FDFF40H   ---    ---      **GAP**
FF0000H   FF0002H   000003H   ---    OFFS..   CODE           ?CO?start251?4
FF0003H   FF0005H   000003H   BYTE   INSEG    CODE           ?PR?USB_GET_PROTOCOL?USB_REQ_CLASS
FF0006H   FF0008H   000003H   BYTE   INSEG    CODE           ?PR?USB_SET_PROTOCOL?USB_REQ_CLASS
FF0009H   FF0009H   000001H   BYTE   INSEG    CODE           ?PR?USB_SUSPEND?USB
FF000AH   FF000AH   000001H   BYTE   INSEG    CODE           ?PR?USB_RESUME?USB
FF000BH   FF000DH   000003H   ---    OFFS..   CODE           ?PR?IV?1
FF000EH   FF00A8H   00009BH   BYTE   INSEG    CODE           ?PR?USB_CLEAR_FEATURE?USB_REQ_STD
FF00A9H   FF00AAH   000002H   ---    ---      **GAP**
FF00ABH   FF00ADH   000003H   ---    OFFS..   CODE           ?PR?IV?21
FF00AEH   FF00CAH   00001DH   BYTE   INSEG    CODE           ?PR?SLEEP_US?UTIL
FF00CBH   FF00CDH   000003H   ---    OFFS..   CODE           ?PR?IV?25
FF00CEH   FF0818H   00074BH   BYTE   UNIT     CODE           ?C?LIB_CODE
FF0819H   FF0917H   0000FFH   BYTE   INSEG    CODE           ?PR?USB_GET_STATUS?USB_REQ_STD
FF0918H   FF09F3H   0000DCH   BYTE   INSEG    CODE           ?PR?USB_GET_DESCRIPTOR?USB_REQ_STD
FF09F4H   FF0AA2H   0000AFH   BYTE   INSEG    CODE           ?PR?MAIN?COMPARATOR
FF0AA3H   FF0B37H   000095H   BYTE   INSEG    CODE           ?PR?USB_SET_FEATURE?USB_REQ_STD
FF0B38H   FF0BC6H   00008FH   BYTE   INSEG    CODE           ?PR?OLED12864_SETBUFFER?UTIL
FF0BC7H   FF0C55H   00008FH   BYTE   INSEG    CODE           ?PR?LCD12864_SETBUFFER?UTIL
FF0C56H   FF0CE2H   00008DH   BYTE   INSEG    CODE           ?PR?USB_SET_CONFIGURATION?USB_REQ_STD
FF0CE3H   FF0D6CH   00008AH   BYTE   INSEG    CODE           ?PR?USB_SETUP?USB
FF0D6DH   FF0DECH   000080H   BYTE   UNIT     CODE           ?CO?USB_DESC
FF0DEDH   FF0E68H   00007CH   BYTE   INSEG    CODE           ?PR?USB_OUT_EP1?USB
FF0E69H   FF0EE2H   00007AH   BYTE   INSEG    CODE           ?PR?USB_ISR?USB
FF0EE3H   FF0F49H   000067H   BYTE   INSEG    CODE           ?PR?USB_CTRL_IN?USB
FF0F4AH   FF0FA5H   00005CH   BYTE   INSEG    CODE           ?PR?USB_REQ_STD?USB_REQ_STD
FF0FA6H   FF0FFBH   000056H   BYTE   INSEG    CODE           ?PR?USB_CTRL_OUT?USB
FF0FFCH   FF104FH   000054H   BYTE   INSEG    CODE           ?PR?USB_GET_CONFIGURATION?USB_REQ_STD
FF1050H   FF109CH   00004DH   BYTE   INSEG    CODE           ?PR?LCD12864_SHOWPICTURE?UTIL
FF109DH   FF10E7H   00004BH   BYTE   INSEG    CODE           ?PR?USB_INIT?USB
FF10E8H   FF1131H   00004AH   BYTE   INSEG    CODE           ?PR?USB_SET_ADDRESS?USB_REQ_STD
FF1132H   FF1176H   000045H   BYTE   INSEG    CODE           ?PR?SEG7_SHOWSTRING?UTIL
FF1177H   FF1189H   000013H   BYTE   UNIT     CODE           ?C_C51STARTUP
FF118AH   FF11B2H   000029H   BYTE   UNIT     CODE           ?C_C51STARTUP?2
FF11B3H   FF11B5H   000003H   BYTE   UNIT     CODE           ?C_C51STARTUP?3
FF11B6H   FF11F3H   00003EH   BYTE   INSEG    CODE           ?PR?USB_GET_INTERFACE?USB_REQ_STD
FF11F4H   FF1231H   00003EH   BYTE   INSEG    CODE           ?PR?OLED12864_SHOWPICTURE?UTIL
FF1232H   FF126FH   00003EH   BYTE   INSEG    CODE           ?PR?LED40_SENDDATA?UTIL
FF1270H   FF12ADH   00003EH   BYTE   INSEG    CODE           ?PR?LED64_SENDDATA?UTIL
L251 LINKER/LOCATER V4.66.93.0                                                        07/09/2022  13:58:26  PAGE 3


FF12AEH   FF12EAH   00003DH   BYTE   INSEG    CODE           ?PR?KEYRESETSCAN?COMPARATOR
FF12EBH   FF1325H   00003BH   BYTE   INSEG    CODE           ?PR?SEG7_SHOWLONG?UTIL
FF1326H   FF1360H   00003BH   BYTE   INSEG    CODE           ?PR?LCD12864_SHOWSTRING?UTIL
FF1361H   FF139AH   00003AH   BYTE   INSEG    CODE           ?PR?USB_READ_FIFO?_?USB
FF139BH   FF13D2H   000038H   BYTE   INSEG    CODE           ?PR?USB_RESET?USB
FF13D3H   FF140AH   000038H   BYTE   INSEG    CODE           ?PR?OLED12864_SCROLLRIGHT?UTIL
FF140BH   FF1442H   000038H   BYTE   INSEG    CODE           ?PR?OLED12864_SCROLLUP?UTIL
FF1443H   FF1479H   000037H   BYTE   INSEG    CODE           ?PR?OLED12864_SCROLLLEFT?UTIL
FF147AH   FF14AFH   000036H   BYTE   INSEG    CODE           ?PR?TIMER0_INT?COMPARATOR
FF14B0H   FF14E4H   000035H   BYTE   INSEG    CODE           ?PR?REVERSE2?UTIL
FF14E5H   FF1517H   000033H   BYTE   INSEG    CODE           ?PR?SEG7_SHOWCODE?UTIL
FF1518H   FF1548H   000031H   BYTE   INSEG    CODE           ?PR?SEG7_SHOWFLOAT?UTIL
FF1549H   FF1577H   00002FH   BYTE   INSEG    CODE           ?PR?PRINTF_HID?UTIL
FF1578H   FF15A5H   00002EH   BYTE   INSEG    CODE           ?PR?USB_REQ_CLASS?USB_REQ_CLASS
FF15A6H   FF15D2H   00002DH   BYTE   INSEG    CODE           ?PR?USB_IN_EP1?USB
FF15D3H   FF15FCH   00002AH   BYTE   INSEG    CODE           ?PR?USB_GET_REPORT?USB_REQ_CLASS
FF15FDH   FF1626H   00002AH   BYTE   INSEG    CODE           ?PR?USB_SET_REPORT?USB_REQ_CLASS
FF1627H   FF164FH   000029H   BYTE   INSEG    CODE           ?PR?USB_IN?USB
FF1650H   FF1678H   000029H   BYTE   INSEG    CODE           ?PR?USB_WRITE_FIFO?_?USB
FF1679H   FF16A0H   000028H   BYTE   INSEG    CODE           ?PR?USB_SET_INTERFACE?USB_REQ_STD
FF16A1H   FF16C6H   000026H   BYTE   INSEG    CODE           ?PR?USB_GET_IDLE?USB_REQ_CLASS
FF16C7H   FF16EBH   000025H   BYTE   INSEG    CODE           ?PR?LCD12864_SCROLLUP?UTIL
FF16ECH   FF1710H   000025H   BYTE   INSEG    CODE           ?PR?MEMCPY?_?MEMCPY
FF1711H   FF172FH   00001FH   BYTE   INSEG    CODE           ?PR?OLED12864_SETADDRESSMODE?UTIL
FF1730H   FF174EH   00001FH   BYTE   INSEG    CODE           ?PR?OLED12864_SETCONTRAST?UTIL
FF174FH   FF176DH   00001FH   BYTE   INSEG    CODE           ?PR?LCD12864_REVERSELINE?UTIL
FF176EH   FF178BH   00001EH   BYTE   INSEG    CODE           ?PR?USB_SET_IDLE?USB_REQ_CLASS
FF178CH   FF17A5H   00001AH   BYTE   UNIT     CODE           ?PR?STRCMP?_
FF17A6H   FF17BEH   000019H   BYTE   INSEG    CODE           ?PR?USB_BULK_INTR_OUT?USB
FF17BFH   FF17D7H   000019H   BYTE   INSEG    CODE           ?PR?OLED12864_SETHEADER?UTIL
FF17D8H   FF17F0H   000019H   BYTE   INSEG    CODE           ?PR?LCD12864_SETHEADER?UTIL
FF17F1H   FF1809H   000019H   BYTE   INSEG    CODE           ?PR?SEG7_SETHEADER?UTIL
FF180AH   FF1821H   000018H   BYTE   INSEG    CODE           ?PR?USB_OUT_DONE?USB
FF1822H   FF1839H   000018H   BYTE   INSEG    CODE           ?PR?OLED12864_SCROLLSTART?UTIL
FF183AH   FF1851H   000018H   BYTE   INSEG    CODE           ?PR?OLED12864_DISPLAYON?UTIL
FF1852H   FF1869H   000018H   BYTE   INSEG    CODE           ?PR?LCD12864_SCROLLRIGHT?UTIL
FF186AH   FF1881H   000018H   BYTE   INSEG    CODE           ?PR?LCD12864_AUTOWRAPON?UTIL
FF1882H   FF1899H   000018H   BYTE   INSEG    CODE           ?PR?OLED12864_VERTICALMIRROR?UTIL
FF189AH   FF18B1H   000018H   BYTE   INSEG    CODE           ?PR?LCD12864_CURSORRETURNHOME?UTIL
FF18B2H   FF18C9H   000018H   BYTE   INSEG    CODE           ?PR?OLED12864_DISPLAYENTIRE?UTIL
FF18CAH   FF18E1H   000018H   BYTE   INSEG    CODE           ?PR?LCD12864_DISPLAYON?UTIL
FF18E2H   FF18F9H   000018H   BYTE   INSEG    CODE           ?PR?LCD12864_CURSORMOVERIGHT?UTIL
FF18FAH   FF1911H   000018H   BYTE   INSEG    CODE           ?PR?SLEEP_MS?UTIL
FF1912H   FF1929H   000018H   BYTE   INSEG    CODE           ?PR?LCD12864_CURSORON?UTIL
FF192AH   FF1940H   000017H   BYTE   INSEG    CODE           ?PR?OLED12864_DISPLAYOFF?UTIL
FF1941H   FF1957H   000017H   BYTE   INSEG    CODE           ?PR?LCD12864_AUTOWRAPOFF?UTIL
FF1958H   FF196EH   000017H   BYTE   INSEG    CODE           ?PR?OLED12864_SCROLLSTOP?UTIL
FF196FH   FF1985H   000017H   BYTE   INSEG    CODE           ?PR?LCD12864_DISPLAYOFF?UTIL
FF1986H   FF199CH   000017H   BYTE   INSEG    CODE           ?PR?LCD12864_SCROLLLEFT?UTIL
FF199DH   FF19B3H   000017H   BYTE   INSEG    CODE           ?PR?OLED12864_HORIZONTALMIRROR?UTIL
FF19B4H   FF19CAH   000017H   BYTE   INSEG    CODE           ?PR?OLED12864_DISPLAYCONTENT?UTIL
FF19CBH   FF19E1H   000017H   BYTE   INSEG    CODE           ?PR?LCD12864_CURSOROFF?UTIL
FF19E2H   FF19F8H   000017H   BYTE   INSEG    CODE           ?PR?LCD12864_CURSORMOVELEFT?UTIL
FF19F9H   FF1A0EH   000016H   BYTE   INSEG    CODE           ?PR?DELAY_MS?COMPARATOR
FF1A0FH   FF1A23H   000015H   BYTE   INSEG    CODE           ?PR?USB_BULK_INTR_IN?USB
FF1A24H   FF1A38H   000015H   BYTE   INSEG    CODE           ?PR?USB_READ_REG?USB
FF1A39H   FF1A4BH   000013H   BYTE   INSEG    CODE           ?PR?USB_WRITE_REG?USB
FF1A4CH   FF1A5DH   000012H   BYTE   INSEG    CODE           ?PR?LCD12864_DISPLAYCLEAR?UTIL
FF1A5EH   FF1A6FH   000012H   BYTE   INSEG    CODE           ?PR?OLED12864_DISPLAYREVERSE?UTIL
FF1A70H   FF1A80H   000011H   BYTE   INSEG    CODE           ?PR?USB_SETUP_IN?USB
FF1A81H   FF1A8EH   00000EH   BYTE   INSEG    CODE           ?PR?TIMER0_INIT?COMPARATOR
FF1A8FH   FF1A9CH   00000EH   BYTE   INSEG    CODE           ?PR?USB_SETUP_OUT?USB
FF1A9DH   FF1AAAH   00000EH   BYTE   INSEG    CODE           ?PR?USB_SETUP_STALL?USB
FF1AABH   FF1AB8H   00000EH   BYTE   INSEG    CODE           ?PR?STRLEN?_?STRLEN
FF1AB9H   FF1AC5H   00000DH   BYTE   INSEG    CODE           ?PR?CMP_ISR?COMPARATOR
L251 LINKER/LOCATER V4.66.93.0                                                        07/09/2022  13:58:26  PAGE 4


FF1AC6H   FF1AD2H   00000DH   BYTE   INSEG    CODE           ?PR?USB_SETUP_STATUS?USB
FF1AD3H   FF1AD5H   000003H   BYTE   INSEG    CODE           ?PR?USB_SET_DESCRIPTOR?USB_REQ_STD
FF1AD6H   FF1AD8H   000003H   BYTE   INSEG    CODE           ?PR?USB_SYNCH_FRAME?USB_REQ_STD
FF1AD9H   FF1ADBH   000003H   BYTE   INSEG    CODE           ?PR?USB_REQ_VENDOR?USB_REQ_VENDOR
FF1ADCH   FF1ADFH   000004H   BYTE   UNIT     CONST          ?CO?PRINTF
FF1AE0H   FF1AF9H   00001AH   BYTE   UNIT     HCONST         ?C_INITEDATA
FF1AFAH   FF1B02H   000009H   BYTE   UNIT     HCONST         ?HC?COMPARATOR



OVERLAY MAP OF MODULE:   Comparator (Comparator)


FUNCTION/MODULE                        EDATA_GROUP
--> CALLED FUNCTION/MODULE             START  STOP
==================================================
timer0_int/Comparator                  ----- -----
  +--> usb_OUT_done/usb
  +--> KeyResetScan/Comparator

usb_OUT_done/usb                       ----- -----
  +--> usb_write_reg/usb

usb_write_reg/usb                      ----- -----

KeyResetScan/Comparator                ----- -----
  +--> delay_ms/Comparator

delay_ms/Comparator                    ----- -----

*** NEW ROOT *************************

CMP_Isr/Comparator                     ----- -----

*** NEW ROOT *************************

usb_isr/usb                            ----- -----
  +--> usb_read_reg/usb
  +--> usb_resume/usb
  +--> usb_reset/usb
  +--> usb_setup/usb
  +--> usb_in_ep1/usb
  +--> usb_out_ep1/usb
  +--> usb_suspend/usb

usb_read_reg/usb                       ----- -----

usb_resume/usb                         ----- -----

usb_reset/usb                          ----- -----
  +--> usb_write_reg/usb

usb_setup/usb                          ----- -----
  +--> usb_write_reg/usb
  +--> usb_read_reg/usb
  +--> usb_read_fifo?_/usb
  +--> reverse2/util
  +--> usb_req_std/usb_req_std
  +--> usb_req_class/usb_req_class
  +--> usb_req_vendor/usb_req_vendor
  +--> usb_setup_stall/usb
  +--> usb_ctrl_in/usb
  +--> usb_ctrl_out/usb

usb_read_fifo?_/usb                    ----- -----
L251 LINKER/LOCATER V4.66.93.0                                                        07/09/2022  13:58:26  PAGE 5


  +--> usb_read_reg/usb

reverse2/util                          0094H 0097H

usb_req_std/usb_req_std                ----- -----
  +--> usb_get_status/usb_req_std
  +--> usb_clear_feature/usb_req_std
  +--> usb_set_feature/usb_req_std
  +--> usb_set_address/usb_req_std
  +--> usb_get_descriptor/usb_req_std
  +--> usb_set_descriptor/usb_req_std
  +--> usb_get_configuration/usb_req_std
  +--> usb_set_configuration/usb_req_std
  +--> usb_get_interface/usb_req_std
  +--> usb_set_interface/usb_req_std
  +--> usb_synch_frame/usb_req_std
  +--> usb_setup_stall/usb

usb_get_status/usb_req_std             ----- -----
  +--> usb_setup_stall/usb
  +--> usb_setup_in/usb

usb_setup_stall/usb                    ----- -----
  +--> usb_write_reg/usb

usb_setup_in/usb                       ----- -----
  +--> usb_write_reg/usb
  +--> usb_ctrl_in/usb

usb_ctrl_in/usb                        ----- -----
  +--> usb_write_reg/usb
  +--> usb_read_reg/usb
  +--> usb_write_fifo?_/usb

usb_write_fifo?_/usb                   ----- -----
  +--> usb_write_reg/usb

usb_clear_feature/usb_req_std          ----- -----
  +--> usb_write_reg/usb
  +--> usb_setup_stall/usb
  +--> usb_setup_status/usb

usb_setup_status/usb                   ----- -----
  +--> usb_write_reg/usb

usb_set_feature/usb_req_std            ----- -----
  +--> usb_write_reg/usb
  +--> usb_setup_stall/usb
  +--> usb_setup_status/usb

usb_set_address/usb_req_std            ----- -----
  +--> usb_setup_stall/usb
  +--> usb_write_reg/usb
  +--> usb_setup_status/usb

usb_get_descriptor/usb_req_std         ----- -----
  +--> usb_setup_stall/usb
  +--> usb_setup_in/usb

usb_set_descriptor/usb_req_std         ----- -----
  +--> usb_setup_stall/usb

usb_get_configuration/usb_req_std      ----- -----
  +--> usb_setup_stall/usb
  +--> usb_setup_in/usb
L251 LINKER/LOCATER V4.66.93.0                                                        07/09/2022  13:58:26  PAGE 6



usb_set_configuration/usb_req_std      ----- -----
  +--> usb_setup_stall/usb
  +--> usb_write_reg/usb
  +--> usb_setup_status/usb

usb_get_interface/usb_req_std          ----- -----
  +--> usb_setup_stall/usb
  +--> usb_setup_in/usb

usb_set_interface/usb_req_std          ----- -----
  +--> usb_setup_stall/usb
  +--> usb_setup_status/usb

usb_synch_frame/usb_req_std            ----- -----
  +--> usb_setup_stall/usb

usb_req_class/usb_req_class            ----- -----
  +--> usb_get_report/usb_req_class
  +--> usb_set_report/usb_req_class
  +--> usb_get_idle/usb_req_class
  +--> usb_set_idle/usb_req_class
  +--> usb_get_protocol/usb_req_class
  +--> usb_set_protocol/usb_req_class
  +--> usb_setup_stall/usb

usb_get_report/usb_req_class           ----- -----
  +--> usb_setup_stall/usb
  +--> usb_setup_in/usb

usb_set_report/usb_req_class           ----- -----
  +--> usb_setup_stall/usb
  +--> usb_setup_out/usb

usb_setup_out/usb                      ----- -----
  +--> usb_write_reg/usb

usb_get_idle/usb_req_class             ----- -----
  +--> usb_setup_stall/usb
  +--> usb_setup_in/usb

usb_set_idle/usb_req_class             ----- -----
  +--> usb_setup_stall/usb
  +--> usb_setup_status/usb

usb_get_protocol/usb_req_class         ----- -----
  +--> usb_setup_stall/usb

usb_set_protocol/usb_req_class         ----- -----
  +--> usb_setup_stall/usb

usb_req_vendor/usb_req_vendor          ----- -----
  +--> usb_setup_stall/usb

usb_ctrl_out/usb                       ----- -----
  +--> usb_write_reg/usb
  +--> usb_read_reg/usb
  +--> usb_read_fifo?_/usb

usb_in_ep1/usb                         ----- -----
  +--> usb_write_reg/usb
  +--> usb_read_reg/usb

usb_out_ep1/usb                        ----- -----
  +--> usb_write_reg/usb
L251 LINKER/LOCATER V4.66.93.0                                                        07/09/2022  13:58:26  PAGE 7


  +--> usb_read_reg/usb
  +--> usb_bulk_intr_out/usb
  +--> usb_read_fifo?_/usb
  +--> STRCMP?_/STRCMP?_
  +--> sleep_ms/util

usb_bulk_intr_out/usb                  ----- -----
  +--> usb_read_fifo?_/usb
  +--> usb_write_reg/usb

STRCMP?_/STRCMP?_                      ----- -----

sleep_ms/util                          ----- -----
  +--> sleep_us/util

sleep_us/util                          ----- -----

usb_suspend/usb                        ----- -----

*** NEW ROOT *************************

?C_C51STARTUP                          ----- -----

*** NEW ROOT *************************

?C_C51STARTUP?3                        ----- -----
  +--> main/Comparator

main/Comparator                        ----- -----
  +--> usb_init/usb
  +--> Timer0_Init/Comparator
  +--> delay_ms/Comparator

usb_init/usb                           ----- -----
  +--> usb_write_reg/usb

Timer0_Init/Comparator                 ----- -----

*** NEW ROOT *************************

?C_C51STARTUP?2                        ----- -----



PUBLIC SYMBOLS OF MODULE:  Comparator (Comparator)


      VALUE       CLASS    TYPE      PUBLIC SYMBOL NAME
      =================================================
      000000FFH   NUMBER   ---       ?C?CODESEG
      00FF0534H   CODE     ---       ?C?FPCONVERT
      00FF06CFH   CODE     ---       ?C?FPDIV
      00FF07B7H   CODE     ---       ?C?FPGETOPN2
      00FF062FH   CODE     ---       ?C?FPMUL
      00FF07F4H   CODE     ---       ?C?FPNANRESULT
      00FF07FCH   CODE     ---       ?C?FPOVERFLOW
      00FF07D0H   CODE     ---       ?C?FPRESULT
      00FF07E6H   CODE     ---       ?C?FPRESULT2
      00FF05ECH   CODE     ---       ?C?FPROUND
      00FF07F9H   CODE     ---       ?C?FPUNDERFLOW
      00FF0780H   CODE     ---       ?C?FTNPWR
      00FF118AH   CODE     ---       ?C?INITEDATA
      00FF1AF8H   HCONST   WORD      ?C?INITEDATA_END
      00FF0808H   CODE     ---       ?C?LMUL
      00FF0117H   CODE     ---       ?C?PRNFMT
L251 LINKER/LOCATER V4.66.93.0                                                        07/09/2022  13:58:26  PAGE 8


      00FF0000H   CODE     ---       ?C?STARTUP
      00000001H   NUMBER   ---       ?C?XDATASEG
      00FF0000H   CODE     ---       ?C_STARTUP
      00000075H   EDATA    BYTE      ?printf_hid?BYTE
      00000049H   EDATA    BYTE      ?SEG7_ShowString?BYTE
      00000088H   EDATA    ---       ?vsprintf?BYTE
*SFR* 000000BCH   DATA     BYTE      ADC_CONTR
*SFR* 000000DEH   DATA     BYTE      ADCCFG
*SFR* 000000EFH   DATA     BYTE      AUXINTIF
*SFR* 0000008EH   DATA     BYTE      AUXR
*SFR* 00000097H   DATA     BYTE      AUXR2
      0000001FH   EDATA    BYTE      bHidIdle
      00000020H.1 BIT      BIT       bUsbFeatureReady
      00000020H.2 BIT      BIT       bUsbInBusy
      00000020H.0 BIT      BIT       bUsbOutReady
*SFR* 000000F1H   DATA     BYTE      CANICR
*SFR* 000000EAH   DATA     BYTE      CKCON
      00FF1AB9H   CODE     ---       CMP_Isr
*SFR* 000000E6H   DATA     BYTE      CMPCR1
*SFR* 000000E7H   DATA     BYTE      CMPCR2
*SFR* 000000E6H.7 DATA     BIT       CMPEN
*SFR* 000000E6H.6 DATA     BIT       CMPIF
*SFR* 000000BAH.3 DATA     BIT       CMPO_S
*SFR* 000000E6H.1 DATA     BIT       CMPOE
*SFR* 000000E6H.0 DATA     BIT       CMPRES
      00FF0DB8H   CODE     ---       CONFIGDESC
      00FF19F9H   CODE     ---       delay_ms
      00FF0D8BH   CODE     ---       DEVICEDESC
      00000010H   EDATA    BYTE      DeviceState
*SFR* 000000E7H.6 DATA     BIT       DISFLT
*SFR* 000000A8H.7 DATA     BIT       EA
*SFR* 000000BAH.7 DATA     BIT       EAXFR
      00000011H   EDATA    ---       Ep0State
*SFR* 000000A8H.1 DATA     BIT       ET0
*SFR* 000000AFH.7 DATA     BIT       EUSB
      00FF0D9DH   CODE     ---       HIDREPORTDESC
*SFR* 000000C7H   DATA     BYTE      IAP_CONTR
*SFR* 000000A8H   DATA     BYTE      IE
*SFR* 000000AFH   DATA     BYTE      IE2
      00000018H   EDATA    BYTE      InEpState
*SFR* 0000008FH   DATA     BYTE      INTCLKO
*SFR* 000000E7H.7 DATA     BIT       INVCMPO
*SFR* 000000B8H   DATA     BYTE      IP
*SFR* 000000B5H   DATA     BYTE      IP2
*SFR* 000000B6H   DATA     BYTE      IP2H
*SFR* 000000DFH   DATA     BYTE      IP3
*SFR* 000000EEH   DATA     BYTE      IP3H
*SFR* 000000B7H   DATA     BYTE      IPH
*SFR* 0000009DH   DATA     BYTE      IRCBAND
      0000007DH   EDATA    WORD      Key_cnt
      00000020H.3 BIT      BIT       Key_Flag
      00FF12AEH   CODE     ---       KeyResetScan
      00FF0D87H   CODE     ---       LANGIDDESC
      00FF1941H   CODE     ---       LCD12864_AutoWrapOff
      00FF186AH   CODE     ---       LCD12864_AutoWrapOn
      00FF19E2H   CODE     ---       LCD12864_CursorMoveLeft
      00FF18E2H   CODE     ---       LCD12864_CursorMoveRight
      00FF19CBH   CODE     ---       LCD12864_CursorOff
      00FF1912H   CODE     ---       LCD12864_CursorOn
      00FF189AH   CODE     ---       LCD12864_CursorReturnHome
      00FF1A4CH   CODE     ---       LCD12864_DisplayClear
      00FF196FH   CODE     ---       LCD12864_DisplayOff
      00FF18CAH   CODE     ---       LCD12864_DisplayOn
      00FF174FH   CODE     ---       LCD12864_ReverseLine
      00FF1986H   CODE     ---       LCD12864_ScrollLeft
L251 LINKER/LOCATER V4.66.93.0                                                        07/09/2022  13:58:26  PAGE 9


      00FF1852H   CODE     ---       LCD12864_ScrollRight
      00FF16C7H   CODE     ---       LCD12864_ScrollUp
      00FF1050H   CODE     ---       LCD12864_ShowPicture
      00FF1326H   CODE     ---       LCD12864_ShowString
      00FF1232H   CODE     ---       LED40_SendData
      00FF1270H   CODE     ---       LED64_SendData
*SFR* 000000F9H   DATA     BYTE      LINICR
      00FF09F4H   CODE     ---       main
      00FF0DE5H   CODE     ---       MANUFACTDESC
      00FF16ECH   CODE     ---       memcpy?_
*SFR* 000000E6H.4 DATA     BIT       NIE
      00FF19B4H   CODE     ---       OLED12864_DisplayContent
      00FF18B2H   CODE     ---       OLED12864_DisplayEntire
      00FF192AH   CODE     ---       OLED12864_DisplayOff
      00FF183AH   CODE     ---       OLED12864_DisplayOn
      00FF1A5EH   CODE     ---       OLED12864_DisplayReverse
      00FF199DH   CODE     ---       OLED12864_HorizontalMirror
      00FF1443H   CODE     ---       OLED12864_ScrollLeft
      00FF13D3H   CODE     ---       OLED12864_ScrollRight
      00FF1822H   CODE     ---       OLED12864_ScrollStart
      00FF1958H   CODE     ---       OLED12864_ScrollStop
      00FF140BH   CODE     ---       OLED12864_ScrollUp
      00FF1711H   CODE     ---       OLED12864_SetAddressMode
      00FF1730H   CODE     ---       OLED12864_SetContrast
      00FF11F4H   CODE     ---       OLED12864_ShowPicture
      00FF1882H   CODE     ---       OLED12864_VerticalMirror
      00000019H   EDATA    BYTE      OutEpState
*SFR* 00000080H   DATA     BYTE      P0
*SFR* 00000094H   DATA     BYTE      P0M0
*SFR* 00000093H   DATA     BYTE      P0M1
*SFR* 00000090H   DATA     BYTE      P1
*SFR* 00000090H.0 DATA     BIT       P10
*SFR* 00000092H   DATA     BYTE      P1M0
*SFR* 00000091H   DATA     BYTE      P1M1
*SFR* 000000A0H   DATA     BYTE      P2
*SFR* 00000096H   DATA     BYTE      P2M0
*SFR* 00000095H   DATA     BYTE      P2M1
*SFR* 000000B0H   DATA     BYTE      P3
*SFR* 000000B0H.2 DATA     BIT       P32
*SFR* 000000B0H.7 DATA     BIT       P37
*SFR* 000000B2H   DATA     BYTE      P3M0
*SFR* 000000B1H   DATA     BYTE      P3M1
*SFR* 000000C0H   DATA     BYTE      P4
*SFR* 000000B4H   DATA     BYTE      P4M0
*SFR* 000000B3H   DATA     BYTE      P4M1
*SFR* 000000C8H   DATA     BYTE      P5
*SFR* 000000CAH   DATA     BYTE      P5M0
*SFR* 000000C9H   DATA     BYTE      P5M1
*SFR* 000000E8H   DATA     BYTE      P6
*SFR* 000000CCH   DATA     BYTE      P6M0
*SFR* 000000CBH   DATA     BYTE      P6M1
*SFR* 000000F8H   DATA     BYTE      P7
*SFR* 000000E2H   DATA     BYTE      P7M0
*SFR* 000000E1H   DATA     BYTE      P7M1
*SFR* 000000A2H   DATA     BYTE      P_SW1
*SFR* 000000BAH   DATA     BYTE      P_SW2
*SFR* 000000BBH   DATA     BYTE      P_SW3
      00FF0DE1H   CODE     ---       PACKET0
      00FF0DE3H   CODE     ---       PACKET1
*SFR* 00000087H   DATA     BYTE      PCON
*SFR* 000000E6H.5 DATA     BIT       PIE
      00FF1549H   CODE     ---       printf_hid
      00FF0D6DH   CODE     ---       PRODUCTDESC
*SFR* 000000D0H   DATA     BYTE      PSW
      00FF14B0H   CODE     ---       reverse2
L251 LINKER/LOCATER V4.66.93.0                                                        07/09/2022  13:58:26  PAGE 10


*SFR* 000000FFH   DATA     BYTE      RSTCFG
*SFR* 0000009AH   DATA     BYTE      S2CON
*SFR* 000000ACH   DATA     BYTE      S3CON
*SFR* 000000FDH   DATA     BYTE      S4CON
*SFR* 00000098H   DATA     BYTE      SCON
      00FF14E5H   CODE     ---       SEG7_ShowCode
      00FF1518H   CODE     ---       SEG7_ShowFloat
      00FF12EBH   CODE     ---       SEG7_ShowLong
      00FF1132H   CODE     ---       SEG7_ShowString
      00000008H   EDATA    ---       Setup
      00FF18FAH   CODE     ---       sleep_ms
      00FF00AEH   CODE     ---       sleep_us
*SFR* 000000CEH   DATA     BYTE      SPCTL
*SFR* 000000CDH   DATA     BYTE      SPSTAT
      00FF1790H   CODE     NEAR LAB  strcmp?_
      00FF1AABH   CODE     ---       strlen?_
*SFR* 000000DDH   DATA     BYTE      T4T3M
*SFR* 00000088H   DATA     BYTE      TCON
*SFR* 0000008CH   DATA     BYTE      TH0
      00FF1A81H   CODE     ---       Timer0_Init
      00FF147AH   CODE     ---       timer0_int
*SFR* 0000008AH   DATA     BYTE      TL0
*SFR* 00000089H   DATA     BYTE      TMOD
*SFR* 00000088H.4 DATA     BIT       TR0
      00FF1A0FH   CODE     ---       usb_bulk_intr_in
      00FF17A6H   CODE     ---       usb_bulk_intr_out
      00FF000EH   CODE     ---       usb_clear_feature
      00FF0EE3H   CODE     ---       usb_ctrl_in
      00FF0FA6H   CODE     ---       usb_ctrl_out
      00FF0FFCH   CODE     ---       usb_get_configuration
      00FF0918H   CODE     ---       usb_get_descriptor
      00FF16A1H   CODE     ---       usb_get_idle
      00FF11B6H   CODE     ---       usb_get_interface
      00FF0003H   CODE     ---       usb_get_protocol
      00FF15D3H   CODE     ---       usb_get_report
      00FF0819H   CODE     ---       usb_get_status
      00FF1627H   CODE     ---       usb_IN
      00FF15A6H   CODE     ---       usb_in_ep1
      00FF109DH   CODE     ---       usb_init
      00FF0E69H   CODE     ---       usb_isr
      00FF180AH   CODE     ---       usb_OUT_done
      00FF0DEDH   CODE     ---       usb_out_ep1
      00FF1361H   CODE     ---       usb_read_fifo?_
      00FF1A24H   CODE     ---       usb_read_reg
      00FF1578H   CODE     ---       usb_req_class
      00FF0F4AH   CODE     ---       usb_req_std
      00FF1AD9H   CODE     ---       usb_req_vendor
      00FF139BH   CODE     ---       usb_reset
      00FF000AH   CODE     ---       usb_resume
      00FF10E8H   CODE     ---       usb_set_address
      00FF0C56H   CODE     ---       usb_set_configuration
      00FF1AD3H   CODE     ---       usb_set_descriptor
      00FF0AA3H   CODE     ---       usb_set_feature
      00FF176EH   CODE     ---       usb_set_idle
      00FF1679H   CODE     ---       usb_set_interface
      00FF0006H   CODE     ---       usb_set_protocol
      00FF15FDH   CODE     ---       usb_set_report
      00FF0CE3H   CODE     ---       usb_setup
      00FF1A70H   CODE     ---       usb_setup_in
      00FF1A8FH   CODE     ---       usb_setup_out
      00FF1A9DH   CODE     ---       usb_setup_stall
      00FF1AC6H   CODE     ---       usb_setup_status
      00FF0009H   CODE     ---       usb_suspend
      00FF1AD6H   CODE     ---       usb_synch_frame
      00FF1650H   CODE     ---       usb_write_fifo?_
L251 LINKER/LOCATER V4.66.93.0                                                        07/09/2022  13:58:26  PAGE 11


      00FF1A39H   CODE     ---       usb_write_reg
*SFR* 000000FCH   DATA     BYTE      USBADR
*SFR* 000000DCH   DATA     BYTE      USBCLK
*SFR* 000000F4H   DATA     BYTE      USBCON
*SFR* 000000ECH   DATA     BYTE      USBDAT
      00010080H   XDATA    ---       UsbFeatureBuffer
      00010000H   XDATA    ---       UsbInBuffer
      00010040H   XDATA    ---       UsbOutBuffer
      00000083H   EDATA    ---       USER_DEVICEDESC
      0000007FH   EDATA    ---       USER_PRODUCTDESC
      00000079H   EDATA    ---       USER_STCISPCMD
      00FF00CEH   CODE     NEAR LAB  vsprintf
*SFR* 000000C1H   DATA     BYTE      WDT_CONTR
*SFR* 000000E9H   DATA     BYTE      WTST



SYMBOL TABLE OF MODULE:  Comparator (Comparator)

      VALUE       REP       CLASS    TYPE      SYMBOL NAME
      ====================================================
      ---         MODULE    ---      ---       Comparator
      00FF147AH   PUBLIC    CODE     ---       timer0_int
      00FF09F4H   PUBLIC    CODE     ---       main
      00FF1A81H   PUBLIC    CODE     ---       Timer0_Init
      00FF12AEH   PUBLIC    CODE     ---       KeyResetScan
      00FF19F9H   PUBLIC    CODE     ---       delay_ms
      00FF1AB9H   PUBLIC    CODE     ---       CMP_Isr
      00000020H.3 PUBLIC    BIT      BIT       Key_Flag
      00000079H   PUBLIC    EDATA    ---       USER_STCISPCMD
      0000007DH   PUBLIC    EDATA    WORD      Key_cnt
      0000007FH   PUBLIC    EDATA    ---       USER_PRODUCTDESC
      00000083H   PUBLIC    EDATA    ---       USER_DEVICEDESC
      00000094H   SFRSYM    DATA     BYTE      P0M0
      000000D0H   SFRSYM    DATA     BYTE      PSW
      000000BAH.7 SFRSYM    DATA     BIT       EAXFR
      0000009DH   SFRSYM    DATA     BYTE      IRCBAND
      000000E6H.1 SFRSYM    DATA     BIT       CMPOE
      000000E6H.7 SFRSYM    DATA     BIT       CMPEN
      00000097H   SFRSYM    DATA     BYTE      AUXR2
      000000E6H.6 SFRSYM    DATA     BIT       CMPIF
      000000EAH   SFRSYM    DATA     BYTE      CKCON
      000000EFH   SFRSYM    DATA     BYTE      AUXINTIF
      000000FDH   SFRSYM    DATA     BYTE      S4CON
      000000ACH   SFRSYM    DATA     BYTE      S3CON
      0000009AH   SFRSYM    DATA     BYTE      S2CON
      000000BAH.3 SFRSYM    DATA     BIT       CMPO_S
      000000B7H   SFRSYM    DATA     BYTE      IPH
      000000CDH   SFRSYM    DATA     BYTE      SPSTAT
      000000E6H.5 SFRSYM    DATA     BIT       PIE
      000000DDH   SFRSYM    DATA     BYTE      T4T3M
      000000E6H.4 SFRSYM    DATA     BIT       NIE
      000000C1H   SFRSYM    DATA     BYTE      WDT_CONTR
      00000088H.4 SFRSYM    DATA     BIT       TR0
      000000E9H   SFRSYM    DATA     BYTE      WTST
      0000008AH   SFRSYM    DATA     BYTE      TL0
      0000008CH   SFRSYM    DATA     BYTE      TH0
      000000DFH   SFRSYM    DATA     BYTE      IP3
      000000E6H.0 SFRSYM    DATA     BIT       CMPRES
      000000F4H   SFRSYM    DATA     BYTE      USBCON
      000000B5H   SFRSYM    DATA     BYTE      IP2
      000000FFH   SFRSYM    DATA     BYTE      RSTCFG
      000000A8H.1 SFRSYM    DATA     BIT       ET0
      000000E7H.6 SFRSYM    DATA     BIT       DISFLT
      000000DCH   SFRSYM    DATA     BYTE      USBCLK
L251 LINKER/LOCATER V4.66.93.0                                                        07/09/2022  13:58:26  PAGE 12


      000000C7H   SFRSYM    DATA     BYTE      IAP_CONTR
      000000F9H   SFRSYM    DATA     BYTE      LINICR
      0000008EH   SFRSYM    DATA     BYTE      AUXR
      000000AFH   SFRSYM    DATA     BYTE      IE2
      000000B0H.7 SFRSYM    DATA     BIT       P37
      00000088H   SFRSYM    DATA     BYTE      TCON
      00000089H   SFRSYM    DATA     BYTE      TMOD
      000000B0H.2 SFRSYM    DATA     BIT       P32
      00000098H   SFRSYM    DATA     BYTE      SCON
      000000F1H   SFRSYM    DATA     BYTE      CANICR
      00000087H   SFRSYM    DATA     BYTE      PCON
      00000090H.0 SFRSYM    DATA     BIT       P10
      000000BCH   SFRSYM    DATA     BYTE      ADC_CONTR
      000000AFH.7 SFRSYM    DATA     BIT       EUSB
      000000E7H   SFRSYM    DATA     BYTE      CMPCR2
      000000E6H   SFRSYM    DATA     BYTE      CMPCR1
      000000E7H.7 SFRSYM    DATA     BIT       INVCMPO
      000000DEH   SFRSYM    DATA     BYTE      ADCCFG
      000000B8H   SFRSYM    DATA     BYTE      IP
      0000008FH   SFRSYM    DATA     BYTE      INTCLKO
      000000EEH   SFRSYM    DATA     BYTE      IP3H
      000000B6H   SFRSYM    DATA     BYTE      IP2H
      000000A8H   SFRSYM    DATA     BYTE      IE
      000000BBH   SFRSYM    DATA     BYTE      P_SW3
      000000BAH   SFRSYM    DATA     BYTE      P_SW2
      000000A2H   SFRSYM    DATA     BYTE      P_SW1
      000000CEH   SFRSYM    DATA     BYTE      SPCTL
      000000F8H   SFRSYM    DATA     BYTE      P7
      000000A8H.7 SFRSYM    DATA     BIT       EA
      000000E1H   SFRSYM    DATA     BYTE      P7M1
      000000E8H   SFRSYM    DATA     BYTE      P6
      000000C8H   SFRSYM    DATA     BYTE      P5
      000000CBH   SFRSYM    DATA     BYTE      P6M1
      000000E2H   SFRSYM    DATA     BYTE      P7M0
      000000C0H   SFRSYM    DATA     BYTE      P4
      000000C9H   SFRSYM    DATA     BYTE      P5M1
      000000CCH   SFRSYM    DATA     BYTE      P6M0
      000000B0H   SFRSYM    DATA     BYTE      P3
      000000B3H   SFRSYM    DATA     BYTE      P4M1
      000000CAH   SFRSYM    DATA     BYTE      P5M0
      000000A0H   SFRSYM    DATA     BYTE      P2
      000000B1H   SFRSYM    DATA     BYTE      P3M1
      000000B4H   SFRSYM    DATA     BYTE      P4M0
      00000090H   SFRSYM    DATA     BYTE      P1
      00000095H   SFRSYM    DATA     BYTE      P2M1
      000000B2H   SFRSYM    DATA     BYTE      P3M0
      00000080H   SFRSYM    DATA     BYTE      P0
      00000091H   SFRSYM    DATA     BYTE      P1M1
      00000096H   SFRSYM    DATA     BYTE      P2M0
      00000092H   SFRSYM    DATA     BYTE      P1M0
      00000093H   SFRSYM    DATA     BYTE      P0M1

      00FF1AB9H   BLOCK     CODE     ---       LVL=0
      00FF1AB9H   LINE      CODE     ---       #53
      00FF1ABBH   LINE      CODE     ---       #55
      00FF1ABEH   LINE      CODE     ---       #56
      00FF1AC3H   LINE      CODE     ---       #57
      ---         BLOCKEND  ---      ---       LVL=0

      00FF09F4H   BLOCK     CODE     ---       LVL=0
      00FF09F4H   LINE      CODE     ---       #59
      00FF09F4H   LINE      CODE     ---       #61
      00FF09F7H   LINE      CODE     ---       #62
      00FF09FAH   LINE      CODE     ---       #63
      00FF09FDH   LINE      CODE     ---       #65
L251 LINKER/LOCATER V4.66.93.0                                                        07/09/2022  13:58:26  PAGE 13


      00FF0A03H   LINE      CODE     ---       #66
      00FF0A09H   LINE      CODE     ---       #67
      00FF0A0FH   LINE      CODE     ---       #68
      00FF0A15H   LINE      CODE     ---       #69
      00FF0A1BH   LINE      CODE     ---       #70
      00FF0A21H   LINE      CODE     ---       #71
      00FF0A27H   LINE      CODE     ---       #72
      00FF0A2DH   LINE      CODE     ---       #75
      00FF0A30H   LINE      CODE     ---       #76
      00FF0A33H   LINE      CODE     ---       #77
      00FF0A40H   LINE      CODE     ---       #78
      00FF0A4EH   LINE      CODE     ---       #79
      00FF0A51H   LINE      CODE     ---       #81
      00FF0A54H   LINE      CODE     ---       #83
      00FF0A60H   LINE      CODE     ---       #87
      00FF0A68H   LINE      CODE     ---       #89
      00FF0A70H   LINE      CODE     ---       #95
      00FF0A73H   LINE      CODE     ---       #96
      00FF0A76H   LINE      CODE     ---       #98
      00FF0A79H   LINE      CODE     ---       #101
      00FF0A7CH   LINE      CODE     ---       #103
      00FF0A7FH   LINE      CODE     ---       #105
      00FF0A82H   LINE      CODE     ---       #107
      00FF0A85H   LINE      CODE     ---       #110
      00FF0A88H   LINE      CODE     ---       #112
      00FF0A8BH   LINE      CODE     ---       #114
      00FF0A8EH   LINE      CODE     ---       #116
      00FF0A91H   LINE      CODE     ---       #117
      00FF0A93H   LINE      CODE     ---       #119
      00FF0A93H   LINE      CODE     ---       #123
      00FF0A9CH   LINE      CODE     ---       #124
      00FF0AA1H   LINE      CODE     ---       #125
      ---         BLOCKEND  ---      ---       LVL=0

      00FF19F9H   BLOCK     CODE     ---       LVL=0
      R10         REGSYM    ---      BYTE      ms
      00FF19FBH   BLOCK     CODE     NEAR LAB  LVL=1
      WR8         REGSYM    ---      WORD      i
      ---         BLOCKEND  ---      ---       LVL=1
      00FF19F9H   LINE      CODE     ---       #137
      00FF19FBH   LINE      CODE     ---       #138
      00FF19FBH   LINE      CODE     ---       #140
      00FF19FBH   LINE      CODE     ---       #141
      00FF19FFH   LINE      CODE     ---       #142
      00FF1A07H   LINE      CODE     ---       #143
      00FF1A0EH   LINE      CODE     ---       #144
      ---         BLOCKEND  ---      ---       LVL=0

      00FF1A81H   BLOCK     CODE     ---       LVL=0
      00FF1A81H   LINE      CODE     ---       #155
      00FF1A81H   LINE      CODE     ---       #158
      00FF1A84H   LINE      CODE     ---       #159
      00FF1A87H   LINE      CODE     ---       #160
      00FF1A8AH   LINE      CODE     ---       #161
      00FF1A8CH   LINE      CODE     ---       #162
      00FF1A8EH   LINE      CODE     ---       #163
      ---         BLOCKEND  ---      ---       LVL=0

      00FF12AEH   BLOCK     CODE     ---       LVL=0
      00FF12AEH   LINE      CODE     ---       #174
      00FF12AEH   LINE      CODE     ---       #176
      00FF12B1H   LINE      CODE     ---       #178
      00FF12B4H   LINE      CODE     ---       #180
      00FF12BEH   LINE      CODE     ---       #181
      00FF12C4H   LINE      CODE     ---       #183
L251 LINKER/LOCATER V4.66.93.0                                                        07/09/2022  13:58:26  PAGE 14


      00FF12C6H   LINE      CODE     ---       #185
      00FF12C9H   LINE      CODE     ---       #186
      00FF12CCH   LINE      CODE     ---       #187
      00FF12D8H   LINE      CODE     ---       #189
      00FF12DDH   LINE      CODE     ---       #190
      00FF12E0H   LINE      CODE     ---       #191
      00FF12E2H   LINE      CODE     ---       #197
      00FF12E8H   LINE      CODE     ---       #198
      00FF12EAH   LINE      CODE     ---       #199
      00FF12EAH   LINE      CODE     ---       #200
      ---         BLOCKEND  ---      ---       LVL=0

      00FF147AH   BLOCK     CODE     ---       LVL=0
      00FF147AH   LINE      CODE     ---       #211
      00FF1490H   LINE      CODE     ---       #213
      00FF1493H   LINE      CODE     ---       #218
      00FF1496H   LINE      CODE     ---       #219
      00FF1496H   LINE      CODE     ---       #221
      00FF1499H   LINE      CODE     ---       #222
      ---         BLOCKEND  ---      ---       LVL=0

      ---         MODULE    ---      ---       usb
      00FF1A70H   PUBLIC    CODE     ---       usb_setup_in
      00FF1A8FH   PUBLIC    CODE     ---       usb_setup_out
      00FF0EE3H   PUBLIC    CODE     ---       usb_ctrl_in
      00FF0FA6H   PUBLIC    CODE     ---       usb_ctrl_out
      00FF180AH   PUBLIC    CODE     ---       usb_OUT_done
      00FF0009H   PUBLIC    CODE     ---       usb_suspend
      00FF1A0FH   PUBLIC    CODE     ---       usb_bulk_intr_in
      00FF17A6H   PUBLIC    CODE     ---       usb_bulk_intr_out
      00FF000AH   PUBLIC    CODE     ---       usb_resume
      00FF1627H   PUBLIC    CODE     ---       usb_IN
      00FF1361H   PUBLIC    CODE     ---       usb_read_fifo?_
      00FF139BH   PUBLIC    CODE     ---       usb_reset
      00FF0CE3H   PUBLIC    CODE     ---       usb_setup
      00FF1650H   PUBLIC    CODE     ---       usb_write_fifo?_
      00FF109DH   PUBLIC    CODE     ---       usb_init
      00FF1A9DH   PUBLIC    CODE     ---       usb_setup_stall
      00FF1AC6H   PUBLIC    CODE     ---       usb_setup_status
      00FF1A24H   PUBLIC    CODE     ---       usb_read_reg
      00FF15A6H   PUBLIC    CODE     ---       usb_in_ep1
      00FF0DEDH   PUBLIC    CODE     ---       usb_out_ep1
      00FF1A39H   PUBLIC    CODE     ---       usb_write_reg
      00FF0E69H   PUBLIC    CODE     ---       usb_isr
      00000008H   PUBLIC    EDATA    ---       Setup
      00000010H   PUBLIC    EDATA    BYTE      DeviceState
      00000011H   PUBLIC    EDATA    ---       Ep0State
      00000018H   PUBLIC    EDATA    BYTE      InEpState
      00000019H   PUBLIC    EDATA    BYTE      OutEpState
      00000020H.0 PUBLIC    BIT      BIT       bUsbOutReady
      00000020H.1 PUBLIC    BIT      BIT       bUsbFeatureReady
      00000020H.2 PUBLIC    BIT      BIT       bUsbInBusy
      00010000H   PUBLIC    XDATA    ---       UsbInBuffer
      00010040H   PUBLIC    XDATA    ---       UsbOutBuffer
      00010080H   PUBLIC    XDATA    ---       UsbFeatureBuffer
      000000D0H   SFRSYM    DATA     BYTE      PSW
      0000009DH   SFRSYM    DATA     BYTE      IRCBAND
      00000097H   SFRSYM    DATA     BYTE      AUXR2
      000000EFH   SFRSYM    DATA     BYTE      AUXINTIF
      000000FDH   SFRSYM    DATA     BYTE      S4CON
      000000ACH   SFRSYM    DATA     BYTE      S3CON
      0000009AH   SFRSYM    DATA     BYTE      S2CON
      000000B7H   SFRSYM    DATA     BYTE      IPH
      000000CDH   SFRSYM    DATA     BYTE      SPSTAT
      000000DDH   SFRSYM    DATA     BYTE      T4T3M
L251 LINKER/LOCATER V4.66.93.0                                                        07/09/2022  13:58:26  PAGE 15


      000000C1H   SFRSYM    DATA     BYTE      WDT_CONTR
      000000DFH   SFRSYM    DATA     BYTE      IP3
      000000F4H   SFRSYM    DATA     BYTE      USBCON
      000000B5H   SFRSYM    DATA     BYTE      IP2
      000000FFH   SFRSYM    DATA     BYTE      RSTCFG
      000000DCH   SFRSYM    DATA     BYTE      USBCLK
      000000ECH   SFRSYM    DATA     BYTE      USBDAT
      000000C7H   SFRSYM    DATA     BYTE      IAP_CONTR
      000000F9H   SFRSYM    DATA     BYTE      LINICR
      000000FCH   SFRSYM    DATA     BYTE      USBADR
      0000008EH   SFRSYM    DATA     BYTE      AUXR
      000000AFH   SFRSYM    DATA     BYTE      IE2
      00000088H   SFRSYM    DATA     BYTE      TCON
      00000098H   SFRSYM    DATA     BYTE      SCON
      000000F1H   SFRSYM    DATA     BYTE      CANICR
      00000087H   SFRSYM    DATA     BYTE      PCON
      000000BCH   SFRSYM    DATA     BYTE      ADC_CONTR
      000000AFH.7 SFRSYM    DATA     BIT       EUSB
      000000E7H   SFRSYM    DATA     BYTE      CMPCR2
      000000E6H   SFRSYM    DATA     BYTE      CMPCR1
      000000B8H   SFRSYM    DATA     BYTE      IP
      0000008FH   SFRSYM    DATA     BYTE      INTCLKO
      000000EEH   SFRSYM    DATA     BYTE      IP3H
      000000B6H   SFRSYM    DATA     BYTE      IP2H
      000000A8H   SFRSYM    DATA     BYTE      IE
      000000BBH   SFRSYM    DATA     BYTE      P_SW3
      000000BAH   SFRSYM    DATA     BYTE      P_SW2
      000000A2H   SFRSYM    DATA     BYTE      P_SW1
      000000CEH   SFRSYM    DATA     BYTE      SPCTL
      000000F8H   SFRSYM    DATA     BYTE      P7
      000000E8H   SFRSYM    DATA     BYTE      P6
      000000C8H   SFRSYM    DATA     BYTE      P5
      000000C0H   SFRSYM    DATA     BYTE      P4
      000000B0H   SFRSYM    DATA     BYTE      P3
      000000A0H   SFRSYM    DATA     BYTE      P2
      00000090H   SFRSYM    DATA     BYTE      P1
      00000080H   SFRSYM    DATA     BYTE      P0

      00FF109DH   BLOCK     CODE     ---       LVL=0
      00FF109DH   LINE      CODE     ---       #22
      00FF109DH   LINE      CODE     ---       #24
      00FF10A0H   LINE      CODE     ---       #25
      00FF10A3H   LINE      CODE     ---       #27
      00FF10A9H   LINE      CODE     ---       #28
      00FF10B1H   LINE      CODE     ---       #29
      00FF10B9H   LINE      CODE     ---       #30
      00FF10C1H   LINE      CODE     ---       #31
      00FF10C9H   LINE      CODE     ---       #32
      00FF10D1H   LINE      CODE     ---       #34
      00FF10D7H   LINE      CODE     ---       #35
      00FF10DCH   LINE      CODE     ---       #36
      00FF10E0H   LINE      CODE     ---       #37
      00FF10E4H   LINE      CODE     ---       #39
      00FF10E7H   LINE      CODE     ---       #40
      ---         BLOCKEND  ---      ---       LVL=0

      00FF1A24H   BLOCK     CODE     ---       LVL=0
      R10         REGSYM    ---      BYTE      addr
      00FF1A26H   BLOCK     CODE     NEAR LAB  LVL=1
      R11         REGSYM    ---      BYTE      dat
      ---         BLOCKEND  ---      ---       LVL=1
      00FF1A24H   LINE      CODE     ---       #42
      00FF1A26H   LINE      CODE     ---       #43
      00FF1A26H   LINE      CODE     ---       #46
      00FF1A2BH   LINE      CODE     ---       #47
L251 LINKER/LOCATER V4.66.93.0                                                        07/09/2022  13:58:26  PAGE 16


      00FF1A31H   LINE      CODE     ---       #48
      00FF1A36H   LINE      CODE     ---       #49
      00FF1A38H   LINE      CODE     ---       #51
      00FF1A38H   LINE      CODE     ---       #52
      ---         BLOCKEND  ---      ---       LVL=0

      00FF1A39H   BLOCK     CODE     ---       LVL=0
      R7          REGSYM    ---      BYTE      addr
      R10         REGSYM    ---      BYTE      dat
      00FF1A39H   LINE      CODE     ---       #54
      00FF1A3DH   LINE      CODE     ---       #56
      00FF1A42H   LINE      CODE     ---       #57
      00FF1A48H   LINE      CODE     ---       #58
      00FF1A4BH   LINE      CODE     ---       #59
      ---         BLOCKEND  ---      ---       LVL=0

      00FF1361H   BLOCK     CODE     ---       LVL=0
      FFFFFFFEH   STKSYM    ---      BYTE      fifo
      REG=3       REGSYM    ---      ---       pdat
      00FF1369H   BLOCK     CODE     NEAR LAB  LVL=1
      00000000H   STKSYM    ---      BYTE      cnt
      FFFFFFFFH   STKSYM    ---      BYTE      ret
      ---         BLOCKEND  ---      ---       LVL=1
      00FF1361H   LINE      CODE     ---       #61
      00FF1369H   LINE      CODE     ---       #62
      00FF1369H   LINE      CODE     ---       #66
      00FF1375H   LINE      CODE     ---       #67
      00FF1377H   LINE      CODE     ---       #69
      00FF1383H   LINE      CODE     ---       #70
      00FF1390H   LINE      CODE     ---       #72
      00FF1394H   LINE      CODE     ---       #73
      ---         BLOCKEND  ---      ---       LVL=0

      00FF1650H   BLOCK     CODE     ---       LVL=0
      00000000H   STKSYM    ---      BYTE      fifo
      REG=3       REGSYM    ---      ---       pdat
      FFFFFFFFH   STKSYM    ---      BYTE      cnt
      00FF1650H   LINE      CODE     ---       #75
      00FF1658H   LINE      CODE     ---       #77
      00FF165AH   LINE      CODE     ---       #79
      00FF1665H   LINE      CODE     ---       #80
      00FF1674H   LINE      CODE     ---       #81
      ---         BLOCKEND  ---      ---       LVL=0

      00FF0E69H   BLOCK     CODE     ---       LVL=0
      00FF0E83H   BLOCK     CODE     NEAR LAB  LVL=1
      R15         REGSYM    ---      BYTE      intrusb
      R13         REGSYM    ---      BYTE      intrin
      R14         REGSYM    ---      BYTE      introut
      ---         BLOCKEND  ---      ---       LVL=1
      00FF0E69H   LINE      CODE     ---       #83
      00FF0E83H   LINE      CODE     ---       #84
      00FF0E83H   LINE      CODE     ---       #89
      00FF0E8AH   LINE      CODE     ---       #90
      00FF0E91H   LINE      CODE     ---       #91
      00FF0E98H   LINE      CODE     ---       #93
      00FF0EA0H   LINE      CODE     ---       #94
      00FF0EA8H   LINE      CODE     ---       #96
      00FF0EB0H   LINE      CODE     ---       #99
      00FF0EB8H   LINE      CODE     ---       #115
      00FF0EC0H   LINE      CODE     ---       #130
      00FF0EC8H   LINE      CODE     ---       #131
      ---         BLOCKEND  ---      ---       LVL=0

      00FF000AH   BLOCK     CODE     ---       LVL=0
L251 LINKER/LOCATER V4.66.93.0                                                        07/09/2022  13:58:26  PAGE 17


      00FF000AH   LINE      CODE     ---       #133
      00FF000AH   LINE      CODE     ---       #135
      ---         BLOCKEND  ---      ---       LVL=0

      00FF139BH   BLOCK     CODE     ---       LVL=0
      00FF139BH   LINE      CODE     ---       #137
      00FF139BH   LINE      CODE     ---       #139
      00FF13A1H   LINE      CODE     ---       #140
      00FF13A7H   LINE      CODE     ---       #141
      00FF13ACH   LINE      CODE     ---       #144
      00FF13B4H   LINE      CODE     ---       #145
      00FF13BCH   LINE      CODE     ---       #164
      00FF13C4H   LINE      CODE     ---       #165
      00FF13CCH   LINE      CODE     ---       #183
      ---         BLOCKEND  ---      ---       LVL=0

      00FF0009H   BLOCK     CODE     ---       LVL=0
      00FF0009H   LINE      CODE     ---       #186
      00FF0009H   LINE      CODE     ---       #188
      ---         BLOCKEND  ---      ---       LVL=0

      00FF0CE3H   BLOCK     CODE     ---       LVL=0
      00FF0CE5H   BLOCK     CODE     NEAR LAB  LVL=1
      R15         REGSYM    ---      BYTE      csr
      ---         BLOCKEND  ---      ---       LVL=1
      00FF0CE3H   LINE      CODE     ---       #190
      00FF0CE5H   LINE      CODE     ---       #191
      00FF0CE5H   LINE      CODE     ---       #194
      00FF0CECH   LINE      CODE     ---       #195
      00FF0CF3H   LINE      CODE     ---       #197
      00FF0CF6H   LINE      CODE     ---       #199
      00FF0D00H   LINE      CODE     ---       #200
      00FF0D05H   LINE      CODE     ---       #201
      00FF0D05H   LINE      CODE     ---       #202
      00FF0D0AH   LINE      CODE     ---       #204
      00FF0D14H   LINE      CODE     ---       #205
      00FF0D14H   LINE      CODE     ---       #207
      00FF0D23H   LINE      CODE     ---       #209
      00FF0D23H   LINE      CODE     ---       #210
      00FF0D28H   LINE      CODE     ---       #212
      00FF0D31H   LINE      CODE     ---       #213
      00FF0D3CH   LINE      CODE     ---       #214
      00FF0D4EH   LINE      CODE     ---       #216
      00FF0D4EH   LINE      CODE     ---       #217
      00FF0D51H   LINE      CODE     ---       #218
      00FF0D53H   LINE      CODE     ---       #219
      00FF0D53H   LINE      CODE     ---       #220
      00FF0D56H   LINE      CODE     ---       #221
      00FF0D58H   LINE      CODE     ---       #222
      00FF0D58H   LINE      CODE     ---       #223
      00FF0D5BH   LINE      CODE     ---       #224
      00FF0D5DH   LINE      CODE     ---       #225
      00FF0D5DH   LINE      CODE     ---       #226
      00FF0D60H   LINE      CODE     ---       #227
      00FF0D62H   LINE      CODE     ---       #228
      00FF0D62H   LINE      CODE     ---       #229
      00FF0D62H   LINE      CODE     ---       #230
      00FF0D62H   LINE      CODE     ---       #231
      00FF0D62H   LINE      CODE     ---       #232
      00FF0D65H   LINE      CODE     ---       #233
      00FF0D67H   LINE      CODE     ---       #234
      00FF0D67H   LINE      CODE     ---       #235
      00FF0D6AH   LINE      CODE     ---       #236
      00FF0D6AH   LINE      CODE     ---       #237
      00FF0D6AH   LINE      CODE     ---       #238
L251 LINKER/LOCATER V4.66.93.0                                                        07/09/2022  13:58:26  PAGE 18


      ---         BLOCKEND  ---      ---       LVL=0

      00FF1A9DH   BLOCK     CODE     ---       LVL=0
      00FF1A9DH   LINE      CODE     ---       #240
      00FF1A9DH   LINE      CODE     ---       #242
      00FF1AA3H   LINE      CODE     ---       #243
      ---         BLOCKEND  ---      ---       LVL=0

      00FF1A70H   BLOCK     CODE     ---       LVL=0
      00FF1A70H   LINE      CODE     ---       #246
      00FF1A70H   LINE      CODE     ---       #248
      00FF1A76H   LINE      CODE     ---       #249
      00FF1A7EH   LINE      CODE     ---       #250
      ---         BLOCKEND  ---      ---       LVL=0

      00FF1A8FH   BLOCK     CODE     ---       LVL=0
      00FF1A8FH   LINE      CODE     ---       #253
      00FF1A8FH   LINE      CODE     ---       #255
      00FF1A95H   LINE      CODE     ---       #256
      ---         BLOCKEND  ---      ---       LVL=0

      00FF1AC6H   BLOCK     CODE     ---       LVL=0
      00FF1AC6H   LINE      CODE     ---       #259
      00FF1AC6H   LINE      CODE     ---       #261
      00FF1ACBH   LINE      CODE     ---       #262
      ---         BLOCKEND  ---      ---       LVL=0

      00FF0EE3H   BLOCK     CODE     ---       LVL=0
      00FF0EE5H   BLOCK     CODE     NEAR LAB  LVL=1
      R11         REGSYM    ---      BYTE      csr
      R15         REGSYM    ---      BYTE      cnt
      ---         BLOCKEND  ---      ---       LVL=1
      00FF0EE3H   LINE      CODE     ---       #265
      00FF0EE5H   LINE      CODE     ---       #266
      00FF0EE5H   LINE      CODE     ---       #270
      00FF0EECH   LINE      CODE     ---       #271
      00FF0EF1H   LINE      CODE     ---       #272
      00FF0EF4H   LINE      CODE     ---       #274
      00FF0F05H   LINE      CODE     ---       #275
      00FF0F10H   LINE      CODE     ---       #276
      00FF0F1CH   LINE      CODE     ---       #277
      00FF0F28H   LINE      CODE     ---       #278
      00FF0F30H   LINE      CODE     ---       #280
      00FF0F38H   LINE      CODE     ---       #281
      00FF0F3DH   LINE      CODE     ---       #282
      00FF0F3FH   LINE      CODE     ---       #285
      00FF0F47H   LINE      CODE     ---       #286
      00FF0F47H   LINE      CODE     ---       #287
      ---         BLOCKEND  ---      ---       LVL=0

      00FF0FA6H   BLOCK     CODE     ---       LVL=0
      R11         REGSYM    ---      BYTE      csr
      R7          REGSYM    ---      BYTE      cnt
      00FF0FA6H   LINE      CODE     ---       #289
      00FF0FA6H   LINE      CODE     ---       #290
      00FF0FA6H   LINE      CODE     ---       #294
      00FF0FADH   LINE      CODE     ---       #295
      00FF0FB2H   LINE      CODE     ---       #296
      00FF0FB5H   LINE      CODE     ---       #298
      00FF0FBEH   LINE      CODE     ---       #299
      00FF0FCAH   LINE      CODE     ---       #300
      00FF0FD4H   LINE      CODE     ---       #301
      00FF0FDCH   LINE      CODE     ---       #303
      00FF0FE4H   LINE      CODE     ---       #304
      00FF0FE9H   LINE      CODE     ---       #306
L251 LINKER/LOCATER V4.66.93.0                                                        07/09/2022  13:58:26  PAGE 19


      00FF0FF0H   LINE      CODE     ---       #307
      00FF0FF2H   LINE      CODE     ---       #308
      00FF0FF3H   LINE      CODE     ---       #311
      00FF0FFBH   LINE      CODE     ---       #312
      00FF0FFBH   LINE      CODE     ---       #313
      ---         BLOCKEND  ---      ---       LVL=0

      00FF1A0FH   BLOCK     CODE     ---       LVL=0
      REG=0       REGSYM    ---      ---       pData
      R7          REGSYM    ---      BYTE      bSize
      R10         REGSYM    ---      BYTE      ep
      00FF1A0FH   LINE      CODE     ---       #315
      00FF1A13H   LINE      CODE     ---       #317
      00FF1A1CH   LINE      CODE     ---       #318
      ---         BLOCKEND  ---      ---       LVL=0

      00FF17A6H   BLOCK     CODE     ---       LVL=0
      REG=0       REGSYM    ---      ---       pData
      R7          REGSYM    ---      BYTE      ep
      00FF17A8H   BLOCK     CODE     NEAR LAB  LVL=1
      R15         REGSYM    ---      BYTE      cnt
      ---         BLOCKEND  ---      ---       LVL=1
      00FF17A6H   LINE      CODE     ---       #321
      00FF17A8H   LINE      CODE     ---       #322
      00FF17A8H   LINE      CODE     ---       #325
      00FF17B3H   LINE      CODE     ---       #326
      00FF17BAH   LINE      CODE     ---       #328
      00FF17BCH   LINE      CODE     ---       #329
      ---         BLOCKEND  ---      ---       LVL=0

      00FF15A6H   BLOCK     CODE     ---       LVL=0
      00FF15A8H   BLOCK     CODE     NEAR LAB  LVL=1
      R15         REGSYM    ---      BYTE      csr
      ---         BLOCKEND  ---      ---       LVL=1
      00FF15A6H   LINE      CODE     ---       #332
      00FF15A8H   LINE      CODE     ---       #333
      00FF15A8H   LINE      CODE     ---       #336
      00FF15B0H   LINE      CODE     ---       #337
      00FF15B7H   LINE      CODE     ---       #338
      00FF15BAH   LINE      CODE     ---       #340
      00FF15C2H   LINE      CODE     ---       #341
      00FF15C2H   LINE      CODE     ---       #342
      00FF15C7H   LINE      CODE     ---       #344
      00FF15CEH   LINE      CODE     ---       #345
      00FF15CEH   LINE      CODE     ---       #346
      00FF15D0H   LINE      CODE     ---       #347
      ---         BLOCKEND  ---      ---       LVL=0

      00FF0DEDH   BLOCK     CODE     ---       LVL=0
      00FF0DEFH   BLOCK     CODE     NEAR LAB  LVL=1
      R15         REGSYM    ---      BYTE      csr
      ---         BLOCKEND  ---      ---       LVL=1
      00FF0DEDH   LINE      CODE     ---       #423
      00FF0DEFH   LINE      CODE     ---       #424
      00FF0DEFH   LINE      CODE     ---       #427
      00FF0DF7H   LINE      CODE     ---       #428
      00FF0DFEH   LINE      CODE     ---       #429
      00FF0E01H   LINE      CODE     ---       #431
      00FF0E09H   LINE      CODE     ---       #432
      00FF0E09H   LINE      CODE     ---       #433
      00FF0E0EH   LINE      CODE     ---       #435
      00FF0E1BH   LINE      CODE     ---       #436
      00FF0E28H   LINE      CODE     ---       #438
      00FF0E32H   LINE      CODE     ---       #440
      00FF0E3FH   LINE      CODE     ---       #442
L251 LINKER/LOCATER V4.66.93.0                                                        07/09/2022  13:58:26  PAGE 20


      00FF0E46H   LINE      CODE     ---       #444
      00FF0E49H   LINE      CODE     ---       #445
      00FF0E4CH   LINE      CODE     ---       #446
      00FF0E58H   LINE      CODE     ---       #448
      00FF0E5FH   LINE      CODE     ---       #450
      00FF0E62H   LINE      CODE     ---       #451
      00FF0E64H   LINE      CODE     ---       #452
      00FF0E64H   LINE      CODE     ---       #455
      00FF0E66H   LINE      CODE     ---       #457
      ---         BLOCKEND  ---      ---       LVL=0

      00FF1627H   BLOCK     CODE     ---       LVL=0
      00FF1627H   LINE      CODE     ---       #534
      00FF1627H   LINE      CODE     ---       #536
      00FF162AH   LINE      CODE     ---       #538
      00FF1632H   LINE      CODE     ---       #539
      00FF163AH   LINE      CODE     ---       #540
      00FF164AH   LINE      CODE     ---       #541
      00FF164CH   LINE      CODE     ---       #543
      00FF164FH   LINE      CODE     ---       #544
      ---         BLOCKEND  ---      ---       LVL=0

      00FF180AH   BLOCK     CODE     ---       LVL=0
      00FF180AH   LINE      CODE     ---       #546
      00FF180AH   LINE      CODE     ---       #548
      00FF180DH   LINE      CODE     ---       #550
      00FF1815H   LINE      CODE     ---       #551
      00FF181CH   LINE      CODE     ---       #552
      00FF181EH   LINE      CODE     ---       #554
      00FF1821H   LINE      CODE     ---       #555
      ---         BLOCKEND  ---      ---       LVL=0

      ---         MODULE    ---      ---       usb_req_class
      00FF0003H   PUBLIC    CODE     ---       usb_get_protocol
      00FF0006H   PUBLIC    CODE     ---       usb_set_protocol
      00FF16A1H   PUBLIC    CODE     ---       usb_get_idle
      00FF15D3H   PUBLIC    CODE     ---       usb_get_report
      00FF1578H   PUBLIC    CODE     ---       usb_req_class
      00FF176EH   PUBLIC    CODE     ---       usb_set_idle
      00FF15FDH   PUBLIC    CODE     ---       usb_set_report
      0000001FH   PUBLIC    EDATA    BYTE      bHidIdle
      000000D0H   SFRSYM    DATA     BYTE      PSW
      0000009DH   SFRSYM    DATA     BYTE      IRCBAND
      00000097H   SFRSYM    DATA     BYTE      AUXR2
      000000EFH   SFRSYM    DATA     BYTE      AUXINTIF
      000000FDH   SFRSYM    DATA     BYTE      S4CON
      000000ACH   SFRSYM    DATA     BYTE      S3CON
      0000009AH   SFRSYM    DATA     BYTE      S2CON
      000000B7H   SFRSYM    DATA     BYTE      IPH
      000000CDH   SFRSYM    DATA     BYTE      SPSTAT
      000000DDH   SFRSYM    DATA     BYTE      T4T3M
      000000C1H   SFRSYM    DATA     BYTE      WDT_CONTR
      000000DFH   SFRSYM    DATA     BYTE      IP3
      000000F4H   SFRSYM    DATA     BYTE      USBCON
      000000B5H   SFRSYM    DATA     BYTE      IP2
      000000FFH   SFRSYM    DATA     BYTE      RSTCFG
      000000F9H   SFRSYM    DATA     BYTE      LINICR
      0000008EH   SFRSYM    DATA     BYTE      AUXR
      000000AFH   SFRSYM    DATA     BYTE      IE2
      00000088H   SFRSYM    DATA     BYTE      TCON
      00000098H   SFRSYM    DATA     BYTE      SCON
      000000F1H   SFRSYM    DATA     BYTE      CANICR
      00000087H   SFRSYM    DATA     BYTE      PCON
      000000BCH   SFRSYM    DATA     BYTE      ADC_CONTR
      000000E7H   SFRSYM    DATA     BYTE      CMPCR2
L251 LINKER/LOCATER V4.66.93.0                                                        07/09/2022  13:58:26  PAGE 21


      000000E6H   SFRSYM    DATA     BYTE      CMPCR1
      000000B8H   SFRSYM    DATA     BYTE      IP
      0000008FH   SFRSYM    DATA     BYTE      INTCLKO
      000000EEH   SFRSYM    DATA     BYTE      IP3H
      000000B6H   SFRSYM    DATA     BYTE      IP2H
      000000A8H   SFRSYM    DATA     BYTE      IE
      000000BBH   SFRSYM    DATA     BYTE      P_SW3
      000000BAH   SFRSYM    DATA     BYTE      P_SW2
      000000A2H   SFRSYM    DATA     BYTE      P_SW1
      000000CEH   SFRSYM    DATA     BYTE      SPCTL
      000000F8H   SFRSYM    DATA     BYTE      P7
      000000E8H   SFRSYM    DATA     BYTE      P6
      000000C8H   SFRSYM    DATA     BYTE      P5
      000000C0H   SFRSYM    DATA     BYTE      P4
      000000B0H   SFRSYM    DATA     BYTE      P3
      000000A0H   SFRSYM    DATA     BYTE      P2
      00000090H   SFRSYM    DATA     BYTE      P1
      00000080H   SFRSYM    DATA     BYTE      P0

      00FF1578H   BLOCK     CODE     ---       LVL=0
      00FF1578H   LINE      CODE     ---       #7
      00FF1578H   LINE      CODE     ---       #9
      00FF1591H   LINE      CODE     ---       #11
      00FF1591H   LINE      CODE     ---       #12
      00FF1594H   LINE      CODE     ---       #13
      00FF1594H   LINE      CODE     ---       #14
      00FF1594H   LINE      CODE     ---       #15
      00FF1597H   LINE      CODE     ---       #16
      00FF1597H   LINE      CODE     ---       #17
      00FF1597H   LINE      CODE     ---       #18
      00FF159AH   LINE      CODE     ---       #19
      00FF159AH   LINE      CODE     ---       #20
      00FF159AH   LINE      CODE     ---       #21
      00FF159DH   LINE      CODE     ---       #22
      00FF159DH   LINE      CODE     ---       #23
      00FF159DH   LINE      CODE     ---       #24
      00FF15A0H   LINE      CODE     ---       #25
      00FF15A0H   LINE      CODE     ---       #26
      00FF15A0H   LINE      CODE     ---       #27
      00FF15A3H   LINE      CODE     ---       #28
      00FF15A3H   LINE      CODE     ---       #29
      00FF15A3H   LINE      CODE     ---       #30
      00FF15A6H   LINE      CODE     ---       #31
      00FF15A6H   LINE      CODE     ---       #32
      00FF15A6H   LINE      CODE     ---       #33
      ---         BLOCKEND  ---      ---       LVL=0

      00FF15D3H   BLOCK     CODE     ---       LVL=0
      00FF15D3H   LINE      CODE     ---       #35
      00FF15D3H   LINE      CODE     ---       #37
      00FF15E3H   LINE      CODE     ---       #40
      00FF15E6H   LINE      CODE     ---       #41
      00FF15E6H   LINE      CODE     ---       #42
      00FF15E6H   LINE      CODE     ---       #44
      00FF15F2H   LINE      CODE     ---       #45
      00FF15FAH   LINE      CODE     ---       #47
      00FF15FDH   LINE      CODE     ---       #48
      ---         BLOCKEND  ---      ---       LVL=0

      00FF15FDH   BLOCK     CODE     ---       LVL=0
      00FF15FDH   LINE      CODE     ---       #50
      00FF15FDH   LINE      CODE     ---       #52
      00FF160DH   LINE      CODE     ---       #55
      00FF1610H   LINE      CODE     ---       #56
      00FF1610H   LINE      CODE     ---       #57
L251 LINKER/LOCATER V4.66.93.0                                                        07/09/2022  13:58:26  PAGE 22


      00FF1610H   LINE      CODE     ---       #59
      00FF161CH   LINE      CODE     ---       #60
      00FF1624H   LINE      CODE     ---       #62
      00FF1627H   LINE      CODE     ---       #63
      ---         BLOCKEND  ---      ---       LVL=0

      00FF16A1H   BLOCK     CODE     ---       LVL=0
      00FF16A1H   LINE      CODE     ---       #65
      00FF16A1H   LINE      CODE     ---       #67
      00FF16B1H   LINE      CODE     ---       #70
      00FF16B4H   LINE      CODE     ---       #71
      00FF16B4H   LINE      CODE     ---       #72
      00FF16B4H   LINE      CODE     ---       #74
      00FF16BCH   LINE      CODE     ---       #75
      00FF16C4H   LINE      CODE     ---       #77
      00FF16C7H   LINE      CODE     ---       #78
      ---         BLOCKEND  ---      ---       LVL=0

      00FF176EH   BLOCK     CODE     ---       LVL=0
      00FF176EH   LINE      CODE     ---       #80
      00FF176EH   LINE      CODE     ---       #82
      00FF177EH   LINE      CODE     ---       #85
      00FF1781H   LINE      CODE     ---       #86
      00FF1781H   LINE      CODE     ---       #87
      00FF1781H   LINE      CODE     ---       #89
      00FF1789H   LINE      CODE     ---       #91
      00FF178CH   LINE      CODE     ---       #92
      ---         BLOCKEND  ---      ---       LVL=0

      00FF0003H   BLOCK     CODE     ---       LVL=0
      00FF0003H   LINE      CODE     ---       #94
      00FF0003H   LINE      CODE     ---       #96
      ---         BLOCKEND  ---      ---       LVL=0

      00FF0006H   BLOCK     CODE     ---       LVL=0
      00FF0006H   LINE      CODE     ---       #99
      00FF0006H   LINE      CODE     ---       #101
      ---         BLOCKEND  ---      ---       LVL=0

      ---         MODULE    ---      ---       usb_req_std
      00FF11B6H   PUBLIC    CODE     ---       usb_get_interface
      00FF000EH   PUBLIC    CODE     ---       usb_clear_feature
      00FF1679H   PUBLIC    CODE     ---       usb_set_interface
      00FF0918H   PUBLIC    CODE     ---       usb_get_descriptor
      00FF1AD3H   PUBLIC    CODE     ---       usb_set_descriptor
      00FF0F4AH   PUBLIC    CODE     ---       usb_req_std
      00FF1AD6H   PUBLIC    CODE     ---       usb_synch_frame
      00FF10E8H   PUBLIC    CODE     ---       usb_set_address
      00FF0AA3H   PUBLIC    CODE     ---       usb_set_feature
      00FF0FFCH   PUBLIC    CODE     ---       usb_get_configuration
      00FF0C56H   PUBLIC    CODE     ---       usb_set_configuration
      00FF0819H   PUBLIC    CODE     ---       usb_get_status
      000000D0H   SFRSYM    DATA     BYTE      PSW
      0000009DH   SFRSYM    DATA     BYTE      IRCBAND
      00000097H   SFRSYM    DATA     BYTE      AUXR2
      000000EFH   SFRSYM    DATA     BYTE      AUXINTIF
      000000FDH   SFRSYM    DATA     BYTE      S4CON
      000000ACH   SFRSYM    DATA     BYTE      S3CON
      0000009AH   SFRSYM    DATA     BYTE      S2CON
      000000B7H   SFRSYM    DATA     BYTE      IPH
      000000CDH   SFRSYM    DATA     BYTE      SPSTAT
      000000DDH   SFRSYM    DATA     BYTE      T4T3M
      000000C1H   SFRSYM    DATA     BYTE      WDT_CONTR
      000000DFH   SFRSYM    DATA     BYTE      IP3
      000000F4H   SFRSYM    DATA     BYTE      USBCON
L251 LINKER/LOCATER V4.66.93.0                                                        07/09/2022  13:58:26  PAGE 23


      000000B5H   SFRSYM    DATA     BYTE      IP2
      000000FFH   SFRSYM    DATA     BYTE      RSTCFG
      000000F9H   SFRSYM    DATA     BYTE      LINICR
      0000008EH   SFRSYM    DATA     BYTE      AUXR
      000000AFH   SFRSYM    DATA     BYTE      IE2
      00000088H   SFRSYM    DATA     BYTE      TCON
      00000098H   SFRSYM    DATA     BYTE      SCON
      000000F1H   SFRSYM    DATA     BYTE      CANICR
      00000087H   SFRSYM    DATA     BYTE      PCON
      000000BCH   SFRSYM    DATA     BYTE      ADC_CONTR
      000000E7H   SFRSYM    DATA     BYTE      CMPCR2
      000000E6H   SFRSYM    DATA     BYTE      CMPCR1
      000000B8H   SFRSYM    DATA     BYTE      IP
      0000008FH   SFRSYM    DATA     BYTE      INTCLKO
      000000EEH   SFRSYM    DATA     BYTE      IP3H
      000000B6H   SFRSYM    DATA     BYTE      IP2H
      000000A8H   SFRSYM    DATA     BYTE      IE
      000000BBH   SFRSYM    DATA     BYTE      P_SW3
      000000BAH   SFRSYM    DATA     BYTE      P_SW2
      000000A2H   SFRSYM    DATA     BYTE      P_SW1
      000000CEH   SFRSYM    DATA     BYTE      SPCTL
      000000F8H   SFRSYM    DATA     BYTE      P7
      000000E8H   SFRSYM    DATA     BYTE      P6
      000000C8H   SFRSYM    DATA     BYTE      P5
      000000C0H   SFRSYM    DATA     BYTE      P4
      000000B0H   SFRSYM    DATA     BYTE      P3
      000000A0H   SFRSYM    DATA     BYTE      P2
      00000090H   SFRSYM    DATA     BYTE      P1
      00000080H   SFRSYM    DATA     BYTE      P0

      00FF0F4AH   BLOCK     CODE     ---       LVL=0
      00FF0F4AH   LINE      CODE     ---       #7
      00FF0F4AH   LINE      CODE     ---       #9
      00FF0F82H   LINE      CODE     ---       #11
      00FF0F82H   LINE      CODE     ---       #12
      00FF0F85H   LINE      CODE     ---       #13
      00FF0F85H   LINE      CODE     ---       #14
      00FF0F85H   LINE      CODE     ---       #15
      00FF0F88H   LINE      CODE     ---       #16
      00FF0F88H   LINE      CODE     ---       #17
      00FF0F88H   LINE      CODE     ---       #18
      00FF0F8BH   LINE      CODE     ---       #19
      00FF0F8BH   LINE      CODE     ---       #20
      00FF0F8BH   LINE      CODE     ---       #21
      00FF0F8EH   LINE      CODE     ---       #22
      00FF0F8EH   LINE      CODE     ---       #23
      00FF0F8EH   LINE      CODE     ---       #24
      00FF0F91H   LINE      CODE     ---       #25
      00FF0F91H   LINE      CODE     ---       #26
      00FF0F91H   LINE      CODE     ---       #27
      00FF0F94H   LINE      CODE     ---       #28
      00FF0F94H   LINE      CODE     ---       #29
      00FF0F94H   LINE      CODE     ---       #30
      00FF0F97H   LINE      CODE     ---       #31
      00FF0F97H   LINE      CODE     ---       #32
      00FF0F97H   LINE      CODE     ---       #33
      00FF0F9AH   LINE      CODE     ---       #34
      00FF0F9AH   LINE      CODE     ---       #35
      00FF0F9AH   LINE      CODE     ---       #36
      00FF0F9DH   LINE      CODE     ---       #37
      00FF0F9DH   LINE      CODE     ---       #38
      00FF0F9DH   LINE      CODE     ---       #39
      00FF0FA0H   LINE      CODE     ---       #40
      00FF0FA0H   LINE      CODE     ---       #41
      00FF0FA0H   LINE      CODE     ---       #42
L251 LINKER/LOCATER V4.66.93.0                                                        07/09/2022  13:58:26  PAGE 24


      00FF0FA3H   LINE      CODE     ---       #43
      00FF0FA3H   LINE      CODE     ---       #44
      00FF0FA3H   LINE      CODE     ---       #45
      00FF0FA6H   LINE      CODE     ---       #46
      00FF0FA6H   LINE      CODE     ---       #47
      00FF0FA6H   LINE      CODE     ---       #48
      ---         BLOCKEND  ---      ---       LVL=0

      00FF0819H   BLOCK     CODE     ---       LVL=0
      00FF081BH   BLOCK     CODE     NEAR LAB  LVL=1
      R10         REGSYM    ---      BYTE      ep
      ---         BLOCKEND  ---      ---       LVL=1
      00FF0819H   LINE      CODE     ---       #50
      00FF081BH   LINE      CODE     ---       #51
      00FF081BH   LINE      CODE     ---       #54
      00FF083CH   LINE      CODE     ---       #59
      00FF083CH   LINE      CODE     ---       #60
      00FF083FH   LINE      CODE     ---       #61
      00FF083FH   LINE      CODE     ---       #63
      00FF0850H   LINE      CODE     ---       #65
      00FF0850H   LINE      CODE     ---       #66
      00FF085CH   LINE      CODE     ---       #69
      00FF085CH   LINE      CODE     ---       #70
      00FF085FH   LINE      CODE     ---       #71
      00FF085FH   LINE      CODE     ---       #74
      00FF085FH   LINE      CODE     ---       #75
      00FF085FH   LINE      CODE     ---       #76
      00FF085FH   LINE      CODE     ---       #77
      00FF0861H   LINE      CODE     ---       #78
      00FF0861H   LINE      CODE     ---       #79
      00FF0877H   LINE      CODE     ---       #83
      00FF0877H   LINE      CODE     ---       #84
      00FF087AH   LINE      CODE     ---       #85
      00FF087AH   LINE      CODE     ---       #88
      00FF0882H   LINE      CODE     ---       #89
      00FF0882H   LINE      CODE     ---       #90
      00FF0882H   LINE      CODE     ---       #91
      00FF0884H   LINE      CODE     ---       #92
      00FF0884H   LINE      CODE     ---       #93
      00FF0891H   LINE      CODE     ---       #96
      00FF0891H   LINE      CODE     ---       #97
      00FF0893H   LINE      CODE     ---       #98
      00FF0893H   LINE      CODE     ---       #101
      00FF089CH   LINE      CODE     ---       #102
      00FF08A5H   LINE      CODE     ---       #105
      00FF08A5H   LINE      CODE     ---       #120
      00FF08BEH   LINE      CODE     ---       #122
      00FF08C6H   LINE      CODE     ---       #123
      00FF08C6H   LINE      CODE     ---       #124
      00FF08C8H   LINE      CODE     ---       #127
      00FF08D0H   LINE      CODE     ---       #128
      00FF08D0H   LINE      CODE     ---       #129
      00FF08D0H   LINE      CODE     ---       #130
      00FF08D2H   LINE      CODE     ---       #133
      00FF08D2H   LINE      CODE     ---       #148
      00FF08EBH   LINE      CODE     ---       #150
      00FF08F3H   LINE      CODE     ---       #151
      00FF08F3H   LINE      CODE     ---       #152
      00FF08F5H   LINE      CODE     ---       #155
      00FF0901H   LINE      CODE     ---       #156
      00FF0909H   LINE      CODE     ---       #157
      00FF0909H   LINE      CODE     ---       #158
      00FF090BH   LINE      CODE     ---       #160
      00FF090BH   LINE      CODE     ---       #161
      00FF090BH   LINE      CODE     ---       #162
L251 LINKER/LOCATER V4.66.93.0                                                        07/09/2022  13:58:26  PAGE 25


      00FF090DH   LINE      CODE     ---       #163
      00FF090DH   LINE      CODE     ---       #164
      00FF090DH   LINE      CODE     ---       #165
      00FF090DH   LINE      CODE     ---       #166
      00FF090DH   LINE      CODE     ---       #167
      00FF0910H   LINE      CODE     ---       #168
      00FF0912H   LINE      CODE     ---       #169
      00FF0912H   LINE      CODE     ---       #171
      00FF0915H   LINE      CODE     ---       #172
      ---         BLOCKEND  ---      ---       LVL=0

      00FF000EH   BLOCK     CODE     ---       LVL=0
      R7          REGSYM    ---      BYTE      ep
      00FF000EH   LINE      CODE     ---       #174
      00FF000EH   LINE      CODE     ---       #175
      00FF000EH   LINE      CODE     ---       #178
      00FF0039H   LINE      CODE     ---       #185
      00FF0039H   LINE      CODE     ---       #186
      00FF003BH   LINE      CODE     ---       #187
      00FF003BH   LINE      CODE     ---       #189
      00FF0044H   LINE      CODE     ---       #190
      00FF004DH   LINE      CODE     ---       #193
      00FF004DH   LINE      CODE     ---       #208
      00FF0067H   LINE      CODE     ---       #209
      00FF006CH   LINE      CODE     ---       #210
      00FF0071H   LINE      CODE     ---       #211
      00FF0071H   LINE      CODE     ---       #212
      00FF0073H   LINE      CODE     ---       #215
      00FF0073H   LINE      CODE     ---       #230
      00FF008DH   LINE      CODE     ---       #231
      00FF0092H   LINE      CODE     ---       #232
      00FF009AH   LINE      CODE     ---       #233
      00FF00A1H   LINE      CODE     ---       #234
      00FF00A3H   LINE      CODE     ---       #236
      00FF00A3H   LINE      CODE     ---       #237
      00FF00A6H   LINE      CODE     ---       #238
      00FF00A6H   LINE      CODE     ---       #239
      00FF00A6H   LINE      CODE     ---       #241
      00FF00A9H   LINE      CODE     ---       #242
      ---         BLOCKEND  ---      ---       LVL=0

      00FF0AA3H   BLOCK     CODE     ---       LVL=0
      R7          REGSYM    ---      BYTE      ep
      00FF0AA3H   LINE      CODE     ---       #244
      00FF0AA3H   LINE      CODE     ---       #245
      00FF0AA3H   LINE      CODE     ---       #248
      00FF0ACEH   LINE      CODE     ---       #255
      00FF0ACEH   LINE      CODE     ---       #256
      00FF0AD0H   LINE      CODE     ---       #257
      00FF0AD0H   LINE      CODE     ---       #259
      00FF0AD9H   LINE      CODE     ---       #260
      00FF0AE2H   LINE      CODE     ---       #263
      00FF0AE2H   LINE      CODE     ---       #278
      00FF0AF9H   LINE      CODE     ---       #279
      00FF0AFEH   LINE      CODE     ---       #280
      00FF0B03H   LINE      CODE     ---       #281
      00FF0B03H   LINE      CODE     ---       #282
      00FF0B05H   LINE      CODE     ---       #285
      00FF0B05H   LINE      CODE     ---       #300
      00FF0B1CH   LINE      CODE     ---       #301
      00FF0B21H   LINE      CODE     ---       #302
      00FF0B29H   LINE      CODE     ---       #303
      00FF0B30H   LINE      CODE     ---       #304
      00FF0B32H   LINE      CODE     ---       #306
      00FF0B32H   LINE      CODE     ---       #307
L251 LINKER/LOCATER V4.66.93.0                                                        07/09/2022  13:58:26  PAGE 26


      00FF0B35H   LINE      CODE     ---       #308
      00FF0B35H   LINE      CODE     ---       #309
      00FF0B35H   LINE      CODE     ---       #311
      00FF0B38H   LINE      CODE     ---       #312
      ---         BLOCKEND  ---      ---       LVL=0

      00FF10E8H   BLOCK     CODE     ---       LVL=0
      00FF10EAH   BLOCK     CODE     NEAR LAB  LVL=1
      R15         REGSYM    ---      BYTE      addr
      ---         BLOCKEND  ---      ---       LVL=1
      00FF10E8H   LINE      CODE     ---       #314
      00FF10EAH   LINE      CODE     ---       #315
      00FF10EAH   LINE      CODE     ---       #318
      00FF1113H   LINE      CODE     ---       #325
      00FF1116H   LINE      CODE     ---       #326
      00FF1118H   LINE      CODE     ---       #327
      00FF1118H   LINE      CODE     ---       #329
      00FF1118H   LINE      CODE     ---       #330
      00FF111EH   LINE      CODE     ---       #331
      00FF1122H   LINE      CODE     ---       #333
      00FF1124H   LINE      CODE     ---       #334
      00FF1126H   LINE      CODE     ---       #337
      00FF112CH   LINE      CODE     ---       #338
      00FF112CH   LINE      CODE     ---       #340
      00FF112FH   LINE      CODE     ---       #341
      ---         BLOCKEND  ---      ---       LVL=0

      00FF0918H   BLOCK     CODE     ---       LVL=0
      00FF0918H   LINE      CODE     ---       #343
      00FF0918H   LINE      CODE     ---       #345
      00FF0923H   LINE      CODE     ---       #347
      00FF0923H   LINE      CODE     ---       #348
      00FF0926H   LINE      CODE     ---       #349
      00FF0926H   LINE      CODE     ---       #351
      00FF093FH   LINE      CODE     ---       #353
      00FF093FH   LINE      CODE     ---       #354
      00FF0949H   LINE      CODE     ---       #356
      00FF0949H   LINE      CODE     ---       #357
      00FF0949H   LINE      CODE     ---       #358
      00FF094BH   LINE      CODE     ---       #361
      00FF0957H   LINE      CODE     ---       #362
      00FF095BH   LINE      CODE     ---       #363
      00FF095BH   LINE      CODE     ---       #364
      00FF095DH   LINE      CODE     ---       #365
      00FF095DH   LINE      CODE     ---       #366
      00FF0969H   LINE      CODE     ---       #367
      00FF096DH   LINE      CODE     ---       #368
      00FF096FH   LINE      CODE     ---       #369
      00FF096FH   LINE      CODE     ---       #370
      00FF097DH   LINE      CODE     ---       #372
      00FF097DH   LINE      CODE     ---       #373
      00FF0989H   LINE      CODE     ---       #374
      00FF098DH   LINE      CODE     ---       #375
      00FF098FH   LINE      CODE     ---       #376
      00FF098FH   LINE      CODE     ---       #377
      00FF099BH   LINE      CODE     ---       #378
      00FF099FH   LINE      CODE     ---       #379
      00FF09A1H   LINE      CODE     ---       #380
      00FF09A1H   LINE      CODE     ---       #381
      00FF09ABH   LINE      CODE     ---       #383
      00FF09AFH   LINE      CODE     ---       #384
      00FF09B4H   LINE      CODE     ---       #385
      00FF09B6H   LINE      CODE     ---       #388
      00FF09C2H   LINE      CODE     ---       #389
      00FF09C6H   LINE      CODE     ---       #390
L251 LINKER/LOCATER V4.66.93.0                                                        07/09/2022  13:58:26  PAGE 27


      00FF09C6H   LINE      CODE     ---       #391
      00FF09C8H   LINE      CODE     ---       #392
      00FF09C8H   LINE      CODE     ---       #393
      00FF09C8H   LINE      CODE     ---       #394
      00FF09CAH   LINE      CODE     ---       #395
      00FF09CAH   LINE      CODE     ---       #396
      00FF09CAH   LINE      CODE     ---       #397
      00FF09CAH   LINE      CODE     ---       #398
      00FF09D6H   LINE      CODE     ---       #399
      00FF09DEH   LINE      CODE     ---       #400
      00FF09E0H   LINE      CODE     ---       #401
      00FF09E0H   LINE      CODE     ---       #402
      00FF09E3H   LINE      CODE     ---       #403
      00FF09E3H   LINE      CODE     ---       #404
      00FF09E3H   LINE      CODE     ---       #406
      00FF09EDH   LINE      CODE     ---       #408
      00FF09F1H   LINE      CODE     ---       #409
      00FF09F1H   LINE      CODE     ---       #411
      00FF09F4H   LINE      CODE     ---       #412
      ---         BLOCKEND  ---      ---       LVL=0

      00FF1AD3H   BLOCK     CODE     ---       LVL=0
      00FF1AD3H   LINE      CODE     ---       #414
      00FF1AD3H   LINE      CODE     ---       #416
      ---         BLOCKEND  ---      ---       LVL=0

      00FF0FFCH   BLOCK     CODE     ---       LVL=0
      00FF0FFCH   LINE      CODE     ---       #419
      00FF0FFCH   LINE      CODE     ---       #421
      00FF1025H   LINE      CODE     ---       #428
      00FF1028H   LINE      CODE     ---       #429
      00FF1028H   LINE      CODE     ---       #430
      00FF1028H   LINE      CODE     ---       #432
      00FF102FH   LINE      CODE     ---       #434
      00FF1037H   LINE      CODE     ---       #435
      00FF1037H   LINE      CODE     ---       #436
      00FF1039H   LINE      CODE     ---       #439
      00FF1045H   LINE      CODE     ---       #440
      00FF104DH   LINE      CODE     ---       #441
      00FF104DH   LINE      CODE     ---       #443
      00FF1050H   LINE      CODE     ---       #444
      ---         BLOCKEND  ---      ---       LVL=0

      00FF0C56H   BLOCK     CODE     ---       LVL=0
      00FF0C56H   LINE      CODE     ---       #446
      00FF0C56H   LINE      CODE     ---       #448
      00FF0C7FH   LINE      CODE     ---       #455
      00FF0C82H   LINE      CODE     ---       #456
      00FF0C82H   LINE      CODE     ---       #457
      00FF0C82H   LINE      CODE     ---       #459
      00FF0C89H   LINE      CODE     ---       #461
      00FF0C8FH   LINE      CODE     ---       #462
      00FF0C94H   LINE      CODE     ---       #463
      00FF0C98H   LINE      CODE     ---       #465
      00FF0CA0H   LINE      CODE     ---       #466
      00FF0CA8H   LINE      CODE     ---       #467
      00FF0CB0H   LINE      CODE     ---       #490
      00FF0CB8H   LINE      CODE     ---       #491
      00FF0CBFH   LINE      CODE     ---       #492
      00FF0CC7H   LINE      CODE     ---       #514
      00FF0CCEH   LINE      CODE     ---       #515
      00FF0CD0H   LINE      CODE     ---       #518
      00FF0CD6H   LINE      CODE     ---       #519
      00FF0CDCH   LINE      CODE     ---       #520
      00FF0CE0H   LINE      CODE     ---       #521
L251 LINKER/LOCATER V4.66.93.0                                                        07/09/2022  13:58:26  PAGE 28


      00FF0CE0H   LINE      CODE     ---       #523
      00FF0CE3H   LINE      CODE     ---       #524
      ---         BLOCKEND  ---      ---       LVL=0

      00FF11B6H   BLOCK     CODE     ---       LVL=0
      00FF11B6H   LINE      CODE     ---       #526
      00FF11B6H   LINE      CODE     ---       #528
      00FF11DAH   LINE      CODE     ---       #534
      00FF11DDH   LINE      CODE     ---       #535
      00FF11DDH   LINE      CODE     ---       #536
      00FF11DDH   LINE      CODE     ---       #538
      00FF11E9H   LINE      CODE     ---       #539
      00FF11F1H   LINE      CODE     ---       #541
      00FF11F4H   LINE      CODE     ---       #542
      ---         BLOCKEND  ---      ---       LVL=0

      00FF1679H   BLOCK     CODE     ---       LVL=0
      00FF1679H   LINE      CODE     ---       #544
      00FF1679H   LINE      CODE     ---       #546
      00FF169BH   LINE      CODE     ---       #552
      00FF169EH   LINE      CODE     ---       #553
      00FF169EH   LINE      CODE     ---       #554
      00FF169EH   LINE      CODE     ---       #556
      00FF16A1H   LINE      CODE     ---       #557
      ---         BLOCKEND  ---      ---       LVL=0

      00FF1AD6H   BLOCK     CODE     ---       LVL=0
      00FF1AD6H   LINE      CODE     ---       #559
      00FF1AD6H   LINE      CODE     ---       #561
      ---         BLOCKEND  ---      ---       LVL=0

      ---         MODULE    ---      ---       usb_req_vendor
      00FF1AD9H   PUBLIC    CODE     ---       usb_req_vendor
      000000D0H   SFRSYM    DATA     BYTE      PSW
      0000009DH   SFRSYM    DATA     BYTE      IRCBAND
      00000097H   SFRSYM    DATA     BYTE      AUXR2
      000000EFH   SFRSYM    DATA     BYTE      AUXINTIF
      000000FDH   SFRSYM    DATA     BYTE      S4CON
      000000ACH   SFRSYM    DATA     BYTE      S3CON
      0000009AH   SFRSYM    DATA     BYTE      S2CON
      000000B7H   SFRSYM    DATA     BYTE      IPH
      000000CDH   SFRSYM    DATA     BYTE      SPSTAT
      000000DDH   SFRSYM    DATA     BYTE      T4T3M
      000000C1H   SFRSYM    DATA     BYTE      WDT_CONTR
      000000DFH   SFRSYM    DATA     BYTE      IP3
      000000F4H   SFRSYM    DATA     BYTE      USBCON
      000000B5H   SFRSYM    DATA     BYTE      IP2
      000000FFH   SFRSYM    DATA     BYTE      RSTCFG
      000000F9H   SFRSYM    DATA     BYTE      LINICR
      0000008EH   SFRSYM    DATA     BYTE      AUXR
      000000AFH   SFRSYM    DATA     BYTE      IE2
      00000088H   SFRSYM    DATA     BYTE      TCON
      00000098H   SFRSYM    DATA     BYTE      SCON
      000000F1H   SFRSYM    DATA     BYTE      CANICR
      00000087H   SFRSYM    DATA     BYTE      PCON
      000000BCH   SFRSYM    DATA     BYTE      ADC_CONTR
      000000E7H   SFRSYM    DATA     BYTE      CMPCR2
      000000E6H   SFRSYM    DATA     BYTE      CMPCR1
      000000B8H   SFRSYM    DATA     BYTE      IP
      0000008FH   SFRSYM    DATA     BYTE      INTCLKO
      000000EEH   SFRSYM    DATA     BYTE      IP3H
      000000B6H   SFRSYM    DATA     BYTE      IP2H
      000000A8H   SFRSYM    DATA     BYTE      IE
      000000BBH   SFRSYM    DATA     BYTE      P_SW3
      000000BAH   SFRSYM    DATA     BYTE      P_SW2
L251 LINKER/LOCATER V4.66.93.0                                                        07/09/2022  13:58:26  PAGE 29


      000000A2H   SFRSYM    DATA     BYTE      P_SW1
      000000CEH   SFRSYM    DATA     BYTE      SPCTL
      000000F8H   SFRSYM    DATA     BYTE      P7
      000000E8H   SFRSYM    DATA     BYTE      P6
      000000C8H   SFRSYM    DATA     BYTE      P5
      000000C0H   SFRSYM    DATA     BYTE      P4
      000000B0H   SFRSYM    DATA     BYTE      P3
      000000A0H   SFRSYM    DATA     BYTE      P2
      00000090H   SFRSYM    DATA     BYTE      P1
      00000080H   SFRSYM    DATA     BYTE      P0

      00FF1AD9H   BLOCK     CODE     ---       LVL=0
      00FF1AD9H   LINE      CODE     ---       #5
      00FF1AD9H   LINE      CODE     ---       #7
      ---         BLOCKEND  ---      ---       LVL=0

      ---         MODULE    ---      ---       util
      00FF1A4CH   PUBLIC    CODE     ---       LCD12864_DisplayClear
      00FF13D3H   PUBLIC    CODE     ---       OLED12864_ScrollRight
      00FF192AH   PUBLIC    CODE     ---       OLED12864_DisplayOff
      00FF1443H   PUBLIC    CODE     ---       OLED12864_ScrollLeft
      00FF1711H   PUBLIC    CODE     ---       OLED12864_SetAddressMode
      00FF1730H   PUBLIC    CODE     ---       OLED12864_SetContrast
      00FF1941H   PUBLIC    CODE     ---       LCD12864_AutoWrapOff
      00FF11F4H   PUBLIC    CODE     ---       OLED12864_ShowPicture
      00FF1822H   PUBLIC    CODE     ---       OLED12864_ScrollStart
      00FF1518H   PUBLIC    CODE     ---       SEG7_ShowFloat
      00FF1132H   PUBLIC    CODE     ---       SEG7_ShowString
      00FF14E5H   PUBLIC    CODE     ---       SEG7_ShowCode
      00FF1232H   PUBLIC    CODE     ---       LED40_SendData
      00FF183AH   PUBLIC    CODE     ---       OLED12864_DisplayOn
      00FF174FH   PUBLIC    CODE     ---       LCD12864_ReverseLine
      00FF1958H   PUBLIC    CODE     ---       OLED12864_ScrollStop
      00FF1270H   PUBLIC    CODE     ---       LED64_SendData
      00FF1549H   PUBLIC    CODE     ---       printf_hid
      00FF12EBH   PUBLIC    CODE     ---       SEG7_ShowLong
      00FF1852H   PUBLIC    CODE     ---       LCD12864_ScrollRight
      00FF186AH   PUBLIC    CODE     ---       LCD12864_AutoWrapOn
      00FF196FH   PUBLIC    CODE     ---       LCD12864_DisplayOff
      00FF14B0H   PUBLIC    CODE     ---       reverse2
      00FF1986H   PUBLIC    CODE     ---       LCD12864_ScrollLeft
      00FF199DH   PUBLIC    CODE     ---       OLED12864_HorizontalMirror
      00FF1050H   PUBLIC    CODE     ---       LCD12864_ShowPicture
      00FF140BH   PUBLIC    CODE     ---       OLED12864_ScrollUp
      00FF19B4H   PUBLIC    CODE     ---       OLED12864_DisplayContent
      00FF1A5EH   PUBLIC    CODE     ---       OLED12864_DisplayReverse
      00FF1882H   PUBLIC    CODE     ---       OLED12864_VerticalMirror
      00FF189AH   PUBLIC    CODE     ---       LCD12864_CursorReturnHome
      00FF18B2H   PUBLIC    CODE     ---       OLED12864_DisplayEntire
      00FF18CAH   PUBLIC    CODE     ---       LCD12864_DisplayOn
      00FF18E2H   PUBLIC    CODE     ---       LCD12864_CursorMoveRight
      00FF1326H   PUBLIC    CODE     ---       LCD12864_ShowString
      00FF19CBH   PUBLIC    CODE     ---       LCD12864_CursorOff
      00FF18FAH   PUBLIC    CODE     ---       sleep_ms
      00FF19E2H   PUBLIC    CODE     ---       LCD12864_CursorMoveLeft
      00FF00AEH   PUBLIC    CODE     ---       sleep_us
      00FF16C7H   PUBLIC    CODE     ---       LCD12864_ScrollUp
      00FF1912H   PUBLIC    CODE     ---       LCD12864_CursorOn
      00000049H   PUBLIC    EDATA    BYTE      ?SEG7_ShowString?BYTE
      00000075H   PUBLIC    EDATA    BYTE      ?printf_hid?BYTE
      000000D0H   SFRSYM    DATA     BYTE      PSW
      0000009DH   SFRSYM    DATA     BYTE      IRCBAND
      00000097H   SFRSYM    DATA     BYTE      AUXR2
      000000EFH   SFRSYM    DATA     BYTE      AUXINTIF
      000000FDH   SFRSYM    DATA     BYTE      S4CON
L251 LINKER/LOCATER V4.66.93.0                                                        07/09/2022  13:58:26  PAGE 30


      000000ACH   SFRSYM    DATA     BYTE      S3CON
      0000009AH   SFRSYM    DATA     BYTE      S2CON
      000000B7H   SFRSYM    DATA     BYTE      IPH
      000000CDH   SFRSYM    DATA     BYTE      SPSTAT
      000000DDH   SFRSYM    DATA     BYTE      T4T3M
      000000C1H   SFRSYM    DATA     BYTE      WDT_CONTR
      000000DFH   SFRSYM    DATA     BYTE      IP3
      000000F4H   SFRSYM    DATA     BYTE      USBCON
      000000B5H   SFRSYM    DATA     BYTE      IP2
      000000FFH   SFRSYM    DATA     BYTE      RSTCFG
      000000F9H   SFRSYM    DATA     BYTE      LINICR
      0000008EH   SFRSYM    DATA     BYTE      AUXR
      000000AFH   SFRSYM    DATA     BYTE      IE2
      00000088H   SFRSYM    DATA     BYTE      TCON
      00000098H   SFRSYM    DATA     BYTE      SCON
      000000F1H   SFRSYM    DATA     BYTE      CANICR
      00000087H   SFRSYM    DATA     BYTE      PCON
      000000BCH   SFRSYM    DATA     BYTE      ADC_CONTR
      000000E7H   SFRSYM    DATA     BYTE      CMPCR2
      000000E6H   SFRSYM    DATA     BYTE      CMPCR1
      000000B8H   SFRSYM    DATA     BYTE      IP
      0000008FH   SFRSYM    DATA     BYTE      INTCLKO
      000000EEH   SFRSYM    DATA     BYTE      IP3H
      000000B6H   SFRSYM    DATA     BYTE      IP2H
      000000A8H   SFRSYM    DATA     BYTE      IE
      000000BBH   SFRSYM    DATA     BYTE      P_SW3
      000000BAH   SFRSYM    DATA     BYTE      P_SW2
      000000A2H   SFRSYM    DATA     BYTE      P_SW1
      000000CEH   SFRSYM    DATA     BYTE      SPCTL
      000000F8H   SFRSYM    DATA     BYTE      P7
      000000E8H   SFRSYM    DATA     BYTE      P6
      000000C8H   SFRSYM    DATA     BYTE      P5
      000000C0H   SFRSYM    DATA     BYTE      P4
      000000B0H   SFRSYM    DATA     BYTE      P3
      000000A0H   SFRSYM    DATA     BYTE      P2
      00000090H   SFRSYM    DATA     BYTE      P1
      00000080H   SFRSYM    DATA     BYTE      P0
      00FF17BFH   SYMBOL    CODE     ---       OLED12864_SetHeader
      00FF0B38H   SYMBOL    CODE     ---       OLED12864_SetBuffer
      00FF17D8H   SYMBOL    CODE     ---       LCD12864_SetHeader
      00FF0BC7H   SYMBOL    CODE     ---       LCD12864_SetBuffer
      00FF17F1H   SYMBOL    CODE     ---       SEG7_SetHeader

      00FF14B0H   BLOCK     CODE     ---       LVL=0
      00000094H   SYMBOL    EDATA    WORD      w
      00FF14B4H   BLOCK     CODE     NEAR LAB  LVL=1
      00000096H   SYMBOL    EDATA    WORD      ret
      ---         BLOCKEND  ---      ---       LVL=1
      00FF14B0H   LINE      CODE     ---       #17
      00FF14B4H   LINE      CODE     ---       #18
      00FF14B4H   LINE      CODE     ---       #21
      00FF14CAH   LINE      CODE     ---       #22
      00FF14E0H   LINE      CODE     ---       #24
      00FF14E4H   LINE      CODE     ---       #25
      ---         BLOCKEND  ---      ---       LVL=0

      00FF00AEH   BLOCK     CODE     ---       LVL=0
      WR6         REGSYM    ---      WORD      n
      00FF00AEH   LINE      CODE     ---       #27
      00FF00AEH   LINE      CODE     ---       #29
      00FF00B0H   LINE      CODE     ---       #38
      00FF00B1H   LINE      CODE     ---       #39
      00FF00B2H   LINE      CODE     ---       #40
      00FF00B3H   LINE      CODE     ---       #41
      00FF00B4H   LINE      CODE     ---       #43
L251 LINKER/LOCATER V4.66.93.0                                                        07/09/2022  13:58:26  PAGE 31


      00FF00B5H   LINE      CODE     ---       #44
      00FF00B6H   LINE      CODE     ---       #45
      00FF00B7H   LINE      CODE     ---       #46
      00FF00B8H   LINE      CODE     ---       #47
      00FF00B9H   LINE      CODE     ---       #49
      00FF00BAH   LINE      CODE     ---       #50
      00FF00BBH   LINE      CODE     ---       #51
      00FF00BCH   LINE      CODE     ---       #52
      00FF00BDH   LINE      CODE     ---       #53
      00FF00BEH   LINE      CODE     ---       #55
      00FF00BFH   LINE      CODE     ---       #56
      00FF00C0H   LINE      CODE     ---       #57
      00FF00C1H   LINE      CODE     ---       #58
      00FF00C2H   LINE      CODE     ---       #59
      00FF00CAH   LINE      CODE     ---       #60
      ---         BLOCKEND  ---      ---       LVL=0

      00FF18FAH   BLOCK     CODE     ---       LVL=0
      WR14        REGSYM    ---      WORD      n
      00FF18FAH   LINE      CODE     ---       #62
      00FF18FEH   LINE      CODE     ---       #64
      00FF190FH   LINE      CODE     ---       #66
      ---         BLOCKEND  ---      ---       LVL=0

      00FF17F1H   BLOCK     CODE     ---       LVL=0
      00FF17F1H   LINE      CODE     ---       #68
      00FF17F1H   LINE      CODE     ---       #70
      00FF17F7H   LINE      CODE     ---       #71
      00FF17FDH   LINE      CODE     ---       #72
      00FF1803H   LINE      CODE     ---       #73
      00FF1809H   LINE      CODE     ---       #74
      ---         BLOCKEND  ---      ---       LVL=0

      00FF12EBH   BLOCK     CODE     ---       LVL=0
      0000008CH   SYMBOL    EDATA    LONG      n
      R15         REGSYM    ---      CHAR      radix
      00FF12EBH   LINE      CODE     ---       #76
      00FF12F3H   LINE      CODE     ---       #78
      00FF12F6H   LINE      CODE     ---       #79
      00FF12FCH   LINE      CODE     ---       #80
      00FF1302H   LINE      CODE     ---       #81
      00FF1308H   LINE      CODE     ---       #82
      00FF130DH   LINE      CODE     ---       #83
      00FF1320H   LINE      CODE     ---       #85
      00FF1323H   LINE      CODE     ---       #86
      ---         BLOCKEND  ---      ---       LVL=0

      00FF1518H   BLOCK     CODE     ---       LVL=0
      DR12        REGSYM    ---      FLOAT     f
      00FF1518H   LINE      CODE     ---       #88
      00FF151CH   LINE      CODE     ---       #90
      00FF151FH   LINE      CODE     ---       #91
      00FF1525H   LINE      CODE     ---       #92
      00FF152BH   LINE      CODE     ---       #93
      00FF1530H   LINE      CODE     ---       #94
      00FF1534H   LINE      CODE     ---       #95
      00FF1543H   LINE      CODE     ---       #97
      00FF1546H   LINE      CODE     ---       #98
      ---         BLOCKEND  ---      ---       LVL=0

      00FF14E5H   BLOCK     CODE     ---       LVL=0
      REG=3       REGSYM    ---      ---       cod
      00FF14E5H   LINE      CODE     ---       #100
      00FF14E7H   LINE      CODE     ---       #102
      00FF14EAH   LINE      CODE     ---       #103
L251 LINKER/LOCATER V4.66.93.0                                                        07/09/2022  13:58:26  PAGE 32


      00FF14F0H   LINE      CODE     ---       #104
      00FF14F5H   LINE      CODE     ---       #105
      00FF14F9H   LINE      CODE     ---       #106
      00FF14FDH   LINE      CODE     ---       #107
      00FF1512H   LINE      CODE     ---       #109
      00FF1515H   LINE      CODE     ---       #110
      ---         BLOCKEND  ---      ---       LVL=0

      00FF1132H   BLOCK     CODE     ---       LVL=0
      00000049H   SYMBOL    EDATA    ---       fmt
      00FF1138H   BLOCK     CODE     NEAR LAB  LVL=1
      REG=1       REGSYM    ---      ---       va
      WR14        REGSYM    ---      INT       ret
      ---         BLOCKEND  ---      ---       LVL=1
      00FF1132H   LINE      CODE     ---       #112
      00FF1138H   LINE      CODE     ---       #113
      00FF1138H   LINE      CODE     ---       #117
      00FF113BH   LINE      CODE     ---       #118
      00FF1141H   LINE      CODE     ---       #119
      00FF1146H   LINE      CODE     ---       #120
      00FF114AH   LINE      CODE     ---       #121
      00FF114EH   LINE      CODE     ---       #123
      00FF1156H   LINE      CODE     ---       #124
      00FF116FH   LINE      CODE     ---       #127
      00FF1172H   LINE      CODE     ---       #129
      00FF1174H   LINE      CODE     ---       #130
      ---         BLOCKEND  ---      ---       LVL=0

      00FF1549H   BLOCK     CODE     ---       LVL=0
      00000075H   SYMBOL    EDATA    ---       fmt
      00FF154FH   BLOCK     CODE     NEAR LAB  LVL=1
      REG=1       REGSYM    ---      ---       va
      WR14        REGSYM    ---      INT       ret
      ---         BLOCKEND  ---      ---       LVL=1
      00FF1549H   LINE      CODE     ---       #132
      00FF154FH   LINE      CODE     ---       #133
      00FF154FH   LINE      CODE     ---       #137
      00FF1557H   LINE      CODE     ---       #138
      00FF1570H   LINE      CODE     ---       #141
      00FF1573H   LINE      CODE     ---       #143
      00FF1575H   LINE      CODE     ---       #144
      ---         BLOCKEND  ---      ---       LVL=0

      00FF1232H   BLOCK     CODE     ---       LVL=0
      REG=0       REGSYM    ---      ---       dat
      R10         REGSYM    ---      BYTE      size
      00FF1232H   LINE      CODE     ---       #146
      00FF1234H   LINE      CODE     ---       #148
      00FF1239H   LINE      CODE     ---       #149
      00FF123CH   LINE      CODE     ---       #151
      00FF1242H   LINE      CODE     ---       #152
      00FF1248H   LINE      CODE     ---       #153
      00FF124EH   LINE      CODE     ---       #154
      00FF1254H   LINE      CODE     ---       #155
      00FF125AH   LINE      CODE     ---       #156
      00FF126DH   LINE      CODE     ---       #158
      ---         BLOCKEND  ---      ---       LVL=0

      00FF1270H   BLOCK     CODE     ---       LVL=0
      REG=0       REGSYM    ---      ---       dat
      R10         REGSYM    ---      BYTE      size
      00FF1270H   LINE      CODE     ---       #161
      00FF1272H   LINE      CODE     ---       #163
      00FF1277H   LINE      CODE     ---       #164
      00FF127AH   LINE      CODE     ---       #166
L251 LINKER/LOCATER V4.66.93.0                                                        07/09/2022  13:58:26  PAGE 33


      00FF1280H   LINE      CODE     ---       #167
      00FF1286H   LINE      CODE     ---       #168
      00FF128CH   LINE      CODE     ---       #169
      00FF1292H   LINE      CODE     ---       #170
      00FF1298H   LINE      CODE     ---       #171
      00FF12ABH   LINE      CODE     ---       #173
      ---         BLOCKEND  ---      ---       LVL=0

      00FF17D8H   BLOCK     CODE     ---       LVL=0
      00FF17D8H   LINE      CODE     ---       #176
      00FF17D8H   LINE      CODE     ---       #178
      00FF17DEH   LINE      CODE     ---       #179
      00FF17E4H   LINE      CODE     ---       #180
      00FF17EAH   LINE      CODE     ---       #181
      00FF17F0H   LINE      CODE     ---       #182
      ---         BLOCKEND  ---      ---       LVL=0

      00FF196FH   BLOCK     CODE     ---       LVL=0
      00FF196FH   LINE      CODE     ---       #184
      00FF196FH   LINE      CODE     ---       #186
      00FF1972H   LINE      CODE     ---       #187
      00FF1978H   LINE      CODE     ---       #188
      00FF197EH   LINE      CODE     ---       #189
      00FF1983H   LINE      CODE     ---       #191
      ---         BLOCKEND  ---      ---       LVL=0

      00FF18CAH   BLOCK     CODE     ---       LVL=0
      00FF18CAH   LINE      CODE     ---       #194
      00FF18CAH   LINE      CODE     ---       #196
      00FF18CDH   LINE      CODE     ---       #197
      00FF18D3H   LINE      CODE     ---       #198
      00FF18D9H   LINE      CODE     ---       #199
      00FF18DFH   LINE      CODE     ---       #201
      ---         BLOCKEND  ---      ---       LVL=0

      00FF19CBH   BLOCK     CODE     ---       LVL=0
      00FF19CBH   LINE      CODE     ---       #204
      00FF19CBH   LINE      CODE     ---       #206
      00FF19CEH   LINE      CODE     ---       #207
      00FF19D4H   LINE      CODE     ---       #208
      00FF19DAH   LINE      CODE     ---       #209
      00FF19DFH   LINE      CODE     ---       #211
      ---         BLOCKEND  ---      ---       LVL=0

      00FF1912H   BLOCK     CODE     ---       LVL=0
      00FF1912H   LINE      CODE     ---       #214
      00FF1912H   LINE      CODE     ---       #216
      00FF1915H   LINE      CODE     ---       #217
      00FF191BH   LINE      CODE     ---       #218
      00FF1921H   LINE      CODE     ---       #219
      00FF1927H   LINE      CODE     ---       #221
      ---         BLOCKEND  ---      ---       LVL=0

      00FF19E2H   BLOCK     CODE     ---       LVL=0
      00FF19E2H   LINE      CODE     ---       #224
      00FF19E2H   LINE      CODE     ---       #226
      00FF19E5H   LINE      CODE     ---       #227
      00FF19EBH   LINE      CODE     ---       #228
      00FF19F1H   LINE      CODE     ---       #229
      00FF19F6H   LINE      CODE     ---       #231
      ---         BLOCKEND  ---      ---       LVL=0

      00FF18E2H   BLOCK     CODE     ---       LVL=0
      00FF18E2H   LINE      CODE     ---       #234
      00FF18E2H   LINE      CODE     ---       #236
L251 LINKER/LOCATER V4.66.93.0                                                        07/09/2022  13:58:26  PAGE 34


      00FF18E5H   LINE      CODE     ---       #237
      00FF18EBH   LINE      CODE     ---       #238
      00FF18F1H   LINE      CODE     ---       #239
      00FF18F7H   LINE      CODE     ---       #241
      ---         BLOCKEND  ---      ---       LVL=0

      00FF189AH   BLOCK     CODE     ---       LVL=0
      00FF189AH   LINE      CODE     ---       #244
      00FF189AH   LINE      CODE     ---       #246
      00FF189DH   LINE      CODE     ---       #247
      00FF18A3H   LINE      CODE     ---       #248
      00FF18A9H   LINE      CODE     ---       #249
      00FF18AFH   LINE      CODE     ---       #251
      ---         BLOCKEND  ---      ---       LVL=0

      00FF1986H   BLOCK     CODE     ---       LVL=0
      00FF1986H   LINE      CODE     ---       #254
      00FF1986H   LINE      CODE     ---       #256
      00FF1989H   LINE      CODE     ---       #257
      00FF198FH   LINE      CODE     ---       #258
      00FF1995H   LINE      CODE     ---       #259
      00FF199AH   LINE      CODE     ---       #261
      ---         BLOCKEND  ---      ---       LVL=0

      00FF1852H   BLOCK     CODE     ---       LVL=0
      00FF1852H   LINE      CODE     ---       #264
      00FF1852H   LINE      CODE     ---       #266
      00FF1855H   LINE      CODE     ---       #267
      00FF185BH   LINE      CODE     ---       #268
      00FF1861H   LINE      CODE     ---       #269
      00FF1867H   LINE      CODE     ---       #271
      ---         BLOCKEND  ---      ---       LVL=0

      00FF16C7H   BLOCK     CODE     ---       LVL=0
      R15         REGSYM    ---      BYTE      line
      00FF16C7H   LINE      CODE     ---       #274
      00FF16CBH   LINE      CODE     ---       #276
      00FF16CEH   LINE      CODE     ---       #277
      00FF16D4H   LINE      CODE     ---       #278
      00FF16DAH   LINE      CODE     ---       #279
      00FF16E0H   LINE      CODE     ---       #280
      00FF16E6H   LINE      CODE     ---       #282
      00FF16E9H   LINE      CODE     ---       #283
      ---         BLOCKEND  ---      ---       LVL=0

      00FF1941H   BLOCK     CODE     ---       LVL=0
      00FF1941H   LINE      CODE     ---       #285
      00FF1941H   LINE      CODE     ---       #287
      00FF1944H   LINE      CODE     ---       #288
      00FF194AH   LINE      CODE     ---       #289
      00FF1950H   LINE      CODE     ---       #290
      00FF1955H   LINE      CODE     ---       #292
      ---         BLOCKEND  ---      ---       LVL=0

      00FF186AH   BLOCK     CODE     ---       LVL=0
      00FF186AH   LINE      CODE     ---       #295
      00FF186AH   LINE      CODE     ---       #297
      00FF186DH   LINE      CODE     ---       #298
      00FF1873H   LINE      CODE     ---       #299
      00FF1879H   LINE      CODE     ---       #300
      00FF187FH   LINE      CODE     ---       #302
      ---         BLOCKEND  ---      ---       LVL=0

      00FF174FH   BLOCK     CODE     ---       LVL=0
      R15         REGSYM    ---      BYTE      line
L251 LINKER/LOCATER V4.66.93.0                                                        07/09/2022  13:58:26  PAGE 35


      00FF174FH   LINE      CODE     ---       #305
      00FF1753H   LINE      CODE     ---       #307
      00FF1756H   LINE      CODE     ---       #308
      00FF175CH   LINE      CODE     ---       #309
      00FF1762H   LINE      CODE     ---       #310
      00FF1768H   LINE      CODE     ---       #312
      00FF176BH   LINE      CODE     ---       #313
      ---         BLOCKEND  ---      ---       LVL=0

      00FF1A4CH   BLOCK     CODE     ---       LVL=0
      00FF1A4CH   LINE      CODE     ---       #315
      00FF1A4CH   LINE      CODE     ---       #317
      00FF1A4FH   LINE      CODE     ---       #318
      00FF1A55H   LINE      CODE     ---       #319
      00FF1A5BH   LINE      CODE     ---       #321
      ---         BLOCKEND  ---      ---       LVL=0

      00FF0BC7H   BLOCK     CODE     ---       LVL=0
      REG=3       REGSYM    ---      ---       dat
      0000001AH   SYMBOL    EDATA    WORD      size
      00FF0BCFH   BLOCK     CODE     NEAR LAB  LVL=1
      0000001CH   SYMBOL    EDATA    BYTE      cnt
      0000001DH   SYMBOL    EDATA    WORD      addr
      ---         BLOCKEND  ---      ---       LVL=1
      00FF0BC7H   LINE      CODE     ---       #324
      00FF0BCFH   LINE      CODE     ---       #325
      00FF0BCFH   LINE      CODE     ---       #329
      00FF0BD5H   LINE      CODE     ---       #330
      00FF0BD7H   LINE      CODE     ---       #332
      00FF0BDDH   LINE      CODE     ---       #333
      00FF0BE7H   LINE      CODE     ---       #334
      00FF0BEBH   LINE      CODE     ---       #336
      00FF0BEEH   LINE      CODE     ---       #337
      00FF0BFCH   LINE      CODE     ---       #338
      00FF0C02H   LINE      CODE     ---       #339
      00FF0C11H   LINE      CODE     ---       #340
      00FF0C28H   LINE      CODE     ---       #342
      00FF0C2BH   LINE      CODE     ---       #344
      00FF0C33H   LINE      CODE     ---       #345
      00FF0C41H   LINE      CODE     ---       #346
      00FF0C4BH   LINE      CODE     ---       #347
      00FF0C53H   LINE      CODE     ---       #348
      ---         BLOCKEND  ---      ---       LVL=0

      00FF1326H   BLOCK     CODE     ---       LVL=0
      00000098H   SYMBOL    EDATA    BYTE      x
      00000099H   SYMBOL    EDATA    BYTE      y
      REG=3       REGSYM    ---      ---       str
      00FF1326H   LINE      CODE     ---       #350
      00FF1332H   LINE      CODE     ---       #352
      00FF133CH   LINE      CODE     ---       #354
      00FF133FH   LINE      CODE     ---       #355
      00FF1345H   LINE      CODE     ---       #356
      00FF134BH   LINE      CODE     ---       #357
      00FF1353H   LINE      CODE     ---       #358
      00FF135BH   LINE      CODE     ---       #360
      00FF135EH   LINE      CODE     ---       #361
      ---         BLOCKEND  ---      ---       LVL=0

      00FF1050H   BLOCK     CODE     ---       LVL=0
      R12         REGSYM    ---      BYTE      x
      R13         REGSYM    ---      BYTE      y
      R14         REGSYM    ---      BYTE      cx
      R15         REGSYM    ---      BYTE      cy
      REG=7       REGSYM    ---      ---       dat
L251 LINKER/LOCATER V4.66.93.0                                                        07/09/2022  13:58:26  PAGE 36


      00FF1050H   LINE      CODE     ---       #363
      00FF105CH   LINE      CODE     ---       #365
      00FF1070H   LINE      CODE     ---       #367
      00FF1073H   LINE      CODE     ---       #368
      00FF1079H   LINE      CODE     ---       #369
      00FF107FH   LINE      CODE     ---       #370
      00FF1085H   LINE      CODE     ---       #371
      00FF108BH   LINE      CODE     ---       #372
      00FF1091H   LINE      CODE     ---       #373
      00FF1097H   LINE      CODE     ---       #375
      00FF109AH   LINE      CODE     ---       #376
      ---         BLOCKEND  ---      ---       LVL=0

      00FF17BFH   BLOCK     CODE     ---       LVL=0
      00FF17BFH   LINE      CODE     ---       #378
      00FF17BFH   LINE      CODE     ---       #380
      00FF17C5H   LINE      CODE     ---       #381
      00FF17CBH   LINE      CODE     ---       #382
      00FF17D1H   LINE      CODE     ---       #383
      00FF17D7H   LINE      CODE     ---       #384
      ---         BLOCKEND  ---      ---       LVL=0

      00FF192AH   BLOCK     CODE     ---       LVL=0
      00FF192AH   LINE      CODE     ---       #386
      00FF192AH   LINE      CODE     ---       #388
      00FF192DH   LINE      CODE     ---       #389
      00FF1933H   LINE      CODE     ---       #390
      00FF1939H   LINE      CODE     ---       #391
      00FF193EH   LINE      CODE     ---       #393
      ---         BLOCKEND  ---      ---       LVL=0

      00FF183AH   BLOCK     CODE     ---       LVL=0
      00FF183AH   LINE      CODE     ---       #396
      00FF183AH   LINE      CODE     ---       #398
      00FF183DH   LINE      CODE     ---       #399
      00FF1843H   LINE      CODE     ---       #400
      00FF1849H   LINE      CODE     ---       #401
      00FF184FH   LINE      CODE     ---       #403
      ---         BLOCKEND  ---      ---       LVL=0

      00FF19B4H   BLOCK     CODE     ---       LVL=0
      00FF19B4H   LINE      CODE     ---       #406
      00FF19B4H   LINE      CODE     ---       #408
      00FF19B7H   LINE      CODE     ---       #409
      00FF19BDH   LINE      CODE     ---       #410
      00FF19C3H   LINE      CODE     ---       #411
      00FF19C8H   LINE      CODE     ---       #413
      ---         BLOCKEND  ---      ---       LVL=0

      00FF18B2H   BLOCK     CODE     ---       LVL=0
      00FF18B2H   LINE      CODE     ---       #416
      00FF18B2H   LINE      CODE     ---       #418
      00FF18B5H   LINE      CODE     ---       #419
      00FF18BBH   LINE      CODE     ---       #420
      00FF18C1H   LINE      CODE     ---       #421
      00FF18C7H   LINE      CODE     ---       #423
      ---         BLOCKEND  ---      ---       LVL=0

      00FF199DH   BLOCK     CODE     ---       LVL=0
      00FF199DH   LINE      CODE     ---       #426
      00FF199DH   LINE      CODE     ---       #428
      00FF19A0H   LINE      CODE     ---       #429
      00FF19A6H   LINE      CODE     ---       #430
      00FF19ACH   LINE      CODE     ---       #431
      00FF19B1H   LINE      CODE     ---       #433
L251 LINKER/LOCATER V4.66.93.0                                                        07/09/2022  13:58:26  PAGE 37


      ---         BLOCKEND  ---      ---       LVL=0

      00FF1882H   BLOCK     CODE     ---       LVL=0
      00FF1882H   LINE      CODE     ---       #436
      00FF1882H   LINE      CODE     ---       #438
      00FF1885H   LINE      CODE     ---       #439
      00FF188BH   LINE      CODE     ---       #440
      00FF1891H   LINE      CODE     ---       #441
      00FF1897H   LINE      CODE     ---       #443
      ---         BLOCKEND  ---      ---       LVL=0

      00FF1A5EH   BLOCK     CODE     ---       LVL=0
      00FF1A5EH   LINE      CODE     ---       #446
      00FF1A5EH   LINE      CODE     ---       #448
      00FF1A61H   LINE      CODE     ---       #449
      00FF1A67H   LINE      CODE     ---       #450
      00FF1A6DH   LINE      CODE     ---       #452
      ---         BLOCKEND  ---      ---       LVL=0

      00FF1730H   BLOCK     CODE     ---       LVL=0
      R15         REGSYM    ---      BYTE      bContrast
      00FF1730H   LINE      CODE     ---       #455
      00FF1734H   LINE      CODE     ---       #457
      00FF1737H   LINE      CODE     ---       #458
      00FF173DH   LINE      CODE     ---       #459
      00FF1743H   LINE      CODE     ---       #460
      00FF1749H   LINE      CODE     ---       #462
      00FF174CH   LINE      CODE     ---       #463
      ---         BLOCKEND  ---      ---       LVL=0

      00FF1711H   BLOCK     CODE     ---       LVL=0
      R15         REGSYM    ---      BYTE      bMode
      00FF1711H   LINE      CODE     ---       #465
      00FF1715H   LINE      CODE     ---       #467
      00FF1718H   LINE      CODE     ---       #468
      00FF171EH   LINE      CODE     ---       #469
      00FF1724H   LINE      CODE     ---       #470
      00FF172AH   LINE      CODE     ---       #472
      00FF172DH   LINE      CODE     ---       #473
      ---         BLOCKEND  ---      ---       LVL=0

      00FF1443H   BLOCK     CODE     ---       LVL=0
      R12         REGSYM    ---      BYTE      bPageStart
      R13         REGSYM    ---      BYTE      bPageEnd
      WR14        REGSYM    ---      WORD      nInterval
      00FF1443H   LINE      CODE     ---       #475
      00FF1449H   LINE      CODE     ---       #477
      00FF144CH   LINE      CODE     ---       #478
      00FF1452H   LINE      CODE     ---       #479
      00FF1458H   LINE      CODE     ---       #480
      00FF145DH   LINE      CODE     ---       #481
      00FF1463H   LINE      CODE     ---       #482
      00FF1469H   LINE      CODE     ---       #483
      00FF1474H   LINE      CODE     ---       #485
      00FF1477H   LINE      CODE     ---       #486
      ---         BLOCKEND  ---      ---       LVL=0

      00FF13D3H   BLOCK     CODE     ---       LVL=0
      R12         REGSYM    ---      BYTE      bPageStart
      R13         REGSYM    ---      BYTE      bPageEnd
      WR14        REGSYM    ---      WORD      nInterval
      00FF13D3H   LINE      CODE     ---       #488
      00FF13D9H   LINE      CODE     ---       #490
      00FF13DCH   LINE      CODE     ---       #491
      00FF13E2H   LINE      CODE     ---       #492
L251 LINKER/LOCATER V4.66.93.0                                                        07/09/2022  13:58:26  PAGE 38


      00FF13E8H   LINE      CODE     ---       #493
      00FF13EEH   LINE      CODE     ---       #494
      00FF13F4H   LINE      CODE     ---       #495
      00FF13FAH   LINE      CODE     ---       #496
      00FF1405H   LINE      CODE     ---       #498
      00FF1408H   LINE      CODE     ---       #499
      ---         BLOCKEND  ---      ---       LVL=0

      00FF140BH   BLOCK     CODE     ---       LVL=0
      R12         REGSYM    ---      BYTE      bPageStart
      R13         REGSYM    ---      BYTE      bPageEnd
      WR14        REGSYM    ---      WORD      nInterval
      00FF140BH   LINE      CODE     ---       #501
      00FF1411H   LINE      CODE     ---       #503
      00FF1414H   LINE      CODE     ---       #504
      00FF141AH   LINE      CODE     ---       #505
      00FF1420H   LINE      CODE     ---       #506
      00FF1426H   LINE      CODE     ---       #507
      00FF142CH   LINE      CODE     ---       #508
      00FF1432H   LINE      CODE     ---       #509
      00FF143DH   LINE      CODE     ---       #511
      00FF1440H   LINE      CODE     ---       #512
      ---         BLOCKEND  ---      ---       LVL=0

      00FF1822H   BLOCK     CODE     ---       LVL=0
      00FF1822H   LINE      CODE     ---       #514
      00FF1822H   LINE      CODE     ---       #516
      00FF1825H   LINE      CODE     ---       #517
      00FF182BH   LINE      CODE     ---       #518
      00FF1831H   LINE      CODE     ---       #519
      00FF1837H   LINE      CODE     ---       #521
      ---         BLOCKEND  ---      ---       LVL=0

      00FF1958H   BLOCK     CODE     ---       LVL=0
      00FF1958H   LINE      CODE     ---       #524
      00FF1958H   LINE      CODE     ---       #526
      00FF195BH   LINE      CODE     ---       #527
      00FF1961H   LINE      CODE     ---       #528
      00FF1967H   LINE      CODE     ---       #529
      00FF196CH   LINE      CODE     ---       #531
      ---         BLOCKEND  ---      ---       LVL=0

      00FF0B38H   BLOCK     CODE     ---       LVL=0
      REG=3       REGSYM    ---      ---       dat
      00000087H   SYMBOL    EDATA    WORD      size
      00FF0B40H   BLOCK     CODE     NEAR LAB  LVL=1
      00000089H   SYMBOL    EDATA    BYTE      cnt
      0000008AH   SYMBOL    EDATA    WORD      addr
      ---         BLOCKEND  ---      ---       LVL=1
      00FF0B38H   LINE      CODE     ---       #534
      00FF0B40H   LINE      CODE     ---       #535
      00FF0B40H   LINE      CODE     ---       #539
      00FF0B46H   LINE      CODE     ---       #540
      00FF0B48H   LINE      CODE     ---       #542
      00FF0B4EH   LINE      CODE     ---       #543
      00FF0B58H   LINE      CODE     ---       #544
      00FF0B5CH   LINE      CODE     ---       #546
      00FF0B5FH   LINE      CODE     ---       #547
      00FF0B6DH   LINE      CODE     ---       #548
      00FF0B73H   LINE      CODE     ---       #549
      00FF0B82H   LINE      CODE     ---       #550
      00FF0B99H   LINE      CODE     ---       #552
      00FF0B9CH   LINE      CODE     ---       #554
      00FF0BA4H   LINE      CODE     ---       #555
      00FF0BB2H   LINE      CODE     ---       #556
L251 LINKER/LOCATER V4.66.93.0                                                        07/09/2022  13:58:26  PAGE 39


      00FF0BBCH   LINE      CODE     ---       #557
      00FF0BC4H   LINE      CODE     ---       #558
      ---         BLOCKEND  ---      ---       LVL=0

      00FF11F4H   BLOCK     CODE     ---       LVL=0
      R12         REGSYM    ---      BYTE      x
      R13         REGSYM    ---      BYTE      y
      R14         REGSYM    ---      BYTE      cx
      R15         REGSYM    ---      BYTE      cy
      REG=7       REGSYM    ---      ---       dat
      00FF11F4H   LINE      CODE     ---       #560
      00FF11FEH   LINE      CODE     ---       #562
      00FF1205H   LINE      CODE     ---       #564
      00FF1208H   LINE      CODE     ---       #565
      00FF120EH   LINE      CODE     ---       #566
      00FF1214H   LINE      CODE     ---       #567
      00FF121AH   LINE      CODE     ---       #568
      00FF1220H   LINE      CODE     ---       #569
      00FF1226H   LINE      CODE     ---       #570
      00FF122CH   LINE      CODE     ---       #572
      00FF122FH   LINE      CODE     ---       #573
      ---         BLOCKEND  ---      ---       LVL=0

      ---         MODULE    ---      ---       usb_desc
      00FF0D6DH   PUBLIC    CODE     ---       PRODUCTDESC
      00FF0D87H   PUBLIC    CODE     ---       LANGIDDESC
      00FF0D8BH   PUBLIC    CODE     ---       DEVICEDESC
      00FF0D9DH   PUBLIC    CODE     ---       HIDREPORTDESC
      00FF0DB8H   PUBLIC    CODE     ---       CONFIGDESC
      00FF0DE1H   PUBLIC    CODE     ---       PACKET0
      00FF0DE3H   PUBLIC    CODE     ---       PACKET1
      00FF0DE5H   PUBLIC    CODE     ---       MANUFACTDESC
      000000D0H   SFRSYM    DATA     BYTE      PSW
      0000009DH   SFRSYM    DATA     BYTE      IRCBAND
      00000097H   SFRSYM    DATA     BYTE      AUXR2
      000000EFH   SFRSYM    DATA     BYTE      AUXINTIF
      000000FDH   SFRSYM    DATA     BYTE      S4CON
      000000ACH   SFRSYM    DATA     BYTE      S3CON
      0000009AH   SFRSYM    DATA     BYTE      S2CON
      000000B7H   SFRSYM    DATA     BYTE      IPH
      000000CDH   SFRSYM    DATA     BYTE      SPSTAT
      000000DDH   SFRSYM    DATA     BYTE      T4T3M
      000000C1H   SFRSYM    DATA     BYTE      WDT_CONTR
      000000DFH   SFRSYM    DATA     BYTE      IP3
      000000F4H   SFRSYM    DATA     BYTE      USBCON
      000000B5H   SFRSYM    DATA     BYTE      IP2
      000000FFH   SFRSYM    DATA     BYTE      RSTCFG
      000000F9H   SFRSYM    DATA     BYTE      LINICR
      0000008EH   SFRSYM    DATA     BYTE      AUXR
      000000AFH   SFRSYM    DATA     BYTE      IE2
      00000088H   SFRSYM    DATA     BYTE      TCON
      00000098H   SFRSYM    DATA     BYTE      SCON
      000000F1H   SFRSYM    DATA     BYTE      CANICR
      00000087H   SFRSYM    DATA     BYTE      PCON
      000000BCH   SFRSYM    DATA     BYTE      ADC_CONTR
      000000E7H   SFRSYM    DATA     BYTE      CMPCR2
      000000E6H   SFRSYM    DATA     BYTE      CMPCR1
      000000B8H   SFRSYM    DATA     BYTE      IP
      0000008FH   SFRSYM    DATA     BYTE      INTCLKO
      000000EEH   SFRSYM    DATA     BYTE      IP3H
      000000B6H   SFRSYM    DATA     BYTE      IP2H
      000000A8H   SFRSYM    DATA     BYTE      IE
      000000BBH   SFRSYM    DATA     BYTE      P_SW3
      000000BAH   SFRSYM    DATA     BYTE      P_SW2
      000000A2H   SFRSYM    DATA     BYTE      P_SW1
L251 LINKER/LOCATER V4.66.93.0                                                        07/09/2022  13:58:26  PAGE 40


      000000CEH   SFRSYM    DATA     BYTE      SPCTL
      000000F8H   SFRSYM    DATA     BYTE      P7
      000000E8H   SFRSYM    DATA     BYTE      P6
      000000C8H   SFRSYM    DATA     BYTE      P5
      000000C0H   SFRSYM    DATA     BYTE      P4
      000000B0H   SFRSYM    DATA     BYTE      P3
      000000A0H   SFRSYM    DATA     BYTE      P2
      00000090H   SFRSYM    DATA     BYTE      P1
      00000080H   SFRSYM    DATA     BYTE      P0

      ---         MODULE    ---      ---       VSPRINTF
      00000088H   PUBLIC    EDATA    ---       ?VSPRINTF?BYTE
      00FF00CEH   PUBLIC    CODE     NEAR LAB  VSPRINTF

      ---         MODULE    ---      ---       ?C?PRNFMT
      00FF0117H   PUBLIC    CODE     ---       ?C?PRNFMT

      ---         MODULE    ---      ---       ?C?FPCONVERT
      00FF0534H   PUBLIC    CODE     ---       ?C?FPCONVERT
      00FF05ECH   PUBLIC    CODE     ---       ?C?FPROUND

      ---         MODULE    ---      ---       ?C?FPMUL
      00FF062FH   PUBLIC    CODE     ---       ?C?FPMUL

      ---         MODULE    ---      ---       ?C?FPDIV
      00FF06CFH   PUBLIC    CODE     ---       ?C?FPDIV

      ---         MODULE    ---      ---       ?C?FTNPWR
      00FF0780H   PUBLIC    CODE     ---       ?C?FTNPWR

      ---         MODULE    ---      ---       ?C?FPGETOPN
      00FF07B7H   PUBLIC    CODE     ---       ?C?FPGETOPN2
      00FF07F4H   PUBLIC    CODE     ---       ?C?FPNANRESULT
      00FF07FCH   PUBLIC    CODE     ---       ?C?FPOVERFLOW
      00FF07D0H   PUBLIC    CODE     ---       ?C?FPRESULT
      00FF07E6H   PUBLIC    CODE     ---       ?C?FPRESULT2
      00FF07F9H   PUBLIC    CODE     ---       ?C?FPUNDERFLOW

      ---         MODULE    ---      ---       ?C_START
      00FF0000H   PUBLIC    CODE     ---       ?C?STARTUP
      00FF0000H   PUBLIC    CODE     ---       ?C_STARTUP

      ---         MODULE    ---      ---       ?C?INITEDATA
      00FF118AH   PUBLIC    CODE     ---       ?C?INITEDATA

      ---         MODULE    ---      ---       ?C?LMUL
      00FF0808H   PUBLIC    CODE     ---       ?C?LMUL

      ---         MODULE    ---      ---       STRCMP?_
      00FF1790H   PUBLIC    CODE     NEAR LAB  STRCMP?_

      ---         MODULE    ---      ---       STRLEN
      00FF1AABH   PUBLIC    CODE     ---       strlen?_

      ---         MODULE    ---      ---       memcpy
      00FF16ECH   PUBLIC    CODE     ---       memcpy?_

      ---         MODULE    ---      ---       ?C?INITEDATA_END
      00FF1AF8H   PUBLIC    HCONST   WORD      ?C?INITEDATA_END

Program Size: data=8.4 edata+hdata=401 xdata=192 const=39 code=6874
L251 RUN COMPLETE.  0 WARNING(S),  0 ERROR(S)
