L251 LINKER/LOCATER V4.66.93.0                                                          07/09/2022  13:59:50  PAGE 1


L251 LINKER/LOCATER V4.66.93.0, INVOKED BY:
C:\KEIL_V5\C251\BIN\L251.EXE UART.obj, ..\COMM\stc_usb_hid_32g.LIB TO UART CASE DISABLEWARNING (57) CLASSES (EDATA (0X0-
>> 0XFFF), HDATA (0X0-0XFFF))


CPU MODE:     251 SOURCE MODE
INTR FRAME:   2 BYTES SAVED ON INTERRUPT
MEMORY MODEL: XSMALL WITH FLOATING POINT ARITHMETIC


INPUT MODULES INCLUDED:
  UART.obj (UART)
         COMMENT TYPE 0: C251 V5.60.0
  ..\COMM\stc_usb_hid_32g.LIB (usb)
         COMMENT TYPE 0: C251 V5.60.0
  ..\COMM\stc_usb_hid_32g.LIB (usb_req_class)
         COMMENT TYPE 0: C251 V5.60.0
  ..\COMM\stc_usb_hid_32g.LIB (usb_req_std)
         COMMENT TYPE 0: C251 V5.60.0
  ..\COMM\stc_usb_hid_32g.LIB (usb_req_vendor)
         COMMENT TYPE 0: C251 V5.60.0
  ..\COMM\stc_usb_hid_32g.LIB (util)
         COMMENT TYPE 0: C251 V5.60.0
  ..\COMM\stc_usb_hid_32g.LIB (usb_desc)
         COMMENT TYPE 0: C251 V5.60.0
  C:\KEIL_V5\C251\LIB\C2SFPXS.LIB (VSPRINTF)
         COMMENT TYPE 0: A251 V4.69.6.0
  C:\KEIL_V5\C251\LIB\C2SFPXS.LIB (?C?PRNFMT)
         COMMENT TYPE 0: A251 V4.69.6.0
  C:\KEIL_V5\C251\LIB\C2SFPXS.LIB (?C?FPCONVERT)
         COMMENT TYPE 0: A251 V4.69.6.0
  C:\KEIL_V5\C251\LIB\C2SFPXS.LIB (?C?FPMUL)
         COMMENT TYPE 0: A251 V4.69.6.0
  C:\KEIL_V5\C251\LIB\C2SFPXS.LIB (?C?FPDIV)
         COMMENT TYPE 0: A251 V4.69.6.0
  C:\KEIL_V5\C251\LIB\C2SFPXS.LIB (?C?FTNPWR)
         COMMENT TYPE 0: A251 V4.69.6.0
  C:\KEIL_V5\C251\LIB\C2SFPXS.LIB (?C?FPGETOPN)
         COMMENT TYPE 0: A251 V4.69.6.0
  C:\KEIL_V5\C251\LIB\C2SXS.LIB (?C_START)
         COMMENT TYPE 0: A251 V4.69.6.0
  C:\KEIL_V5\C251\LIB\C2SXS.LIB (?C?INITEDATA)
         COMMENT TYPE 0: A251 V4.69.6.0
  C:\KEIL_V5\C251\LIB\C2SXS.LIB (?C?LMUL)
         COMMENT TYPE 0: A251 V4.69.6.0
  C:\KEIL_V5\C251\LIB\C2SXS.LIB (STRCMP?_)
         COMMENT TYPE 0: A251 V4.69.6.0
  C:\KEIL_V5\C251\LIB\C2SXS.LIB (STRLEN)
         COMMENT TYPE 0: C251 V5.58.7
  C:\KEIL_V5\C251\LIB\C2SXS.LIB (memcpy)
         COMMENT TYPE 0: C251 V5.58.7
  C:\KEIL_V5\C251\LIB\C2SXS.LIB (?C?INITEDATA_END)
         COMMENT TYPE 0: A251 V4.69.6.0


ACTIVE MEMORY CLASSES OF MODULE:  UART (UART)

BASE        START       END         USED      MEMORY CLASS
==========================================================
000000H     000000H     000FFFH     00021AH   EDATA
000000H     000000H     000FFFH               HDATA
000000H     FF0000H     FFFFFFH     000023H   HCONST
FF0000H     FF0000H     FFFFFFH     001BBDH   CODE
000020H.0   000020H.0   00002FH.7   000000H.7 BIT
010000H     010000H     01FFFFH     0000C0H   XDATA
FF0000H     FF0000H     FFFFFFH     000004H   CONST
L251 LINKER/LOCATER V4.66.93.0                                                        07/09/2022  13:59:50  PAGE 2


000000H     000000H     00007FH     000008H   DATA


MEMORY MAP OF MODULE:  UART (UART)


START     STOP      LENGTH    ALIGN  RELOC    MEMORY CLASS   SEGMENT NAME
=========================================================================
000000H   000007H   000008H   ---    AT..     DATA           "REG BANK 0"
000008H   000019H   000012H   BYTE   UNIT     EDATA          ?ED?USB
00001AH   00001EH   000005H   BYTE   UNIT     EDATA          ?ED?LCD12864_SETBUFFER?UTIL
00001FH   00001FH   000001H   BYTE   UNIT     EDATA          ?ED?USB_REQ_CLASS
000020H.0 000020H.3 000000H.4 BIT    UNIT     BIT            ?BI?UART
000020H.4 000020H.6 000000H.3 BIT    UNIT     BIT            ?BI?USB
000020H.7 000020H   000000H.1 ---    ---      **GAP**
000021H   0000B7H   000097H   BYTE   UNIT     EDATA          ?ED?UART
0000B8H   0000E3H   00002CH   BYTE   UNIT     EDATA          ?ED?SEG7_SHOWSTRING?UTIL
0000E4H   00010FH   00002CH   BYTE   UNIT     EDATA          ?ED?PRINTF_HID?UTIL
000110H   000114H   000005H   BYTE   UNIT     EDATA          ?ED?OLED12864_SETBUFFER?UTIL
000115H   000118H   000004H   BYTE   UNIT     EDATA          ?ED?SEG7_SHOWLONG?UTIL
000119H   00011CH   000004H   BYTE   UNIT     EDATA          ?ED?VSPRINTF
00011DH   000120H   000004H   BYTE   UNIT     EDATA          _EDATA_GROUP_
000121H   000122H   000002H   BYTE   UNIT     EDATA          ?ED?LCD12864_SHOWSTRING?UTIL
000123H   000222H   000100H   BYTE   UNIT     EDATA          ?STACK
000223H   00FFFFH   00FDDDH   ---    ---      **GAP**
010000H   0100BFH   0000C0H   BYTE   INSEG    XDATA          ?XD?USB
0100C0H   FEFFFFH   FDFF40H   ---    ---      **GAP**
FF0000H   FF0002H   000003H   ---    OFFS..   CODE           ?CO?start251?4
FF0003H   FF0005H   000003H   BYTE   INSEG    CODE           ?PR?TIMER0?UART
FF0006H   FF0008H   000003H   BYTE   INSEG    CODE           ?PR?USB_GET_PROTOCOL?USB_REQ_CLASS
FF0009H   FF0009H   000001H   BYTE   INSEG    CODE           ?PR?USB_SUSPEND?USB
FF000AH   FF000AH   000001H   BYTE   INSEG    CODE           ?PR?USB_RESUME?USB
FF000BH   FF000DH   000003H   ---    OFFS..   CODE           ?PR?IV?1
FF000EH   FF0089H   00007CH   BYTE   INSEG    CODE           ?PR?USB_OUT_EP1?USB
FF008AH   FF008AH   000001H   ---    ---      **GAP**
FF008BH   FF008DH   000003H   ---    OFFS..   CODE           ?PR?IV?17
FF008EH   FF0090H   000003H   BYTE   INSEG    CODE           ?PR?USB_SET_PROTOCOL?USB_REQ_CLASS
FF0091H   FF0092H   000002H   ---    ---      **GAP**
FF0093H   FF0095H   000003H   ---    OFFS..   CODE           ?PR?IV?18
FF0096H   FF00CAH   000035H   BYTE   INSEG    CODE           ?PR?REVERSE2?UTIL
FF00CBH   FF00CDH   000003H   ---    OFFS..   CODE           ?PR?IV?25
FF00CEH   FF0818H   00074BH   BYTE   UNIT     CODE           ?C?LIB_CODE
FF0819H   FF0917H   0000FFH   BYTE   INSEG    CODE           ?PR?USB_GET_STATUS?USB_REQ_STD
FF0918H   FF09F3H   0000DCH   BYTE   INSEG    CODE           ?PR?USB_GET_DESCRIPTOR?USB_REQ_STD
FF09F4H   FF0ABFH   0000CCH   BYTE   INSEG    CODE           ?PR?MAIN?UART
FF0AC0H   FF0B5AH   00009BH   BYTE   INSEG    CODE           ?PR?USB_CLEAR_FEATURE?USB_REQ_STD
FF0B5BH   FF0BEFH   000095H   BYTE   INSEG    CODE           ?PR?USB_SET_FEATURE?USB_REQ_STD
FF0BF0H   FF0C7EH   00008FH   BYTE   INSEG    CODE           ?PR?OLED12864_SETBUFFER?UTIL
FF0C7FH   FF0D0DH   00008FH   BYTE   INSEG    CODE           ?PR?LCD12864_SETBUFFER?UTIL
FF0D0EH   FF0D9AH   00008DH   BYTE   INSEG    CODE           ?PR?USB_SET_CONFIGURATION?USB_REQ_STD
FF0D9BH   FF0E24H   00008AH   BYTE   INSEG    CODE           ?PR?USB_SETUP?USB
FF0E25H   FF0EA4H   000080H   BYTE   UNIT     CODE           ?CO?USB_DESC
FF0EA5H   FF0F1EH   00007AH   BYTE   INSEG    CODE           ?PR?USB_ISR?USB
FF0F1FH   FF0F85H   000067H   BYTE   INSEG    CODE           ?PR?USB_CTRL_IN?USB
FF0F86H   FF0FE1H   00005CH   BYTE   INSEG    CODE           ?PR?USB_REQ_STD?USB_REQ_STD
FF0FE2H   FF1037H   000056H   BYTE   INSEG    CODE           ?PR?USB_CTRL_OUT?USB
FF1038H   FF108BH   000054H   BYTE   INSEG    CODE           ?PR?USB_GET_CONFIGURATION?USB_REQ_STD
FF108CH   FF10D8H   00004DH   BYTE   INSEG    CODE           ?PR?LCD12864_SHOWPICTURE?UTIL
FF10D9H   FF1123H   00004BH   BYTE   INSEG    CODE           ?PR?USB_INIT?USB
FF1124H   FF116DH   00004AH   BYTE   INSEG    CODE           ?PR?USB_SET_ADDRESS?USB_REQ_STD
FF116EH   FF11B2H   000045H   BYTE   INSEG    CODE           ?PR?SEG7_SHOWSTRING?UTIL
FF11B3H   FF11F5H   000043H   BYTE   INSEG    CODE           ?PR?UART4_INT?UART
FF11F6H   FF1208H   000013H   BYTE   UNIT     CODE           ?C_C51STARTUP
FF1209H   FF1231H   000029H   BYTE   UNIT     CODE           ?C_C51STARTUP?2
FF1232H   FF1234H   000003H   BYTE   UNIT     CODE           ?C_C51STARTUP?3
L251 LINKER/LOCATER V4.66.93.0                                                        07/09/2022  13:59:50  PAGE 3


FF1235H   FF1272H   00003EH   BYTE   INSEG    CODE           ?PR?USB_GET_INTERFACE?USB_REQ_STD
FF1273H   FF12B0H   00003EH   BYTE   INSEG    CODE           ?PR?OLED12864_SHOWPICTURE?UTIL
FF12B1H   FF12EEH   00003EH   BYTE   INSEG    CODE           ?PR?LED40_SENDDATA?UTIL
FF12EFH   FF132CH   00003EH   BYTE   INSEG    CODE           ?PR?LED64_SENDDATA?UTIL
FF132DH   FF1369H   00003DH   BYTE   INSEG    CODE           ?PR?KEYRESETSCAN?UART
FF136AH   FF13A4H   00003BH   BYTE   INSEG    CODE           ?PR?UART3_INT?UART
FF13A5H   FF13DFH   00003BH   BYTE   INSEG    CODE           ?PR?SEG7_SHOWLONG?UTIL
FF13E0H   FF141AH   00003BH   BYTE   INSEG    CODE           ?PR?LCD12864_SHOWSTRING?UTIL
FF141BH   FF1454H   00003AH   BYTE   INSEG    CODE           ?PR?USB_READ_FIFO?_?USB
FF1455H   FF148DH   000039H   BYTE   INSEG    CODE           ?PR?UART3_CONFIG?UART
FF148EH   FF14C6H   000039H   BYTE   INSEG    CODE           ?PR?UART4_CONFIG?UART
FF14C7H   FF14FEH   000038H   BYTE   INSEG    CODE           ?PR?USB_RESET?USB
FF14FFH   FF1536H   000038H   BYTE   INSEG    CODE           ?PR?OLED12864_SCROLLRIGHT?UTIL
FF1537H   FF156EH   000038H   BYTE   INSEG    CODE           ?PR?OLED12864_SCROLLUP?UTIL
FF156FH   FF15A5H   000037H   BYTE   INSEG    CODE           ?PR?OLED12864_SCROLLLEFT?UTIL
FF15A6H   FF15D8H   000033H   BYTE   INSEG    CODE           ?PR?SEG7_SHOWCODE?UTIL
FF15D9H   FF1609H   000031H   BYTE   INSEG    CODE           ?PR?SEG7_SHOWFLOAT?UTIL
FF160AH   FF1638H   00002FH   BYTE   INSEG    CODE           ?PR?PRINTF_HID?UTIL
FF1639H   FF1666H   00002EH   BYTE   INSEG    CODE           ?PR?USB_REQ_CLASS?USB_REQ_CLASS
FF1667H   FF1693H   00002DH   BYTE   INSEG    CODE           ?PR?USB_IN_EP1?USB
FF1694H   FF16BDH   00002AH   BYTE   INSEG    CODE           ?PR?USB_GET_REPORT?USB_REQ_CLASS
FF16BEH   FF16E7H   00002AH   BYTE   INSEG    CODE           ?PR?USB_SET_REPORT?USB_REQ_CLASS
FF16E8H   FF1710H   000029H   BYTE   INSEG    CODE           ?PR?USB_IN?USB
FF1711H   FF1739H   000029H   BYTE   INSEG    CODE           ?PR?USB_WRITE_FIFO?_?USB
FF173AH   FF1761H   000028H   BYTE   INSEG    CODE           ?PR?USB_SET_INTERFACE?USB_REQ_STD
FF1762H   FF1787H   000026H   BYTE   INSEG    CODE           ?PR?USB_GET_IDLE?USB_REQ_CLASS
FF1788H   FF17ACH   000025H   BYTE   INSEG    CODE           ?PR?LCD12864_SCROLLUP?UTIL
FF17ADH   FF17D1H   000025H   BYTE   INSEG    CODE           ?PR?MEMCPY?_?MEMCPY
FF17D2H   FF17F0H   00001FH   BYTE   INSEG    CODE           ?PR?OLED12864_SETADDRESSMODE?UTIL
FF17F1H   FF180FH   00001FH   BYTE   INSEG    CODE           ?PR?OLED12864_SETCONTRAST?UTIL
FF1810H   FF182EH   00001FH   BYTE   INSEG    CODE           ?PR?LCD12864_REVERSELINE?UTIL
FF182FH   FF184CH   00001EH   BYTE   INSEG    CODE           ?PR?USB_SET_IDLE?USB_REQ_CLASS
FF184DH   FF1869H   00001DH   BYTE   INSEG    CODE           ?PR?SLEEP_US?UTIL
FF186AH   FF1883H   00001AH   BYTE   UNIT     CODE           ?PR?STRCMP?_
FF1884H   FF189CH   000019H   BYTE   INSEG    CODE           ?PR?USB_BULK_INTR_OUT?USB
FF189DH   FF18B5H   000019H   BYTE   INSEG    CODE           ?PR?OLED12864_SETHEADER?UTIL
FF18B6H   FF18CEH   000019H   BYTE   INSEG    CODE           ?PR?LCD12864_SETHEADER?UTIL
FF18CFH   FF18E7H   000019H   BYTE   INSEG    CODE           ?PR?SEG7_SETHEADER?UTIL
FF18E8H   FF18FFH   000018H   BYTE   INSEG    CODE           ?PR?SETTIMER2BAUDRAYE?UART
FF1900H   FF1917H   000018H   BYTE   INSEG    CODE           ?PR?USB_OUT_DONE?USB
FF1918H   FF192FH   000018H   BYTE   INSEG    CODE           ?PR?OLED12864_SCROLLSTART?UTIL
FF1930H   FF1947H   000018H   BYTE   INSEG    CODE           ?PR?OLED12864_DISPLAYON?UTIL
FF1948H   FF195FH   000018H   BYTE   INSEG    CODE           ?PR?LCD12864_SCROLLRIGHT?UTIL
FF1960H   FF1977H   000018H   BYTE   INSEG    CODE           ?PR?LCD12864_AUTOWRAPON?UTIL
FF1978H   FF198FH   000018H   BYTE   INSEG    CODE           ?PR?OLED12864_VERTICALMIRROR?UTIL
FF1990H   FF19A7H   000018H   BYTE   INSEG    CODE           ?PR?LCD12864_CURSORRETURNHOME?UTIL
FF19A8H   FF19BFH   000018H   BYTE   INSEG    CODE           ?PR?OLED12864_DISPLAYENTIRE?UTIL
FF19C0H   FF19D7H   000018H   BYTE   INSEG    CODE           ?PR?LCD12864_DISPLAYON?UTIL
FF19D8H   FF19EFH   000018H   BYTE   INSEG    CODE           ?PR?LCD12864_CURSORMOVERIGHT?UTIL
FF19F0H   FF1A07H   000018H   BYTE   INSEG    CODE           ?PR?SLEEP_MS?UTIL
FF1A08H   FF1A1FH   000018H   BYTE   INSEG    CODE           ?PR?LCD12864_CURSORON?UTIL
FF1A20H   FF1A36H   000017H   BYTE   INSEG    CODE           ?PR?OLED12864_DISPLAYOFF?UTIL
FF1A37H   FF1A4DH   000017H   BYTE   INSEG    CODE           ?PR?LCD12864_AUTOWRAPOFF?UTIL
FF1A4EH   FF1A64H   000017H   BYTE   INSEG    CODE           ?PR?OLED12864_SCROLLSTOP?UTIL
FF1A65H   FF1A7BH   000017H   BYTE   INSEG    CODE           ?PR?LCD12864_DISPLAYOFF?UTIL
FF1A7CH   FF1A92H   000017H   BYTE   INSEG    CODE           ?PR?LCD12864_SCROLLLEFT?UTIL
FF1A93H   FF1AA9H   000017H   BYTE   INSEG    CODE           ?PR?OLED12864_HORIZONTALMIRROR?UTIL
FF1AAAH   FF1AC0H   000017H   BYTE   INSEG    CODE           ?PR?OLED12864_DISPLAYCONTENT?UTIL
FF1AC1H   FF1AD7H   000017H   BYTE   INSEG    CODE           ?PR?LCD12864_CURSOROFF?UTIL
FF1AD8H   FF1AEEH   000017H   BYTE   INSEG    CODE           ?PR?LCD12864_CURSORMOVELEFT?UTIL
FF1AEFH   FF1B04H   000016H   BYTE   INSEG    CODE           ?PR?DELAY_MS?UART
FF1B05H   FF1B19H   000015H   BYTE   INSEG    CODE           ?PR?USB_BULK_INTR_IN?USB
FF1B1AH   FF1B2EH   000015H   BYTE   INSEG    CODE           ?PR?USB_READ_REG?USB
FF1B2FH   FF1B41H   000013H   BYTE   INSEG    CODE           ?PR?USB_WRITE_REG?USB
FF1B42H   FF1B53H   000012H   BYTE   INSEG    CODE           ?PR?LCD12864_DISPLAYCLEAR?UTIL
L251 LINKER/LOCATER V4.66.93.0                                                        07/09/2022  13:59:50  PAGE 4


FF1B54H   FF1B65H   000012H   BYTE   INSEG    CODE           ?PR?OLED12864_DISPLAYREVERSE?UTIL
FF1B66H   FF1B76H   000011H   BYTE   INSEG    CODE           ?PR?USB_SETUP_IN?USB
FF1B77H   FF1B84H   00000EH   BYTE   INSEG    CODE           ?PR?USB_SETUP_OUT?USB
FF1B85H   FF1B92H   00000EH   BYTE   INSEG    CODE           ?PR?USB_SETUP_STALL?USB
FF1B93H   FF1BA0H   00000EH   BYTE   INSEG    CODE           ?PR?STRLEN?_?STRLEN
FF1BA1H   FF1BADH   00000DH   BYTE   INSEG    CODE           ?PR?USB_SETUP_STATUS?USB
FF1BAEH   FF1BB6H   000009H   BYTE   INSEG    CODE           ?PR?UART4_TXBYTE?UART
FF1BB7H   FF1BB9H   000003H   BYTE   INSEG    CODE           ?PR?USB_SET_DESCRIPTOR?USB_REQ_STD
FF1BBAH   FF1BBCH   000003H   BYTE   INSEG    CODE           ?PR?USB_SYNCH_FRAME?USB_REQ_STD
FF1BBDH   FF1BBFH   000003H   BYTE   INSEG    CODE           ?PR?USB_REQ_VENDOR?USB_REQ_VENDOR
FF1BC0H   FF1BC3H   000004H   BYTE   UNIT     CONST          ?CO?PRINTF
FF1BC4H   FF1BDDH   00001AH   BYTE   UNIT     HCONST         ?C_INITEDATA
FF1BDEH   FF1BE6H   000009H   BYTE   UNIT     HCONST         ?HC?UART



OVERLAY MAP OF MODULE:   UART (UART)


FUNCTION/MODULE                        EDATA_GROUP
--> CALLED FUNCTION/MODULE             START  STOP
==================================================
UART3_int/UART                         ----- -----

*** NEW ROOT *************************

UART4_int/UART                         ----- -----

*** NEW ROOT *************************

timer0/UART                            ----- -----

*** NEW ROOT *************************

usb_isr/usb                            ----- -----
  +--> usb_read_reg/usb
  +--> usb_resume/usb
  +--> usb_reset/usb
  +--> usb_setup/usb
  +--> usb_in_ep1/usb
  +--> usb_out_ep1/usb
  +--> usb_suspend/usb

usb_read_reg/usb                       ----- -----

usb_resume/usb                         ----- -----

usb_reset/usb                          ----- -----
  +--> usb_write_reg/usb

usb_write_reg/usb                      ----- -----

usb_setup/usb                          ----- -----
  +--> usb_write_reg/usb
  +--> usb_read_reg/usb
  +--> usb_read_fifo?_/usb
  +--> reverse2/util
  +--> usb_req_std/usb_req_std
  +--> usb_req_class/usb_req_class
  +--> usb_req_vendor/usb_req_vendor
  +--> usb_setup_stall/usb
  +--> usb_ctrl_in/usb
  +--> usb_ctrl_out/usb

usb_read_fifo?_/usb                    ----- -----
L251 LINKER/LOCATER V4.66.93.0                                                        07/09/2022  13:59:50  PAGE 5


  +--> usb_read_reg/usb

reverse2/util                          011DH 0120H

usb_req_std/usb_req_std                ----- -----
  +--> usb_get_status/usb_req_std
  +--> usb_clear_feature/usb_req_std
  +--> usb_set_feature/usb_req_std
  +--> usb_set_address/usb_req_std
  +--> usb_get_descriptor/usb_req_std
  +--> usb_set_descriptor/usb_req_std
  +--> usb_get_configuration/usb_req_std
  +--> usb_set_configuration/usb_req_std
  +--> usb_get_interface/usb_req_std
  +--> usb_set_interface/usb_req_std
  +--> usb_synch_frame/usb_req_std
  +--> usb_setup_stall/usb

usb_get_status/usb_req_std             ----- -----
  +--> usb_setup_stall/usb
  +--> usb_setup_in/usb

usb_setup_stall/usb                    ----- -----
  +--> usb_write_reg/usb

usb_setup_in/usb                       ----- -----
  +--> usb_write_reg/usb
  +--> usb_ctrl_in/usb

usb_ctrl_in/usb                        ----- -----
  +--> usb_write_reg/usb
  +--> usb_read_reg/usb
  +--> usb_write_fifo?_/usb

usb_write_fifo?_/usb                   ----- -----
  +--> usb_write_reg/usb

usb_clear_feature/usb_req_std          ----- -----
  +--> usb_write_reg/usb
  +--> usb_setup_stall/usb
  +--> usb_setup_status/usb

usb_setup_status/usb                   ----- -----
  +--> usb_write_reg/usb

usb_set_feature/usb_req_std            ----- -----
  +--> usb_write_reg/usb
  +--> usb_setup_stall/usb
  +--> usb_setup_status/usb

usb_set_address/usb_req_std            ----- -----
  +--> usb_setup_stall/usb
  +--> usb_write_reg/usb
  +--> usb_setup_status/usb

usb_get_descriptor/usb_req_std         ----- -----
  +--> usb_setup_stall/usb
  +--> usb_setup_in/usb

usb_set_descriptor/usb_req_std         ----- -----
  +--> usb_setup_stall/usb

usb_get_configuration/usb_req_std      ----- -----
  +--> usb_setup_stall/usb
  +--> usb_setup_in/usb
L251 LINKER/LOCATER V4.66.93.0                                                        07/09/2022  13:59:50  PAGE 6



usb_set_configuration/usb_req_std      ----- -----
  +--> usb_setup_stall/usb
  +--> usb_write_reg/usb
  +--> usb_setup_status/usb

usb_get_interface/usb_req_std          ----- -----
  +--> usb_setup_stall/usb
  +--> usb_setup_in/usb

usb_set_interface/usb_req_std          ----- -----
  +--> usb_setup_stall/usb
  +--> usb_setup_status/usb

usb_synch_frame/usb_req_std            ----- -----
  +--> usb_setup_stall/usb

usb_req_class/usb_req_class            ----- -----
  +--> usb_get_report/usb_req_class
  +--> usb_set_report/usb_req_class
  +--> usb_get_idle/usb_req_class
  +--> usb_set_idle/usb_req_class
  +--> usb_get_protocol/usb_req_class
  +--> usb_set_protocol/usb_req_class
  +--> usb_setup_stall/usb

usb_get_report/usb_req_class           ----- -----
  +--> usb_setup_stall/usb
  +--> usb_setup_in/usb

usb_set_report/usb_req_class           ----- -----
  +--> usb_setup_stall/usb
  +--> usb_setup_out/usb

usb_setup_out/usb                      ----- -----
  +--> usb_write_reg/usb

usb_get_idle/usb_req_class             ----- -----
  +--> usb_setup_stall/usb
  +--> usb_setup_in/usb

usb_set_idle/usb_req_class             ----- -----
  +--> usb_setup_stall/usb
  +--> usb_setup_status/usb

usb_get_protocol/usb_req_class         ----- -----
  +--> usb_setup_stall/usb

usb_set_protocol/usb_req_class         ----- -----
  +--> usb_setup_stall/usb

usb_req_vendor/usb_req_vendor          ----- -----
  +--> usb_setup_stall/usb

usb_ctrl_out/usb                       ----- -----
  +--> usb_write_reg/usb
  +--> usb_read_reg/usb
  +--> usb_read_fifo?_/usb

usb_in_ep1/usb                         ----- -----
  +--> usb_write_reg/usb
  +--> usb_read_reg/usb

usb_out_ep1/usb                        ----- -----
  +--> usb_write_reg/usb
L251 LINKER/LOCATER V4.66.93.0                                                        07/09/2022  13:59:50  PAGE 7


  +--> usb_read_reg/usb
  +--> usb_bulk_intr_out/usb
  +--> usb_read_fifo?_/usb
  +--> STRCMP?_/STRCMP?_
  +--> sleep_ms/util

usb_bulk_intr_out/usb                  ----- -----
  +--> usb_read_fifo?_/usb
  +--> usb_write_reg/usb

STRCMP?_/STRCMP?_                      ----- -----

sleep_ms/util                          ----- -----
  +--> sleep_us/util

sleep_us/util                          ----- -----

usb_suspend/usb                        ----- -----

*** NEW ROOT *************************

?C_C51STARTUP                          ----- -----

*** NEW ROOT *************************

?C_C51STARTUP?3                        ----- -----
  +--> main/UART

main/UART                              ----- -----
  +--> usb_init/usb
  +--> UART3_config/UART
  +--> UART4_config/UART
  +--> usb_OUT_done/usb
  +--> KeyResetScan/UART
  +--> UART4_TxByte/UART

usb_init/usb                           ----- -----
  +--> usb_write_reg/usb

UART3_config/UART                      ----- -----
  +--> SetTimer2Baudraye/UART

SetTimer2Baudraye/UART                 ----- -----

UART4_config/UART                      ----- -----
  +--> SetTimer2Baudraye/UART

usb_OUT_done/usb                       ----- -----
  +--> usb_write_reg/usb

KeyResetScan/UART                      ----- -----
  +--> delay_ms/UART

delay_ms/UART                          ----- -----

UART4_TxByte/UART                      ----- -----

*** NEW ROOT *************************

?C_C51STARTUP?2                        ----- -----



PUBLIC SYMBOLS OF MODULE:  UART (UART)

L251 LINKER/LOCATER V4.66.93.0                                                        07/09/2022  13:59:50  PAGE 8



      VALUE       CLASS    TYPE      PUBLIC SYMBOL NAME
      =================================================
      000000FFH   NUMBER   ---       ?C?CODESEG
      00FF0534H   CODE     ---       ?C?FPCONVERT
      00FF06CFH   CODE     ---       ?C?FPDIV
      00FF07B7H   CODE     ---       ?C?FPGETOPN2
      00FF062FH   CODE     ---       ?C?FPMUL
      00FF07F4H   CODE     ---       ?C?FPNANRESULT
      00FF07FCH   CODE     ---       ?C?FPOVERFLOW
      00FF07D0H   CODE     ---       ?C?FPRESULT
      00FF07E6H   CODE     ---       ?C?FPRESULT2
      00FF05ECH   CODE     ---       ?C?FPROUND
      00FF07F9H   CODE     ---       ?C?FPUNDERFLOW
      00FF0780H   CODE     ---       ?C?FTNPWR
      00FF1209H   CODE     ---       ?C?INITEDATA
      00FF1BDCH   HCONST   WORD      ?C?INITEDATA_END
      00FF0808H   CODE     ---       ?C?LMUL
      00FF0117H   CODE     ---       ?C?PRNFMT
      00FF0000H   CODE     ---       ?C?STARTUP
      00000001H   NUMBER   ---       ?C?XDATASEG
      00FF0000H   CODE     ---       ?C_STARTUP
      0000010CH   EDATA    BYTE      ?printf_hid?BYTE
      000000E0H   EDATA    BYTE      ?SEG7_ShowString?BYTE
      00000111H   EDATA    ---       ?vsprintf?BYTE
*SFR* 000000BCH   DATA     BYTE      ADC_CONTR
*SFR* 000000DEH   DATA     BYTE      ADCCFG
*SFR* 000000EFH   DATA     BYTE      AUXINTIF
*SFR* 0000008EH   DATA     BYTE      AUXR
*SFR* 00000097H   DATA     BYTE      AUXR2
      00000020H.3 BIT      BIT       B_1ms
      00000020H.1 BIT      BIT       B_TX3_Busy
      00000020H.2 BIT      BIT       B_TX4_Busy
      0000001FH   EDATA    BYTE      bHidIdle
      00000020H.5 BIT      BIT       bUsbFeatureReady
      00000020H.6 BIT      BIT       bUsbInBusy
      00000020H.4 BIT      BIT       bUsbOutReady
*SFR* 000000F1H   DATA     BYTE      CANICR
*SFR* 000000EAH   DATA     BYTE      CKCON
*SFR* 000000E6H   DATA     BYTE      CMPCR1
*SFR* 000000E7H   DATA     BYTE      CMPCR2
      00FF0E70H   CODE     ---       CONFIGDESC
      00FF1AEFH   CODE     ---       delay_ms
      00FF0E43H   CODE     ---       DEVICEDESC
      00000010H   EDATA    BYTE      DeviceState
*SFR* 000000A8H.7 DATA     BIT       EA
*SFR* 000000BAH.7 DATA     BIT       EAXFR
      00000011H   EDATA    ---       Ep0State
*SFR* 000000AFH.3 DATA     BIT       ES3
*SFR* 000000AFH.4 DATA     BIT       ES4
*SFR* 000000A8H.1 DATA     BIT       ET0
*SFR* 000000AFH.2 DATA     BIT       ET2
*SFR* 000000AFH.7 DATA     BIT       EUSB
      00FF0E55H   CODE     ---       HIDREPORTDESC
*SFR* 000000C7H   DATA     BYTE      IAP_CONTR
*SFR* 000000A8H   DATA     BYTE      IE
*SFR* 000000AFH   DATA     BYTE      IE2
      00000018H   EDATA    BYTE      InEpState
*SFR* 0000008FH   DATA     BYTE      INTCLKO
*SFR* 000000B8H   DATA     BYTE      IP
*SFR* 000000B5H   DATA     BYTE      IP2
*SFR* 000000B6H   DATA     BYTE      IP2H
*SFR* 000000DFH   DATA     BYTE      IP3
*SFR* 000000EEH   DATA     BYTE      IP3H
*SFR* 000000B7H   DATA     BYTE      IPH
L251 LINKER/LOCATER V4.66.93.0                                                        07/09/2022  13:59:50  PAGE 9


*SFR* 0000009DH   DATA     BYTE      IRCBAND
      000000AAH   EDATA    WORD      Key_cnt
      00000020H.0 BIT      BIT       Key_Flag
      00FF132DH   CODE     ---       KeyResetScan
      00FF0E3FH   CODE     ---       LANGIDDESC
      00FF1A37H   CODE     ---       LCD12864_AutoWrapOff
      00FF1960H   CODE     ---       LCD12864_AutoWrapOn
      00FF1AD8H   CODE     ---       LCD12864_CursorMoveLeft
      00FF19D8H   CODE     ---       LCD12864_CursorMoveRight
      00FF1AC1H   CODE     ---       LCD12864_CursorOff
      00FF1A08H   CODE     ---       LCD12864_CursorOn
      00FF1990H   CODE     ---       LCD12864_CursorReturnHome
      00FF1B42H   CODE     ---       LCD12864_DisplayClear
      00FF1A65H   CODE     ---       LCD12864_DisplayOff
      00FF19C0H   CODE     ---       LCD12864_DisplayOn
      00FF1810H   CODE     ---       LCD12864_ReverseLine
      00FF1A7CH   CODE     ---       LCD12864_ScrollLeft
      00FF1948H   CODE     ---       LCD12864_ScrollRight
      00FF1788H   CODE     ---       LCD12864_ScrollUp
      00FF108CH   CODE     ---       LCD12864_ShowPicture
      00FF13E0H   CODE     ---       LCD12864_ShowString
      00FF12B1H   CODE     ---       LED40_SendData
      00FF12EFH   CODE     ---       LED64_SendData
*SFR* 000000F9H   DATA     BYTE      LINICR
      00FF09F4H   CODE     ---       main
      00FF0E9DH   CODE     ---       MANUFACTDESC
      00FF17ADH   CODE     ---       memcpy?_
      00FF1AAAH   CODE     ---       OLED12864_DisplayContent
      00FF19A8H   CODE     ---       OLED12864_DisplayEntire
      00FF1A20H   CODE     ---       OLED12864_DisplayOff
      00FF1930H   CODE     ---       OLED12864_DisplayOn
      00FF1B54H   CODE     ---       OLED12864_DisplayReverse
      00FF1A93H   CODE     ---       OLED12864_HorizontalMirror
      00FF156FH   CODE     ---       OLED12864_ScrollLeft
      00FF14FFH   CODE     ---       OLED12864_ScrollRight
      00FF1918H   CODE     ---       OLED12864_ScrollStart
      00FF1A4EH   CODE     ---       OLED12864_ScrollStop
      00FF1537H   CODE     ---       OLED12864_ScrollUp
      00FF17D2H   CODE     ---       OLED12864_SetAddressMode
      00FF17F1H   CODE     ---       OLED12864_SetContrast
      00FF1273H   CODE     ---       OLED12864_ShowPicture
      00FF1978H   CODE     ---       OLED12864_VerticalMirror
      00000019H   EDATA    BYTE      OutEpState
*SFR* 00000080H   DATA     BYTE      P0
*SFR* 00000094H   DATA     BYTE      P0M0
*SFR* 00000093H   DATA     BYTE      P0M1
*SFR* 00000090H   DATA     BYTE      P1
*SFR* 00000092H   DATA     BYTE      P1M0
*SFR* 00000091H   DATA     BYTE      P1M1
*SFR* 000000A0H   DATA     BYTE      P2
*SFR* 00000096H   DATA     BYTE      P2M0
*SFR* 00000095H   DATA     BYTE      P2M1
*SFR* 000000B0H   DATA     BYTE      P3
*SFR* 000000B0H.2 DATA     BIT       P32
*SFR* 000000B2H   DATA     BYTE      P3M0
*SFR* 000000B1H   DATA     BYTE      P3M1
*SFR* 000000C0H   DATA     BYTE      P4
*SFR* 000000B4H   DATA     BYTE      P4M0
*SFR* 000000B3H   DATA     BYTE      P4M1
*SFR* 000000C8H   DATA     BYTE      P5
*SFR* 000000CAH   DATA     BYTE      P5M0
*SFR* 000000C9H   DATA     BYTE      P5M1
*SFR* 000000E8H   DATA     BYTE      P6
*SFR* 000000CCH   DATA     BYTE      P6M0
*SFR* 000000CBH   DATA     BYTE      P6M1
L251 LINKER/LOCATER V4.66.93.0                                                        07/09/2022  13:59:50  PAGE 10


*SFR* 000000F8H   DATA     BYTE      P7
*SFR* 000000E2H   DATA     BYTE      P7M0
*SFR* 000000E1H   DATA     BYTE      P7M1
*SFR* 000000A2H   DATA     BYTE      P_SW1
*SFR* 000000BAH   DATA     BYTE      P_SW2
*SFR* 000000BBH   DATA     BYTE      P_SW3
      00FF0E99H   CODE     ---       PACKET0
      00FF0E9BH   CODE     ---       PACKET1
*SFR* 00000087H   DATA     BYTE      PCON
      00FF160AH   CODE     ---       printf_hid
      00FF0E25H   CODE     ---       PRODUCTDESC
*SFR* 000000D0H   DATA     BYTE      PSW
      00FF0096H   CODE     ---       reverse2
*SFR* 000000FFH   DATA     BYTE      RSTCFG
      00000024H   EDATA    ---       RX3_Buffer
      000000ACH   EDATA    BYTE      RX3_Cnt
      00000022H   EDATA    BYTE      RX3_TimeOut
      00000064H   EDATA    ---       RX4_Buffer
      000000ADH   EDATA    BYTE      RX4_Cnt
      00000023H   EDATA    BYTE      RX4_TimeOut
*SFR* 0000009AH   DATA     BYTE      S2CON
*SFR* 000000BAH.1 DATA     BIT       S3_S
*SFR* 000000ADH   DATA     BYTE      S3BUF
*SFR* 000000ACH   DATA     BYTE      S3CON
*SFR* 000000ACH.0 DATA     BIT       S3RI
*SFR* 000000ACH.1 DATA     BIT       S3TI
*SFR* 000000BAH.2 DATA     BIT       S4_S
*SFR* 000000FEH   DATA     BYTE      S4BUF
*SFR* 000000FDH   DATA     BYTE      S4CON
*SFR* 000000FDH.0 DATA     BIT       S4RI
*SFR* 000000FDH.1 DATA     BIT       S4TI
*SFR* 00000098H   DATA     BYTE      SCON
      000000A4H   EDATA    WORD      Sec_Cnt
      00FF15A6H   CODE     ---       SEG7_ShowCode
      00FF15D9H   CODE     ---       SEG7_ShowFloat
      00FF13A5H   CODE     ---       SEG7_ShowLong
      00FF116EH   CODE     ---       SEG7_ShowString
      00FF18E8H   CODE     ---       SetTimer2Baudraye
      00000008H   EDATA    ---       Setup
      00FF19F0H   CODE     ---       sleep_ms
      00FF184DH   CODE     ---       sleep_us
*SFR* 000000CEH   DATA     BYTE      SPCTL
*SFR* 000000CDH   DATA     BYTE      SPSTAT
      00FF186EH   CODE     NEAR LAB  strcmp?_
      00FF1B93H   CODE     ---       strlen?_
*SFR* 0000008EH.3 DATA     BIT       T2_CT
*SFR* 000000D6H   DATA     BYTE      T2H
*SFR* 000000D7H   DATA     BYTE      T2L
*SFR* 0000008EH.4 DATA     BIT       T2R
*SFR* 0000008EH.2 DATA     BIT       T2x12
*SFR* 000000DDH.2 DATA     BIT       T3_CT
*SFR* 000000D4H   DATA     BYTE      T3H
*SFR* 000000D5H   DATA     BYTE      T3L
*SFR* 000000DDH.3 DATA     BIT       T3R
*SFR* 000000DDH.1 DATA     BIT       T3x12
*SFR* 000000DDH.6 DATA     BIT       T4_CT
*SFR* 000000D2H   DATA     BYTE      T4H
*SFR* 000000D3H   DATA     BYTE      T4L
*SFR* 000000DDH.7 DATA     BIT       T4R
*SFR* 000000DDH   DATA     BYTE      T4T3M
*SFR* 000000DDH.5 DATA     BIT       T4x12
*SFR* 00000088H   DATA     BYTE      TCON
*SFR* 0000008CH   DATA     BYTE      TH0
      00FF0003H   CODE     ---       timer0
*SFR* 0000008AH   DATA     BYTE      TL0
L251 LINKER/LOCATER V4.66.93.0                                                        07/09/2022  13:59:50  PAGE 11


*SFR* 00000089H   DATA     BYTE      TMOD
*SFR* 00000088H.4 DATA     BIT       TR0
      000000B2H   EDATA    BYTE      TX3_Cnt
      000000B3H   EDATA    BYTE      TX4_Cnt
      00000021H   EDATA    BYTE      TX_Data
      00FF1455H   CODE     ---       UART3_config
      00FF136AH   CODE     ---       UART3_int
      00FF148EH   CODE     ---       UART4_config
      00FF11B3H   CODE     ---       UART4_int
      00FF1BAEH   CODE     ---       UART4_TxByte
      00FF1B05H   CODE     ---       usb_bulk_intr_in
      00FF1884H   CODE     ---       usb_bulk_intr_out
      00FF0AC0H   CODE     ---       usb_clear_feature
      00FF0F1FH   CODE     ---       usb_ctrl_in
      00FF0FE2H   CODE     ---       usb_ctrl_out
      00FF1038H   CODE     ---       usb_get_configuration
      00FF0918H   CODE     ---       usb_get_descriptor
      00FF1762H   CODE     ---       usb_get_idle
      00FF1235H   CODE     ---       usb_get_interface
      00FF0006H   CODE     ---       usb_get_protocol
      00FF1694H   CODE     ---       usb_get_report
      00FF0819H   CODE     ---       usb_get_status
      00FF16E8H   CODE     ---       usb_IN
      00FF1667H   CODE     ---       usb_in_ep1
      00FF10D9H   CODE     ---       usb_init
      00FF0EA5H   CODE     ---       usb_isr
      00FF1900H   CODE     ---       usb_OUT_done
      00FF000EH   CODE     ---       usb_out_ep1
      00FF141BH   CODE     ---       usb_read_fifo?_
      00FF1B1AH   CODE     ---       usb_read_reg
      00FF1639H   CODE     ---       usb_req_class
      00FF0F86H   CODE     ---       usb_req_std
      00FF1BBDH   CODE     ---       usb_req_vendor
      00FF14C7H   CODE     ---       usb_reset
      00FF000AH   CODE     ---       usb_resume
      00FF1124H   CODE     ---       usb_set_address
      00FF0D0EH   CODE     ---       usb_set_configuration
      00FF1BB7H   CODE     ---       usb_set_descriptor
      00FF0B5BH   CODE     ---       usb_set_feature
      00FF182FH   CODE     ---       usb_set_idle
      00FF173AH   CODE     ---       usb_set_interface
      00FF008EH   CODE     ---       usb_set_protocol
      00FF16BEH   CODE     ---       usb_set_report
      00FF0D9BH   CODE     ---       usb_setup
      00FF1B66H   CODE     ---       usb_setup_in
      00FF1B77H   CODE     ---       usb_setup_out
      00FF1B85H   CODE     ---       usb_setup_stall
      00FF1BA1H   CODE     ---       usb_setup_status
      00FF0009H   CODE     ---       usb_suspend
      00FF1BBAH   CODE     ---       usb_synch_frame
      00FF1711H   CODE     ---       usb_write_fifo?_
      00FF1B2FH   CODE     ---       usb_write_reg
*SFR* 000000FCH   DATA     BYTE      USBADR
*SFR* 000000DCH   DATA     BYTE      USBCLK
*SFR* 000000F4H   DATA     BYTE      USBCON
*SFR* 000000ECH   DATA     BYTE      USBDAT
      00010080H   XDATA    ---       UsbFeatureBuffer
      00010000H   XDATA    ---       UsbInBuffer
      00010040H   XDATA    ---       UsbOutBuffer
      000000B4H   EDATA    ---       USER_DEVICEDESC
      000000AEH   EDATA    ---       USER_PRODUCTDESC
      000000A6H   EDATA    ---       USER_STCISPCMD
      00FF00CEH   CODE     NEAR LAB  vsprintf
*SFR* 000000C1H   DATA     BYTE      WDT_CONTR
*SFR* 000000E9H   DATA     BYTE      WTST
L251 LINKER/LOCATER V4.66.93.0                                                        07/09/2022  13:59:50  PAGE 12





SYMBOL TABLE OF MODULE:  UART (UART)

      VALUE       REP       CLASS    TYPE      SYMBOL NAME
      ====================================================
      ---         MODULE    ---      ---       UART
      00FF18E8H   PUBLIC    CODE     ---       SetTimer2Baudraye
      00FF136AH   PUBLIC    CODE     ---       UART3_int
      00FF11B3H   PUBLIC    CODE     ---       UART4_int
      00FF09F4H   PUBLIC    CODE     ---       main
      00FF1BAEH   PUBLIC    CODE     ---       UART4_TxByte
      00FF132DH   PUBLIC    CODE     ---       KeyResetScan
      00FF1455H   PUBLIC    CODE     ---       UART3_config
      00FF148EH   PUBLIC    CODE     ---       UART4_config
      00FF1AEFH   PUBLIC    CODE     ---       delay_ms
      00FF0003H   PUBLIC    CODE     ---       timer0
      00000020H.0 PUBLIC    BIT      BIT       Key_Flag
      00000020H.1 PUBLIC    BIT      BIT       B_TX3_Busy
      00000020H.2 PUBLIC    BIT      BIT       B_TX4_Busy
      00000020H.3 PUBLIC    BIT      BIT       B_1ms
      00000021H   PUBLIC    EDATA    BYTE      TX_Data
      00000022H   PUBLIC    EDATA    BYTE      RX3_TimeOut
      00000023H   PUBLIC    EDATA    BYTE      RX4_TimeOut
      00000024H   PUBLIC    EDATA    ---       RX3_Buffer
      00000064H   PUBLIC    EDATA    ---       RX4_Buffer
      000000A4H   PUBLIC    EDATA    WORD      Sec_Cnt
      000000A6H   PUBLIC    EDATA    ---       USER_STCISPCMD
      000000AAH   PUBLIC    EDATA    WORD      Key_cnt
      000000ACH   PUBLIC    EDATA    BYTE      RX3_Cnt
      000000ADH   PUBLIC    EDATA    BYTE      RX4_Cnt
      000000AEH   PUBLIC    EDATA    ---       USER_PRODUCTDESC
      000000B2H   PUBLIC    EDATA    BYTE      TX3_Cnt
      000000B3H   PUBLIC    EDATA    BYTE      TX4_Cnt
      000000B4H   PUBLIC    EDATA    ---       USER_DEVICEDESC
      0000008EH.3 SFRSYM    DATA     BIT       T2_CT
      00000094H   SFRSYM    DATA     BYTE      P0M0
      000000D0H   SFRSYM    DATA     BYTE      PSW
      000000BAH.7 SFRSYM    DATA     BIT       EAXFR
      0000009DH   SFRSYM    DATA     BYTE      IRCBAND
      00000097H   SFRSYM    DATA     BYTE      AUXR2
      000000EAH   SFRSYM    DATA     BYTE      CKCON
      000000EFH   SFRSYM    DATA     BYTE      AUXINTIF
      000000FDH   SFRSYM    DATA     BYTE      S4CON
      000000ACH   SFRSYM    DATA     BYTE      S3CON
      0000009AH   SFRSYM    DATA     BYTE      S2CON
      000000FEH   SFRSYM    DATA     BYTE      S4BUF
      000000ADH   SFRSYM    DATA     BYTE      S3BUF
      000000DDH.5 SFRSYM    DATA     BIT       T4x12
      000000DDH.1 SFRSYM    DATA     BIT       T3x12
      0000008EH.2 SFRSYM    DATA     BIT       T2x12
      000000B7H   SFRSYM    DATA     BYTE      IPH
      000000CDH   SFRSYM    DATA     BYTE      SPSTAT
      000000DDH   SFRSYM    DATA     BYTE      T4T3M
      000000DDH.7 SFRSYM    DATA     BIT       T4R
      000000DDH.3 SFRSYM    DATA     BIT       T3R
      0000008EH.4 SFRSYM    DATA     BIT       T2R
      000000C1H   SFRSYM    DATA     BYTE      WDT_CONTR
      00000088H.4 SFRSYM    DATA     BIT       TR0
      000000D3H   SFRSYM    DATA     BYTE      T4L
      000000D5H   SFRSYM    DATA     BYTE      T3L
      000000E9H   SFRSYM    DATA     BYTE      WTST
      000000D7H   SFRSYM    DATA     BYTE      T2L
      0000008AH   SFRSYM    DATA     BYTE      TL0
L251 LINKER/LOCATER V4.66.93.0                                                        07/09/2022  13:59:50  PAGE 13


      000000D2H   SFRSYM    DATA     BYTE      T4H
      000000D4H   SFRSYM    DATA     BYTE      T3H
      000000D6H   SFRSYM    DATA     BYTE      T2H
      0000008CH   SFRSYM    DATA     BYTE      TH0
      000000AFH.4 SFRSYM    DATA     BIT       ES4
      000000DFH   SFRSYM    DATA     BYTE      IP3
      000000F4H   SFRSYM    DATA     BYTE      USBCON
      000000AFH.3 SFRSYM    DATA     BIT       ES3
      000000AFH.2 SFRSYM    DATA     BIT       ET2
      000000B5H   SFRSYM    DATA     BYTE      IP2
      000000FFH   SFRSYM    DATA     BYTE      RSTCFG
      000000A8H.1 SFRSYM    DATA     BIT       ET0
      000000DCH   SFRSYM    DATA     BYTE      USBCLK
      000000C7H   SFRSYM    DATA     BYTE      IAP_CONTR
      000000F9H   SFRSYM    DATA     BYTE      LINICR
      0000008EH   SFRSYM    DATA     BYTE      AUXR
      000000AFH   SFRSYM    DATA     BYTE      IE2
      000000BAH.2 SFRSYM    DATA     BIT       S4_S
      000000BAH.1 SFRSYM    DATA     BIT       S3_S
      00000088H   SFRSYM    DATA     BYTE      TCON
      00000089H   SFRSYM    DATA     BYTE      TMOD
      000000B0H.2 SFRSYM    DATA     BIT       P32
      00000098H   SFRSYM    DATA     BYTE      SCON
      000000F1H   SFRSYM    DATA     BYTE      CANICR
      00000087H   SFRSYM    DATA     BYTE      PCON
      000000BCH   SFRSYM    DATA     BYTE      ADC_CONTR
      000000AFH.7 SFRSYM    DATA     BIT       EUSB
      000000E7H   SFRSYM    DATA     BYTE      CMPCR2
      000000E6H   SFRSYM    DATA     BYTE      CMPCR1
      000000FDH.1 SFRSYM    DATA     BIT       S4TI
      000000ACH.1 SFRSYM    DATA     BIT       S3TI
      000000FDH.0 SFRSYM    DATA     BIT       S4RI
      000000ACH.0 SFRSYM    DATA     BIT       S3RI
      000000DEH   SFRSYM    DATA     BYTE      ADCCFG
      000000B8H   SFRSYM    DATA     BYTE      IP
      0000008FH   SFRSYM    DATA     BYTE      INTCLKO
      000000EEH   SFRSYM    DATA     BYTE      IP3H
      000000B6H   SFRSYM    DATA     BYTE      IP2H
      000000A8H   SFRSYM    DATA     BYTE      IE
      000000BBH   SFRSYM    DATA     BYTE      P_SW3
      000000BAH   SFRSYM    DATA     BYTE      P_SW2
      000000A2H   SFRSYM    DATA     BYTE      P_SW1
      000000CEH   SFRSYM    DATA     BYTE      SPCTL
      000000F8H   SFRSYM    DATA     BYTE      P7
      000000A8H.7 SFRSYM    DATA     BIT       EA
      000000E1H   SFRSYM    DATA     BYTE      P7M1
      000000E8H   SFRSYM    DATA     BYTE      P6
      000000C8H   SFRSYM    DATA     BYTE      P5
      000000CBH   SFRSYM    DATA     BYTE      P6M1
      000000E2H   SFRSYM    DATA     BYTE      P7M0
      000000C0H   SFRSYM    DATA     BYTE      P4
      000000C9H   SFRSYM    DATA     BYTE      P5M1
      000000CCH   SFRSYM    DATA     BYTE      P6M0
      000000B0H   SFRSYM    DATA     BYTE      P3
      000000B3H   SFRSYM    DATA     BYTE      P4M1
      000000CAH   SFRSYM    DATA     BYTE      P5M0
      000000A0H   SFRSYM    DATA     BYTE      P2
      000000B1H   SFRSYM    DATA     BYTE      P3M1
      000000B4H   SFRSYM    DATA     BYTE      P4M0
      00000090H   SFRSYM    DATA     BYTE      P1
      00000095H   SFRSYM    DATA     BYTE      P2M1
      000000B2H   SFRSYM    DATA     BYTE      P3M0
      00000080H   SFRSYM    DATA     BYTE      P0
      00000091H   SFRSYM    DATA     BYTE      P1M1
      00000096H   SFRSYM    DATA     BYTE      P2M0
L251 LINKER/LOCATER V4.66.93.0                                                        07/09/2022  13:59:50  PAGE 14


      000000DDH.6 SFRSYM    DATA     BIT       T4_CT
      00000092H   SFRSYM    DATA     BYTE      P1M0
      00000093H   SFRSYM    DATA     BYTE      P0M1
      000000DDH.2 SFRSYM    DATA     BIT       T3_CT

      00FF09F4H   BLOCK     CODE     ---       LVL=0
      00FF09F4H   LINE      CODE     ---       #82
      00FF09F4H   LINE      CODE     ---       #86
      00FF09F7H   LINE      CODE     ---       #87
      00FF09FAH   LINE      CODE     ---       #88
      00FF09FDH   LINE      CODE     ---       #90
      00FF0A03H   LINE      CODE     ---       #91
      00FF0A09H   LINE      CODE     ---       #92
      00FF0A0FH   LINE      CODE     ---       #93
      00FF0A15H   LINE      CODE     ---       #94
      00FF0A1BH   LINE      CODE     ---       #95
      00FF0A21H   LINE      CODE     ---       #96
      00FF0A27H   LINE      CODE     ---       #97
      00FF0A2DH   LINE      CODE     ---       #100
      00FF0A30H   LINE      CODE     ---       #101
      00FF0A33H   LINE      CODE     ---       #102
      00FF0A40H   LINE      CODE     ---       #103
      00FF0A4EH   LINE      CODE     ---       #104
      00FF0A51H   LINE      CODE     ---       #108
      00FF0A54H   LINE      CODE     ---       #109
      00FF0A57H   LINE      CODE     ---       #110
      00FF0A5AH   LINE      CODE     ---       #111
      00FF0A5CH   LINE      CODE     ---       #112
      00FF0A5EH   LINE      CODE     ---       #114
      00FF0A63H   LINE      CODE     ---       #115
      00FF0A68H   LINE      CODE     ---       #116
      00FF0A6BH   LINE      CODE     ---       #117
      00FF0A6DH   LINE      CODE     ---       #122
      00FF0A6DH   LINE      CODE     ---       #124
      00FF0A70H   LINE      CODE     ---       #129
      00FF0A73H   LINE      CODE     ---       #130
      00FF0A73H   LINE      CODE     ---       #132
      00FF0A76H   LINE      CODE     ---       #134
      00FF0A78H   LINE      CODE     ---       #135
      00FF0A7BH   LINE      CODE     ---       #137
      00FF0A85H   LINE      CODE     ---       #138
      00FF0A8BH   LINE      CODE     ---       #140
      00FF0A91H   LINE      CODE     ---       #141
      00FF0AA1H   LINE      CODE     ---       #142
      00FF0AA1H   LINE      CODE     ---       #144
      00FF0AAAH   LINE      CODE     ---       #146
      00FF0AB1H   LINE      CODE     ---       #148
      00FF0AB9H   LINE      CODE     ---       #149
      00FF0ABEH   LINE      CODE     ---       #150
      00FF0ABEH   LINE      CODE     ---       #161
      00FF0ABEH   LINE      CODE     ---       #162
      ---         BLOCKEND  ---      ---       LVL=0

      00FF0003H   BLOCK     CODE     ---       LVL=0
      00FF0003H   LINE      CODE     ---       #167
      00FF0003H   LINE      CODE     ---       #169
      00FF0005H   LINE      CODE     ---       #170
      ---         BLOCKEND  ---      ---       LVL=0

      00FF1BAEH   BLOCK     CODE     ---       LVL=0
      R11         REGSYM    ---      BYTE      dat
      00FF1BAEH   LINE      CODE     ---       #193
      00FF1BAEH   LINE      CODE     ---       #195
      00FF1BB0H   LINE      CODE     ---       #196
      00FF1BB3H   LINE      CODE     ---       #197
L251 LINKER/LOCATER V4.66.93.0                                                        07/09/2022  13:59:50  PAGE 15


      00FF1BB6H   LINE      CODE     ---       #198
      ---         BLOCKEND  ---      ---       LVL=0

      00FF18E8H   BLOCK     CODE     ---       LVL=0
      WR6         REGSYM    ---      WORD      dat
      00FF18E8H   LINE      CODE     ---       #243
      00FF18E8H   LINE      CODE     ---       #245
      00FF18EBH   LINE      CODE     ---       #246
      00FF18EEH   LINE      CODE     ---       #247
      00FF18F1H   LINE      CODE     ---       #248
      00FF18F5H   LINE      CODE     ---       #249
      00FF18F9H   LINE      CODE     ---       #250
      00FF18FCH   LINE      CODE     ---       #251
      00FF18FFH   LINE      CODE     ---       #252
      ---         BLOCKEND  ---      ---       LVL=0

      00FF1455H   BLOCK     CODE     ---       LVL=0
      R7          REGSYM    ---      BYTE      brt
      00FF1455H   LINE      CODE     ---       #263
      00FF1457H   LINE      CODE     ---       #265
      00FF145BH   LINE      CODE     ---       #267
      00FF1462H   LINE      CODE     ---       #268
      00FF1465H   LINE      CODE     ---       #269
      00FF1467H   LINE      CODE     ---       #272
      00FF146AH   LINE      CODE     ---       #273
      00FF146DH   LINE      CODE     ---       #274
      00FF1470H   LINE      CODE     ---       #275
      00FF1473H   LINE      CODE     ---       #276
      00FF1476H   LINE      CODE     ---       #277
      00FF1479H   LINE      CODE     ---       #278
      00FF147CH   LINE      CODE     ---       #279
      00FF147CH   LINE      CODE     ---       #280
      00FF147FH   LINE      CODE     ---       #281
      00FF1482H   LINE      CODE     ---       #283
      00FF1484H   LINE      CODE     ---       #284
      00FF1489H   LINE      CODE     ---       #285
      00FF148DH   LINE      CODE     ---       #286
      ---         BLOCKEND  ---      ---       LVL=0

      00FF148EH   BLOCK     CODE     ---       LVL=0
      R7          REGSYM    ---      BYTE      brt
      00FF148EH   LINE      CODE     ---       #297
      00FF1490H   LINE      CODE     ---       #299
      00FF1494H   LINE      CODE     ---       #301
      00FF149BH   LINE      CODE     ---       #302
      00FF149EH   LINE      CODE     ---       #303
      00FF14A0H   LINE      CODE     ---       #306
      00FF14A3H   LINE      CODE     ---       #307
      00FF14A6H   LINE      CODE     ---       #308
      00FF14A9H   LINE      CODE     ---       #309
      00FF14ACH   LINE      CODE     ---       #310
      00FF14AFH   LINE      CODE     ---       #311
      00FF14B2H   LINE      CODE     ---       #312
      00FF14B5H   LINE      CODE     ---       #313
      00FF14B5H   LINE      CODE     ---       #314
      00FF14B8H   LINE      CODE     ---       #315
      00FF14BBH   LINE      CODE     ---       #317
      00FF14BDH   LINE      CODE     ---       #318
      00FF14C2H   LINE      CODE     ---       #319
      00FF14C6H   LINE      CODE     ---       #320
      ---         BLOCKEND  ---      ---       LVL=0

      00FF136AH   BLOCK     CODE     ---       LVL=0
      00FF136AH   LINE      CODE     ---       #331
      00FF136EH   LINE      CODE     ---       #333
L251 LINKER/LOCATER V4.66.93.0                                                        07/09/2022  13:59:50  PAGE 16


      00FF1372H   LINE      CODE     ---       #335
      00FF1375H   LINE      CODE     ---       #336
      00FF1382H   LINE      CODE     ---       #337
      00FF1391H   LINE      CODE     ---       #338
      00FF1397H   LINE      CODE     ---       #339
      00FF1397H   LINE      CODE     ---       #341
      00FF139BH   LINE      CODE     ---       #343
      00FF139EH   LINE      CODE     ---       #344
      00FF13A0H   LINE      CODE     ---       #345
      ---         BLOCKEND  ---      ---       LVL=0

      00FF11B3H   BLOCK     CODE     ---       LVL=0
      00FF11B3H   LINE      CODE     ---       #357
      00FF11B9H   LINE      CODE     ---       #359
      00FF11BDH   LINE      CODE     ---       #361
      00FF11C0H   LINE      CODE     ---       #362
      00FF11CEH   LINE      CODE     ---       #363
      00FF11DBH   LINE      CODE     ---       #364
      00FF11E0H   LINE      CODE     ---       #365
      00FF11E6H   LINE      CODE     ---       #366
      00FF11E6H   LINE      CODE     ---       #368
      00FF11EAH   LINE      CODE     ---       #370
      00FF11EDH   LINE      CODE     ---       #371
      00FF11EFH   LINE      CODE     ---       #372
      ---         BLOCKEND  ---      ---       LVL=0

      00FF1AEFH   BLOCK     CODE     ---       LVL=0
      R10         REGSYM    ---      BYTE      ms
      00FF1AF1H   BLOCK     CODE     NEAR LAB  LVL=1
      WR8         REGSYM    ---      WORD      i
      ---         BLOCKEND  ---      ---       LVL=1
      00FF1AEFH   LINE      CODE     ---       #384
      00FF1AF1H   LINE      CODE     ---       #385
      00FF1AF1H   LINE      CODE     ---       #387
      00FF1AF1H   LINE      CODE     ---       #388
      00FF1AF5H   LINE      CODE     ---       #389
      00FF1AFDH   LINE      CODE     ---       #390
      00FF1B04H   LINE      CODE     ---       #391
      ---         BLOCKEND  ---      ---       LVL=0

      00FF132DH   BLOCK     CODE     ---       LVL=0
      00FF132DH   LINE      CODE     ---       #402
      00FF132DH   LINE      CODE     ---       #404
      00FF1330H   LINE      CODE     ---       #406
      00FF1333H   LINE      CODE     ---       #408
      00FF133DH   LINE      CODE     ---       #409
      00FF1343H   LINE      CODE     ---       #411
      00FF1345H   LINE      CODE     ---       #413
      00FF1348H   LINE      CODE     ---       #414
      00FF134BH   LINE      CODE     ---       #415
      00FF1357H   LINE      CODE     ---       #417
      00FF135CH   LINE      CODE     ---       #418
      00FF135FH   LINE      CODE     ---       #419
      00FF1361H   LINE      CODE     ---       #425
      00FF1367H   LINE      CODE     ---       #426
      00FF1369H   LINE      CODE     ---       #427
      00FF1369H   LINE      CODE     ---       #428
      ---         BLOCKEND  ---      ---       LVL=0

      ---         MODULE    ---      ---       usb
      00FF1B66H   PUBLIC    CODE     ---       usb_setup_in
      00FF1B77H   PUBLIC    CODE     ---       usb_setup_out
      00FF0F1FH   PUBLIC    CODE     ---       usb_ctrl_in
      00FF0FE2H   PUBLIC    CODE     ---       usb_ctrl_out
      00FF1900H   PUBLIC    CODE     ---       usb_OUT_done
L251 LINKER/LOCATER V4.66.93.0                                                        07/09/2022  13:59:50  PAGE 17


      00FF0009H   PUBLIC    CODE     ---       usb_suspend
      00FF1B05H   PUBLIC    CODE     ---       usb_bulk_intr_in
      00FF1884H   PUBLIC    CODE     ---       usb_bulk_intr_out
      00FF000AH   PUBLIC    CODE     ---       usb_resume
      00FF16E8H   PUBLIC    CODE     ---       usb_IN
      00FF141BH   PUBLIC    CODE     ---       usb_read_fifo?_
      00FF14C7H   PUBLIC    CODE     ---       usb_reset
      00FF0D9BH   PUBLIC    CODE     ---       usb_setup
      00FF1711H   PUBLIC    CODE     ---       usb_write_fifo?_
      00FF10D9H   PUBLIC    CODE     ---       usb_init
      00FF1B85H   PUBLIC    CODE     ---       usb_setup_stall
      00FF1BA1H   PUBLIC    CODE     ---       usb_setup_status
      00FF1B1AH   PUBLIC    CODE     ---       usb_read_reg
      00FF1667H   PUBLIC    CODE     ---       usb_in_ep1
      00FF000EH   PUBLIC    CODE     ---       usb_out_ep1
      00FF1B2FH   PUBLIC    CODE     ---       usb_write_reg
      00FF0EA5H   PUBLIC    CODE     ---       usb_isr
      00000008H   PUBLIC    EDATA    ---       Setup
      00000010H   PUBLIC    EDATA    BYTE      DeviceState
      00000011H   PUBLIC    EDATA    ---       Ep0State
      00000018H   PUBLIC    EDATA    BYTE      InEpState
      00000019H   PUBLIC    EDATA    BYTE      OutEpState
      00000020H.4 PUBLIC    BIT      BIT       bUsbOutReady
      00000020H.5 PUBLIC    BIT      BIT       bUsbFeatureReady
      00000020H.6 PUBLIC    BIT      BIT       bUsbInBusy
      00010000H   PUBLIC    XDATA    ---       UsbInBuffer
      00010040H   PUBLIC    XDATA    ---       UsbOutBuffer
      00010080H   PUBLIC    XDATA    ---       UsbFeatureBuffer
      000000D0H   SFRSYM    DATA     BYTE      PSW
      0000009DH   SFRSYM    DATA     BYTE      IRCBAND
      00000097H   SFRSYM    DATA     BYTE      AUXR2
      000000EFH   SFRSYM    DATA     BYTE      AUXINTIF
      000000FDH   SFRSYM    DATA     BYTE      S4CON
      000000ACH   SFRSYM    DATA     BYTE      S3CON
      0000009AH   SFRSYM    DATA     BYTE      S2CON
      000000B7H   SFRSYM    DATA     BYTE      IPH
      000000CDH   SFRSYM    DATA     BYTE      SPSTAT
      000000DDH   SFRSYM    DATA     BYTE      T4T3M
      000000C1H   SFRSYM    DATA     BYTE      WDT_CONTR
      000000DFH   SFRSYM    DATA     BYTE      IP3
      000000F4H   SFRSYM    DATA     BYTE      USBCON
      000000B5H   SFRSYM    DATA     BYTE      IP2
      000000FFH   SFRSYM    DATA     BYTE      RSTCFG
      000000DCH   SFRSYM    DATA     BYTE      USBCLK
      000000ECH   SFRSYM    DATA     BYTE      USBDAT
      000000C7H   SFRSYM    DATA     BYTE      IAP_CONTR
      000000F9H   SFRSYM    DATA     BYTE      LINICR
      000000FCH   SFRSYM    DATA     BYTE      USBADR
      0000008EH   SFRSYM    DATA     BYTE      AUXR
      000000AFH   SFRSYM    DATA     BYTE      IE2
      00000088H   SFRSYM    DATA     BYTE      TCON
      00000098H   SFRSYM    DATA     BYTE      SCON
      000000F1H   SFRSYM    DATA     BYTE      CANICR
      00000087H   SFRSYM    DATA     BYTE      PCON
      000000BCH   SFRSYM    DATA     BYTE      ADC_CONTR
      000000AFH.7 SFRSYM    DATA     BIT       EUSB
      000000E7H   SFRSYM    DATA     BYTE      CMPCR2
      000000E6H   SFRSYM    DATA     BYTE      CMPCR1
      000000B8H   SFRSYM    DATA     BYTE      IP
      0000008FH   SFRSYM    DATA     BYTE      INTCLKO
      000000EEH   SFRSYM    DATA     BYTE      IP3H
      000000B6H   SFRSYM    DATA     BYTE      IP2H
      000000A8H   SFRSYM    DATA     BYTE      IE
      000000BBH   SFRSYM    DATA     BYTE      P_SW3
      000000BAH   SFRSYM    DATA     BYTE      P_SW2
L251 LINKER/LOCATER V4.66.93.0                                                        07/09/2022  13:59:50  PAGE 18


      000000A2H   SFRSYM    DATA     BYTE      P_SW1
      000000CEH   SFRSYM    DATA     BYTE      SPCTL
      000000F8H   SFRSYM    DATA     BYTE      P7
      000000E8H   SFRSYM    DATA     BYTE      P6
      000000C8H   SFRSYM    DATA     BYTE      P5
      000000C0H   SFRSYM    DATA     BYTE      P4
      000000B0H   SFRSYM    DATA     BYTE      P3
      000000A0H   SFRSYM    DATA     BYTE      P2
      00000090H   SFRSYM    DATA     BYTE      P1
      00000080H   SFRSYM    DATA     BYTE      P0

      00FF10D9H   BLOCK     CODE     ---       LVL=0
      00FF10D9H   LINE      CODE     ---       #22
      00FF10D9H   LINE      CODE     ---       #24
      00FF10DCH   LINE      CODE     ---       #25
      00FF10DFH   LINE      CODE     ---       #27
      00FF10E5H   LINE      CODE     ---       #28
      00FF10EDH   LINE      CODE     ---       #29
      00FF10F5H   LINE      CODE     ---       #30
      00FF10FDH   LINE      CODE     ---       #31
      00FF1105H   LINE      CODE     ---       #32
      00FF110DH   LINE      CODE     ---       #34
      00FF1113H   LINE      CODE     ---       #35
      00FF1118H   LINE      CODE     ---       #36
      00FF111CH   LINE      CODE     ---       #37
      00FF1120H   LINE      CODE     ---       #39
      00FF1123H   LINE      CODE     ---       #40
      ---         BLOCKEND  ---      ---       LVL=0

      00FF1B1AH   BLOCK     CODE     ---       LVL=0
      R10         REGSYM    ---      BYTE      addr
      00FF1B1CH   BLOCK     CODE     NEAR LAB  LVL=1
      R11         REGSYM    ---      BYTE      dat
      ---         BLOCKEND  ---      ---       LVL=1
      00FF1B1AH   LINE      CODE     ---       #42
      00FF1B1CH   LINE      CODE     ---       #43
      00FF1B1CH   LINE      CODE     ---       #46
      00FF1B21H   LINE      CODE     ---       #47
      00FF1B27H   LINE      CODE     ---       #48
      00FF1B2CH   LINE      CODE     ---       #49
      00FF1B2EH   LINE      CODE     ---       #51
      00FF1B2EH   LINE      CODE     ---       #52
      ---         BLOCKEND  ---      ---       LVL=0

      00FF1B2FH   BLOCK     CODE     ---       LVL=0
      R7          REGSYM    ---      BYTE      addr
      R10         REGSYM    ---      BYTE      dat
      00FF1B2FH   LINE      CODE     ---       #54
      00FF1B33H   LINE      CODE     ---       #56
      00FF1B38H   LINE      CODE     ---       #57
      00FF1B3EH   LINE      CODE     ---       #58
      00FF1B41H   LINE      CODE     ---       #59
      ---         BLOCKEND  ---      ---       LVL=0

      00FF141BH   BLOCK     CODE     ---       LVL=0
      FFFFFFFEH   STKSYM    ---      BYTE      fifo
      REG=3       REGSYM    ---      ---       pdat
      00FF1423H   BLOCK     CODE     NEAR LAB  LVL=1
      00000000H   STKSYM    ---      BYTE      cnt
      FFFFFFFFH   STKSYM    ---      BYTE      ret
      ---         BLOCKEND  ---      ---       LVL=1
      00FF141BH   LINE      CODE     ---       #61
      00FF1423H   LINE      CODE     ---       #62
      00FF1423H   LINE      CODE     ---       #66
      00FF142FH   LINE      CODE     ---       #67
L251 LINKER/LOCATER V4.66.93.0                                                        07/09/2022  13:59:50  PAGE 19


      00FF1431H   LINE      CODE     ---       #69
      00FF143DH   LINE      CODE     ---       #70
      00FF144AH   LINE      CODE     ---       #72
      00FF144EH   LINE      CODE     ---       #73
      ---         BLOCKEND  ---      ---       LVL=0

      00FF1711H   BLOCK     CODE     ---       LVL=0
      00000000H   STKSYM    ---      BYTE      fifo
      REG=3       REGSYM    ---      ---       pdat
      FFFFFFFFH   STKSYM    ---      BYTE      cnt
      00FF1711H   LINE      CODE     ---       #75
      00FF1719H   LINE      CODE     ---       #77
      00FF171BH   LINE      CODE     ---       #79
      00FF1726H   LINE      CODE     ---       #80
      00FF1735H   LINE      CODE     ---       #81
      ---         BLOCKEND  ---      ---       LVL=0

      00FF0EA5H   BLOCK     CODE     ---       LVL=0
      00FF0EBFH   BLOCK     CODE     NEAR LAB  LVL=1
      R15         REGSYM    ---      BYTE      intrusb
      R13         REGSYM    ---      BYTE      intrin
      R14         REGSYM    ---      BYTE      introut
      ---         BLOCKEND  ---      ---       LVL=1
      00FF0EA5H   LINE      CODE     ---       #83
      00FF0EBFH   LINE      CODE     ---       #84
      00FF0EBFH   LINE      CODE     ---       #89
      00FF0EC6H   LINE      CODE     ---       #90
      00FF0ECDH   LINE      CODE     ---       #91
      00FF0ED4H   LINE      CODE     ---       #93
      00FF0EDCH   LINE      CODE     ---       #94
      00FF0EE4H   LINE      CODE     ---       #96
      00FF0EECH   LINE      CODE     ---       #99
      00FF0EF4H   LINE      CODE     ---       #115
      00FF0EFCH   LINE      CODE     ---       #130
      00FF0F04H   LINE      CODE     ---       #131
      ---         BLOCKEND  ---      ---       LVL=0

      00FF000AH   BLOCK     CODE     ---       LVL=0
      00FF000AH   LINE      CODE     ---       #133
      00FF000AH   LINE      CODE     ---       #135
      ---         BLOCKEND  ---      ---       LVL=0

      00FF14C7H   BLOCK     CODE     ---       LVL=0
      00FF14C7H   LINE      CODE     ---       #137
      00FF14C7H   LINE      CODE     ---       #139
      00FF14CDH   LINE      CODE     ---       #140
      00FF14D3H   LINE      CODE     ---       #141
      00FF14D8H   LINE      CODE     ---       #144
      00FF14E0H   LINE      CODE     ---       #145
      00FF14E8H   LINE      CODE     ---       #164
      00FF14F0H   LINE      CODE     ---       #165
      00FF14F8H   LINE      CODE     ---       #183
      ---         BLOCKEND  ---      ---       LVL=0

      00FF0009H   BLOCK     CODE     ---       LVL=0
      00FF0009H   LINE      CODE     ---       #186
      00FF0009H   LINE      CODE     ---       #188
      ---         BLOCKEND  ---      ---       LVL=0

      00FF0D9BH   BLOCK     CODE     ---       LVL=0
      00FF0D9DH   BLOCK     CODE     NEAR LAB  LVL=1
      R15         REGSYM    ---      BYTE      csr
      ---         BLOCKEND  ---      ---       LVL=1
      00FF0D9BH   LINE      CODE     ---       #190
      00FF0D9DH   LINE      CODE     ---       #191
L251 LINKER/LOCATER V4.66.93.0                                                        07/09/2022  13:59:50  PAGE 20


      00FF0D9DH   LINE      CODE     ---       #194
      00FF0DA4H   LINE      CODE     ---       #195
      00FF0DABH   LINE      CODE     ---       #197
      00FF0DAEH   LINE      CODE     ---       #199
      00FF0DB8H   LINE      CODE     ---       #200
      00FF0DBDH   LINE      CODE     ---       #201
      00FF0DBDH   LINE      CODE     ---       #202
      00FF0DC2H   LINE      CODE     ---       #204
      00FF0DCCH   LINE      CODE     ---       #205
      00FF0DCCH   LINE      CODE     ---       #207
      00FF0DDBH   LINE      CODE     ---       #209
      00FF0DDBH   LINE      CODE     ---       #210
      00FF0DE0H   LINE      CODE     ---       #212
      00FF0DE9H   LINE      CODE     ---       #213
      00FF0DF4H   LINE      CODE     ---       #214
      00FF0E06H   LINE      CODE     ---       #216
      00FF0E06H   LINE      CODE     ---       #217
      00FF0E09H   LINE      CODE     ---       #218
      00FF0E0BH   LINE      CODE     ---       #219
      00FF0E0BH   LINE      CODE     ---       #220
      00FF0E0EH   LINE      CODE     ---       #221
      00FF0E10H   LINE      CODE     ---       #222
      00FF0E10H   LINE      CODE     ---       #223
      00FF0E13H   LINE      CODE     ---       #224
      00FF0E15H   LINE      CODE     ---       #225
      00FF0E15H   LINE      CODE     ---       #226
      00FF0E18H   LINE      CODE     ---       #227
      00FF0E1AH   LINE      CODE     ---       #228
      00FF0E1AH   LINE      CODE     ---       #229
      00FF0E1AH   LINE      CODE     ---       #230
      00FF0E1AH   LINE      CODE     ---       #231
      00FF0E1AH   LINE      CODE     ---       #232
      00FF0E1DH   LINE      CODE     ---       #233
      00FF0E1FH   LINE      CODE     ---       #234
      00FF0E1FH   LINE      CODE     ---       #235
      00FF0E22H   LINE      CODE     ---       #236
      00FF0E22H   LINE      CODE     ---       #237
      00FF0E22H   LINE      CODE     ---       #238
      ---         BLOCKEND  ---      ---       LVL=0

      00FF1B85H   BLOCK     CODE     ---       LVL=0
      00FF1B85H   LINE      CODE     ---       #240
      00FF1B85H   LINE      CODE     ---       #242
      00FF1B8BH   LINE      CODE     ---       #243
      ---         BLOCKEND  ---      ---       LVL=0

      00FF1B66H   BLOCK     CODE     ---       LVL=0
      00FF1B66H   LINE      CODE     ---       #246
      00FF1B66H   LINE      CODE     ---       #248
      00FF1B6CH   LINE      CODE     ---       #249
      00FF1B74H   LINE      CODE     ---       #250
      ---         BLOCKEND  ---      ---       LVL=0

      00FF1B77H   BLOCK     CODE     ---       LVL=0
      00FF1B77H   LINE      CODE     ---       #253
      00FF1B77H   LINE      CODE     ---       #255
      00FF1B7DH   LINE      CODE     ---       #256
      ---         BLOCKEND  ---      ---       LVL=0

      00FF1BA1H   BLOCK     CODE     ---       LVL=0
      00FF1BA1H   LINE      CODE     ---       #259
      00FF1BA1H   LINE      CODE     ---       #261
      00FF1BA6H   LINE      CODE     ---       #262
      ---         BLOCKEND  ---      ---       LVL=0

L251 LINKER/LOCATER V4.66.93.0                                                        07/09/2022  13:59:50  PAGE 21


      00FF0F1FH   BLOCK     CODE     ---       LVL=0
      00FF0F21H   BLOCK     CODE     NEAR LAB  LVL=1
      R11         REGSYM    ---      BYTE      csr
      R15         REGSYM    ---      BYTE      cnt
      ---         BLOCKEND  ---      ---       LVL=1
      00FF0F1FH   LINE      CODE     ---       #265
      00FF0F21H   LINE      CODE     ---       #266
      00FF0F21H   LINE      CODE     ---       #270
      00FF0F28H   LINE      CODE     ---       #271
      00FF0F2DH   LINE      CODE     ---       #272
      00FF0F30H   LINE      CODE     ---       #274
      00FF0F41H   LINE      CODE     ---       #275
      00FF0F4CH   LINE      CODE     ---       #276
      00FF0F58H   LINE      CODE     ---       #277
      00FF0F64H   LINE      CODE     ---       #278
      00FF0F6CH   LINE      CODE     ---       #280
      00FF0F74H   LINE      CODE     ---       #281
      00FF0F79H   LINE      CODE     ---       #282
      00FF0F7BH   LINE      CODE     ---       #285
      00FF0F83H   LINE      CODE     ---       #286
      00FF0F83H   LINE      CODE     ---       #287
      ---         BLOCKEND  ---      ---       LVL=0

      00FF0FE2H   BLOCK     CODE     ---       LVL=0
      R11         REGSYM    ---      BYTE      csr
      R7          REGSYM    ---      BYTE      cnt
      00FF0FE2H   LINE      CODE     ---       #289
      00FF0FE2H   LINE      CODE     ---       #290
      00FF0FE2H   LINE      CODE     ---       #294
      00FF0FE9H   LINE      CODE     ---       #295
      00FF0FEEH   LINE      CODE     ---       #296
      00FF0FF1H   LINE      CODE     ---       #298
      00FF0FFAH   LINE      CODE     ---       #299
      00FF1006H   LINE      CODE     ---       #300
      00FF1010H   LINE      CODE     ---       #301
      00FF1018H   LINE      CODE     ---       #303
      00FF1020H   LINE      CODE     ---       #304
      00FF1025H   LINE      CODE     ---       #306
      00FF102CH   LINE      CODE     ---       #307
      00FF102EH   LINE      CODE     ---       #308
      00FF102FH   LINE      CODE     ---       #311
      00FF1037H   LINE      CODE     ---       #312
      00FF1037H   LINE      CODE     ---       #313
      ---         BLOCKEND  ---      ---       LVL=0

      00FF1B05H   BLOCK     CODE     ---       LVL=0
      REG=0       REGSYM    ---      ---       pData
      R7          REGSYM    ---      BYTE      bSize
      R10         REGSYM    ---      BYTE      ep
      00FF1B05H   LINE      CODE     ---       #315
      00FF1B09H   LINE      CODE     ---       #317
      00FF1B12H   LINE      CODE     ---       #318
      ---         BLOCKEND  ---      ---       LVL=0

      00FF1884H   BLOCK     CODE     ---       LVL=0
      REG=0       REGSYM    ---      ---       pData
      R7          REGSYM    ---      BYTE      ep
      00FF1886H   BLOCK     CODE     NEAR LAB  LVL=1
      R15         REGSYM    ---      BYTE      cnt
      ---         BLOCKEND  ---      ---       LVL=1
      00FF1884H   LINE      CODE     ---       #321
      00FF1886H   LINE      CODE     ---       #322
      00FF1886H   LINE      CODE     ---       #325
      00FF1891H   LINE      CODE     ---       #326
      00FF1898H   LINE      CODE     ---       #328
L251 LINKER/LOCATER V4.66.93.0                                                        07/09/2022  13:59:50  PAGE 22


      00FF189AH   LINE      CODE     ---       #329
      ---         BLOCKEND  ---      ---       LVL=0

      00FF1667H   BLOCK     CODE     ---       LVL=0
      00FF1669H   BLOCK     CODE     NEAR LAB  LVL=1
      R15         REGSYM    ---      BYTE      csr
      ---         BLOCKEND  ---      ---       LVL=1
      00FF1667H   LINE      CODE     ---       #332
      00FF1669H   LINE      CODE     ---       #333
      00FF1669H   LINE      CODE     ---       #336
      00FF1671H   LINE      CODE     ---       #337
      00FF1678H   LINE      CODE     ---       #338
      00FF167BH   LINE      CODE     ---       #340
      00FF1683H   LINE      CODE     ---       #341
      00FF1683H   LINE      CODE     ---       #342
      00FF1688H   LINE      CODE     ---       #344
      00FF168FH   LINE      CODE     ---       #345
      00FF168FH   LINE      CODE     ---       #346
      00FF1691H   LINE      CODE     ---       #347
      ---         BLOCKEND  ---      ---       LVL=0

      00FF000EH   BLOCK     CODE     ---       LVL=0
      00FF0010H   BLOCK     CODE     NEAR LAB  LVL=1
      R15         REGSYM    ---      BYTE      csr
      ---         BLOCKEND  ---      ---       LVL=1
      00FF000EH   LINE      CODE     ---       #423
      00FF0010H   LINE      CODE     ---       #424
      00FF0010H   LINE      CODE     ---       #427
      00FF0018H   LINE      CODE     ---       #428
      00FF001FH   LINE      CODE     ---       #429
      00FF0022H   LINE      CODE     ---       #431
      00FF002AH   LINE      CODE     ---       #432
      00FF002AH   LINE      CODE     ---       #433
      00FF002FH   LINE      CODE     ---       #435
      00FF003CH   LINE      CODE     ---       #436
      00FF0049H   LINE      CODE     ---       #438
      00FF0053H   LINE      CODE     ---       #440
      00FF0060H   LINE      CODE     ---       #442
      00FF0067H   LINE      CODE     ---       #444
      00FF006AH   LINE      CODE     ---       #445
      00FF006DH   LINE      CODE     ---       #446
      00FF0079H   LINE      CODE     ---       #448
      00FF0080H   LINE      CODE     ---       #450
      00FF0083H   LINE      CODE     ---       #451
      00FF0085H   LINE      CODE     ---       #452
      00FF0085H   LINE      CODE     ---       #455
      00FF0087H   LINE      CODE     ---       #457
      ---         BLOCKEND  ---      ---       LVL=0

      00FF16E8H   BLOCK     CODE     ---       LVL=0
      00FF16E8H   LINE      CODE     ---       #534
      00FF16E8H   LINE      CODE     ---       #536
      00FF16EBH   LINE      CODE     ---       #538
      00FF16F3H   LINE      CODE     ---       #539
      00FF16FBH   LINE      CODE     ---       #540
      00FF170BH   LINE      CODE     ---       #541
      00FF170DH   LINE      CODE     ---       #543
      00FF1710H   LINE      CODE     ---       #544
      ---         BLOCKEND  ---      ---       LVL=0

      00FF1900H   BLOCK     CODE     ---       LVL=0
      00FF1900H   LINE      CODE     ---       #546
      00FF1900H   LINE      CODE     ---       #548
      00FF1903H   LINE      CODE     ---       #550
      00FF190BH   LINE      CODE     ---       #551
L251 LINKER/LOCATER V4.66.93.0                                                        07/09/2022  13:59:50  PAGE 23


      00FF1912H   LINE      CODE     ---       #552
      00FF1914H   LINE      CODE     ---       #554
      00FF1917H   LINE      CODE     ---       #555
      ---         BLOCKEND  ---      ---       LVL=0

      ---         MODULE    ---      ---       usb_req_class
      00FF0006H   PUBLIC    CODE     ---       usb_get_protocol
      00FF008EH   PUBLIC    CODE     ---       usb_set_protocol
      00FF1762H   PUBLIC    CODE     ---       usb_get_idle
      00FF1694H   PUBLIC    CODE     ---       usb_get_report
      00FF1639H   PUBLIC    CODE     ---       usb_req_class
      00FF182FH   PUBLIC    CODE     ---       usb_set_idle
      00FF16BEH   PUBLIC    CODE     ---       usb_set_report
      0000001FH   PUBLIC    EDATA    BYTE      bHidIdle
      000000D0H   SFRSYM    DATA     BYTE      PSW
      0000009DH   SFRSYM    DATA     BYTE      IRCBAND
      00000097H   SFRSYM    DATA     BYTE      AUXR2
      000000EFH   SFRSYM    DATA     BYTE      AUXINTIF
      000000FDH   SFRSYM    DATA     BYTE      S4CON
      000000ACH   SFRSYM    DATA     BYTE      S3CON
      0000009AH   SFRSYM    DATA     BYTE      S2CON
      000000B7H   SFRSYM    DATA     BYTE      IPH
      000000CDH   SFRSYM    DATA     BYTE      SPSTAT
      000000DDH   SFRSYM    DATA     BYTE      T4T3M
      000000C1H   SFRSYM    DATA     BYTE      WDT_CONTR
      000000DFH   SFRSYM    DATA     BYTE      IP3
      000000F4H   SFRSYM    DATA     BYTE      USBCON
      000000B5H   SFRSYM    DATA     BYTE      IP2
      000000FFH   SFRSYM    DATA     BYTE      RSTCFG
      000000F9H   SFRSYM    DATA     BYTE      LINICR
      0000008EH   SFRSYM    DATA     BYTE      AUXR
      000000AFH   SFRSYM    DATA     BYTE      IE2
      00000088H   SFRSYM    DATA     BYTE      TCON
      00000098H   SFRSYM    DATA     BYTE      SCON
      000000F1H   SFRSYM    DATA     BYTE      CANICR
      00000087H   SFRSYM    DATA     BYTE      PCON
      000000BCH   SFRSYM    DATA     BYTE      ADC_CONTR
      000000E7H   SFRSYM    DATA     BYTE      CMPCR2
      000000E6H   SFRSYM    DATA     BYTE      CMPCR1
      000000B8H   SFRSYM    DATA     BYTE      IP
      0000008FH   SFRSYM    DATA     BYTE      INTCLKO
      000000EEH   SFRSYM    DATA     BYTE      IP3H
      000000B6H   SFRSYM    DATA     BYTE      IP2H
      000000A8H   SFRSYM    DATA     BYTE      IE
      000000BBH   SFRSYM    DATA     BYTE      P_SW3
      000000BAH   SFRSYM    DATA     BYTE      P_SW2
      000000A2H   SFRSYM    DATA     BYTE      P_SW1
      000000CEH   SFRSYM    DATA     BYTE      SPCTL
      000000F8H   SFRSYM    DATA     BYTE      P7
      000000E8H   SFRSYM    DATA     BYTE      P6
      000000C8H   SFRSYM    DATA     BYTE      P5
      000000C0H   SFRSYM    DATA     BYTE      P4
      000000B0H   SFRSYM    DATA     BYTE      P3
      000000A0H   SFRSYM    DATA     BYTE      P2
      00000090H   SFRSYM    DATA     BYTE      P1
      00000080H   SFRSYM    DATA     BYTE      P0

      00FF1639H   BLOCK     CODE     ---       LVL=0
      00FF1639H   LINE      CODE     ---       #7
      00FF1639H   LINE      CODE     ---       #9
      00FF1652H   LINE      CODE     ---       #11
      00FF1652H   LINE      CODE     ---       #12
      00FF1655H   LINE      CODE     ---       #13
      00FF1655H   LINE      CODE     ---       #14
      00FF1655H   LINE      CODE     ---       #15
L251 LINKER/LOCATER V4.66.93.0                                                        07/09/2022  13:59:50  PAGE 24


      00FF1658H   LINE      CODE     ---       #16
      00FF1658H   LINE      CODE     ---       #17
      00FF1658H   LINE      CODE     ---       #18
      00FF165BH   LINE      CODE     ---       #19
      00FF165BH   LINE      CODE     ---       #20
      00FF165BH   LINE      CODE     ---       #21
      00FF165EH   LINE      CODE     ---       #22
      00FF165EH   LINE      CODE     ---       #23
      00FF165EH   LINE      CODE     ---       #24
      00FF1661H   LINE      CODE     ---       #25
      00FF1661H   LINE      CODE     ---       #26
      00FF1661H   LINE      CODE     ---       #27
      00FF1664H   LINE      CODE     ---       #28
      00FF1664H   LINE      CODE     ---       #29
      00FF1664H   LINE      CODE     ---       #30
      00FF1667H   LINE      CODE     ---       #31
      00FF1667H   LINE      CODE     ---       #32
      00FF1667H   LINE      CODE     ---       #33
      ---         BLOCKEND  ---      ---       LVL=0

      00FF1694H   BLOCK     CODE     ---       LVL=0
      00FF1694H   LINE      CODE     ---       #35
      00FF1694H   LINE      CODE     ---       #37
      00FF16A4H   LINE      CODE     ---       #40
      00FF16A7H   LINE      CODE     ---       #41
      00FF16A7H   LINE      CODE     ---       #42
      00FF16A7H   LINE      CODE     ---       #44
      00FF16B3H   LINE      CODE     ---       #45
      00FF16BBH   LINE      CODE     ---       #47
      00FF16BEH   LINE      CODE     ---       #48
      ---         BLOCKEND  ---      ---       LVL=0

      00FF16BEH   BLOCK     CODE     ---       LVL=0
      00FF16BEH   LINE      CODE     ---       #50
      00FF16BEH   LINE      CODE     ---       #52
      00FF16CEH   LINE      CODE     ---       #55
      00FF16D1H   LINE      CODE     ---       #56
      00FF16D1H   LINE      CODE     ---       #57
      00FF16D1H   LINE      CODE     ---       #59
      00FF16DDH   LINE      CODE     ---       #60
      00FF16E5H   LINE      CODE     ---       #62
      00FF16E8H   LINE      CODE     ---       #63
      ---         BLOCKEND  ---      ---       LVL=0

      00FF1762H   BLOCK     CODE     ---       LVL=0
      00FF1762H   LINE      CODE     ---       #65
      00FF1762H   LINE      CODE     ---       #67
      00FF1772H   LINE      CODE     ---       #70
      00FF1775H   LINE      CODE     ---       #71
      00FF1775H   LINE      CODE     ---       #72
      00FF1775H   LINE      CODE     ---       #74
      00FF177DH   LINE      CODE     ---       #75
      00FF1785H   LINE      CODE     ---       #77
      00FF1788H   LINE      CODE     ---       #78
      ---         BLOCKEND  ---      ---       LVL=0

      00FF182FH   BLOCK     CODE     ---       LVL=0
      00FF182FH   LINE      CODE     ---       #80
      00FF182FH   LINE      CODE     ---       #82
      00FF183FH   LINE      CODE     ---       #85
      00FF1842H   LINE      CODE     ---       #86
      00FF1842H   LINE      CODE     ---       #87
      00FF1842H   LINE      CODE     ---       #89
      00FF184AH   LINE      CODE     ---       #91
      00FF184DH   LINE      CODE     ---       #92
L251 LINKER/LOCATER V4.66.93.0                                                        07/09/2022  13:59:50  PAGE 25


      ---         BLOCKEND  ---      ---       LVL=0

      00FF0006H   BLOCK     CODE     ---       LVL=0
      00FF0006H   LINE      CODE     ---       #94
      00FF0006H   LINE      CODE     ---       #96
      ---         BLOCKEND  ---      ---       LVL=0

      00FF008EH   BLOCK     CODE     ---       LVL=0
      00FF008EH   LINE      CODE     ---       #99
      00FF008EH   LINE      CODE     ---       #101
      ---         BLOCKEND  ---      ---       LVL=0

      ---         MODULE    ---      ---       usb_req_std
      00FF1235H   PUBLIC    CODE     ---       usb_get_interface
      00FF0AC0H   PUBLIC    CODE     ---       usb_clear_feature
      00FF173AH   PUBLIC    CODE     ---       usb_set_interface
      00FF0918H   PUBLIC    CODE     ---       usb_get_descriptor
      00FF1BB7H   PUBLIC    CODE     ---       usb_set_descriptor
      00FF0F86H   PUBLIC    CODE     ---       usb_req_std
      00FF1BBAH   PUBLIC    CODE     ---       usb_synch_frame
      00FF1124H   PUBLIC    CODE     ---       usb_set_address
      00FF0B5BH   PUBLIC    CODE     ---       usb_set_feature
      00FF1038H   PUBLIC    CODE     ---       usb_get_configuration
      00FF0D0EH   PUBLIC    CODE     ---       usb_set_configuration
      00FF0819H   PUBLIC    CODE     ---       usb_get_status
      000000D0H   SFRSYM    DATA     BYTE      PSW
      0000009DH   SFRSYM    DATA     BYTE      IRCBAND
      00000097H   SFRSYM    DATA     BYTE      AUXR2
      000000EFH   SFRSYM    DATA     BYTE      AUXINTIF
      000000FDH   SFRSYM    DATA     BYTE      S4CON
      000000ACH   SFRSYM    DATA     BYTE      S3CON
      0000009AH   SFRSYM    DATA     BYTE      S2CON
      000000B7H   SFRSYM    DATA     BYTE      IPH
      000000CDH   SFRSYM    DATA     BYTE      SPSTAT
      000000DDH   SFRSYM    DATA     BYTE      T4T3M
      000000C1H   SFRSYM    DATA     BYTE      WDT_CONTR
      000000DFH   SFRSYM    DATA     BYTE      IP3
      000000F4H   SFRSYM    DATA     BYTE      USBCON
      000000B5H   SFRSYM    DATA     BYTE      IP2
      000000FFH   SFRSYM    DATA     BYTE      RSTCFG
      000000F9H   SFRSYM    DATA     BYTE      LINICR
      0000008EH   SFRSYM    DATA     BYTE      AUXR
      000000AFH   SFRSYM    DATA     BYTE      IE2
      00000088H   SFRSYM    DATA     BYTE      TCON
      00000098H   SFRSYM    DATA     BYTE      SCON
      000000F1H   SFRSYM    DATA     BYTE      CANICR
      00000087H   SFRSYM    DATA     BYTE      PCON
      000000BCH   SFRSYM    DATA     BYTE      ADC_CONTR
      000000E7H   SFRSYM    DATA     BYTE      CMPCR2
      000000E6H   SFRSYM    DATA     BYTE      CMPCR1
      000000B8H   SFRSYM    DATA     BYTE      IP
      0000008FH   SFRSYM    DATA     BYTE      INTCLKO
      000000EEH   SFRSYM    DATA     BYTE      IP3H
      000000B6H   SFRSYM    DATA     BYTE      IP2H
      000000A8H   SFRSYM    DATA     BYTE      IE
      000000BBH   SFRSYM    DATA     BYTE      P_SW3
      000000BAH   SFRSYM    DATA     BYTE      P_SW2
      000000A2H   SFRSYM    DATA     BYTE      P_SW1
      000000CEH   SFRSYM    DATA     BYTE      SPCTL
      000000F8H   SFRSYM    DATA     BYTE      P7
      000000E8H   SFRSYM    DATA     BYTE      P6
      000000C8H   SFRSYM    DATA     BYTE      P5
      000000C0H   SFRSYM    DATA     BYTE      P4
      000000B0H   SFRSYM    DATA     BYTE      P3
      000000A0H   SFRSYM    DATA     BYTE      P2
L251 LINKER/LOCATER V4.66.93.0                                                        07/09/2022  13:59:50  PAGE 26


      00000090H   SFRSYM    DATA     BYTE      P1
      00000080H   SFRSYM    DATA     BYTE      P0

      00FF0F86H   BLOCK     CODE     ---       LVL=0
      00FF0F86H   LINE      CODE     ---       #7
      00FF0F86H   LINE      CODE     ---       #9
      00FF0FBEH   LINE      CODE     ---       #11
      00FF0FBEH   LINE      CODE     ---       #12
      00FF0FC1H   LINE      CODE     ---       #13
      00FF0FC1H   LINE      CODE     ---       #14
      00FF0FC1H   LINE      CODE     ---       #15
      00FF0FC4H   LINE      CODE     ---       #16
      00FF0FC4H   LINE      CODE     ---       #17
      00FF0FC4H   LINE      CODE     ---       #18
      00FF0FC7H   LINE      CODE     ---       #19
      00FF0FC7H   LINE      CODE     ---       #20
      00FF0FC7H   LINE      CODE     ---       #21
      00FF0FCAH   LINE      CODE     ---       #22
      00FF0FCAH   LINE      CODE     ---       #23
      00FF0FCAH   LINE      CODE     ---       #24
      00FF0FCDH   LINE      CODE     ---       #25
      00FF0FCDH   LINE      CODE     ---       #26
      00FF0FCDH   LINE      CODE     ---       #27
      00FF0FD0H   LINE      CODE     ---       #28
      00FF0FD0H   LINE      CODE     ---       #29
      00FF0FD0H   LINE      CODE     ---       #30
      00FF0FD3H   LINE      CODE     ---       #31
      00FF0FD3H   LINE      CODE     ---       #32
      00FF0FD3H   LINE      CODE     ---       #33
      00FF0FD6H   LINE      CODE     ---       #34
      00FF0FD6H   LINE      CODE     ---       #35
      00FF0FD6H   LINE      CODE     ---       #36
      00FF0FD9H   LINE      CODE     ---       #37
      00FF0FD9H   LINE      CODE     ---       #38
      00FF0FD9H   LINE      CODE     ---       #39
      00FF0FDCH   LINE      CODE     ---       #40
      00FF0FDCH   LINE      CODE     ---       #41
      00FF0FDCH   LINE      CODE     ---       #42
      00FF0FDFH   LINE      CODE     ---       #43
      00FF0FDFH   LINE      CODE     ---       #44
      00FF0FDFH   LINE      CODE     ---       #45
      00FF0FE2H   LINE      CODE     ---       #46
      00FF0FE2H   LINE      CODE     ---       #47
      00FF0FE2H   LINE      CODE     ---       #48
      ---         BLOCKEND  ---      ---       LVL=0

      00FF0819H   BLOCK     CODE     ---       LVL=0
      00FF081BH   BLOCK     CODE     NEAR LAB  LVL=1
      R10         REGSYM    ---      BYTE      ep
      ---         BLOCKEND  ---      ---       LVL=1
      00FF0819H   LINE      CODE     ---       #50
      00FF081BH   LINE      CODE     ---       #51
      00FF081BH   LINE      CODE     ---       #54
      00FF083CH   LINE      CODE     ---       #59
      00FF083CH   LINE      CODE     ---       #60
      00FF083FH   LINE      CODE     ---       #61
      00FF083FH   LINE      CODE     ---       #63
      00FF0850H   LINE      CODE     ---       #65
      00FF0850H   LINE      CODE     ---       #66
      00FF085CH   LINE      CODE     ---       #69
      00FF085CH   LINE      CODE     ---       #70
      00FF085FH   LINE      CODE     ---       #71
      00FF085FH   LINE      CODE     ---       #74
      00FF085FH   LINE      CODE     ---       #75
      00FF085FH   LINE      CODE     ---       #76
L251 LINKER/LOCATER V4.66.93.0                                                        07/09/2022  13:59:50  PAGE 27


      00FF085FH   LINE      CODE     ---       #77
      00FF0861H   LINE      CODE     ---       #78
      00FF0861H   LINE      CODE     ---       #79
      00FF0877H   LINE      CODE     ---       #83
      00FF0877H   LINE      CODE     ---       #84
      00FF087AH   LINE      CODE     ---       #85
      00FF087AH   LINE      CODE     ---       #88
      00FF0882H   LINE      CODE     ---       #89
      00FF0882H   LINE      CODE     ---       #90
      00FF0882H   LINE      CODE     ---       #91
      00FF0884H   LINE      CODE     ---       #92
      00FF0884H   LINE      CODE     ---       #93
      00FF0891H   LINE      CODE     ---       #96
      00FF0891H   LINE      CODE     ---       #97
      00FF0893H   LINE      CODE     ---       #98
      00FF0893H   LINE      CODE     ---       #101
      00FF089CH   LINE      CODE     ---       #102
      00FF08A5H   LINE      CODE     ---       #105
      00FF08A5H   LINE      CODE     ---       #120
      00FF08BEH   LINE      CODE     ---       #122
      00FF08C6H   LINE      CODE     ---       #123
      00FF08C6H   LINE      CODE     ---       #124
      00FF08C8H   LINE      CODE     ---       #127
      00FF08D0H   LINE      CODE     ---       #128
      00FF08D0H   LINE      CODE     ---       #129
      00FF08D0H   LINE      CODE     ---       #130
      00FF08D2H   LINE      CODE     ---       #133
      00FF08D2H   LINE      CODE     ---       #148
      00FF08EBH   LINE      CODE     ---       #150
      00FF08F3H   LINE      CODE     ---       #151
      00FF08F3H   LINE      CODE     ---       #152
      00FF08F5H   LINE      CODE     ---       #155
      00FF0901H   LINE      CODE     ---       #156
      00FF0909H   LINE      CODE     ---       #157
      00FF0909H   LINE      CODE     ---       #158
      00FF090BH   LINE      CODE     ---       #160
      00FF090BH   LINE      CODE     ---       #161
      00FF090BH   LINE      CODE     ---       #162
      00FF090DH   LINE      CODE     ---       #163
      00FF090DH   LINE      CODE     ---       #164
      00FF090DH   LINE      CODE     ---       #165
      00FF090DH   LINE      CODE     ---       #166
      00FF090DH   LINE      CODE     ---       #167
      00FF0910H   LINE      CODE     ---       #168
      00FF0912H   LINE      CODE     ---       #169
      00FF0912H   LINE      CODE     ---       #171
      00FF0915H   LINE      CODE     ---       #172
      ---         BLOCKEND  ---      ---       LVL=0

      00FF0AC0H   BLOCK     CODE     ---       LVL=0
      R7          REGSYM    ---      BYTE      ep
      00FF0AC0H   LINE      CODE     ---       #174
      00FF0AC0H   LINE      CODE     ---       #175
      00FF0AC0H   LINE      CODE     ---       #178
      00FF0AEBH   LINE      CODE     ---       #185
      00FF0AEBH   LINE      CODE     ---       #186
      00FF0AEDH   LINE      CODE     ---       #187
      00FF0AEDH   LINE      CODE     ---       #189
      00FF0AF6H   LINE      CODE     ---       #190
      00FF0AFFH   LINE      CODE     ---       #193
      00FF0AFFH   LINE      CODE     ---       #208
      00FF0B19H   LINE      CODE     ---       #209
      00FF0B1EH   LINE      CODE     ---       #210
      00FF0B23H   LINE      CODE     ---       #211
      00FF0B23H   LINE      CODE     ---       #212
L251 LINKER/LOCATER V4.66.93.0                                                        07/09/2022  13:59:50  PAGE 28


      00FF0B25H   LINE      CODE     ---       #215
      00FF0B25H   LINE      CODE     ---       #230
      00FF0B3FH   LINE      CODE     ---       #231
      00FF0B44H   LINE      CODE     ---       #232
      00FF0B4CH   LINE      CODE     ---       #233
      00FF0B53H   LINE      CODE     ---       #234
      00FF0B55H   LINE      CODE     ---       #236
      00FF0B55H   LINE      CODE     ---       #237
      00FF0B58H   LINE      CODE     ---       #238
      00FF0B58H   LINE      CODE     ---       #239
      00FF0B58H   LINE      CODE     ---       #241
      00FF0B5BH   LINE      CODE     ---       #242
      ---         BLOCKEND  ---      ---       LVL=0

      00FF0B5BH   BLOCK     CODE     ---       LVL=0
      R7          REGSYM    ---      BYTE      ep
      00FF0B5BH   LINE      CODE     ---       #244
      00FF0B5BH   LINE      CODE     ---       #245
      00FF0B5BH   LINE      CODE     ---       #248
      00FF0B86H   LINE      CODE     ---       #255
      00FF0B86H   LINE      CODE     ---       #256
      00FF0B88H   LINE      CODE     ---       #257
      00FF0B88H   LINE      CODE     ---       #259
      00FF0B91H   LINE      CODE     ---       #260
      00FF0B9AH   LINE      CODE     ---       #263
      00FF0B9AH   LINE      CODE     ---       #278
      00FF0BB1H   LINE      CODE     ---       #279
      00FF0BB6H   LINE      CODE     ---       #280
      00FF0BBBH   LINE      CODE     ---       #281
      00FF0BBBH   LINE      CODE     ---       #282
      00FF0BBDH   LINE      CODE     ---       #285
      00FF0BBDH   LINE      CODE     ---       #300
      00FF0BD4H   LINE      CODE     ---       #301
      00FF0BD9H   LINE      CODE     ---       #302
      00FF0BE1H   LINE      CODE     ---       #303
      00FF0BE8H   LINE      CODE     ---       #304
      00FF0BEAH   LINE      CODE     ---       #306
      00FF0BEAH   LINE      CODE     ---       #307
      00FF0BEDH   LINE      CODE     ---       #308
      00FF0BEDH   LINE      CODE     ---       #309
      00FF0BEDH   LINE      CODE     ---       #311
      00FF0BF0H   LINE      CODE     ---       #312
      ---         BLOCKEND  ---      ---       LVL=0

      00FF1124H   BLOCK     CODE     ---       LVL=0
      00FF1126H   BLOCK     CODE     NEAR LAB  LVL=1
      R15         REGSYM    ---      BYTE      addr
      ---         BLOCKEND  ---      ---       LVL=1
      00FF1124H   LINE      CODE     ---       #314
      00FF1126H   LINE      CODE     ---       #315
      00FF1126H   LINE      CODE     ---       #318
      00FF114FH   LINE      CODE     ---       #325
      00FF1152H   LINE      CODE     ---       #326
      00FF1154H   LINE      CODE     ---       #327
      00FF1154H   LINE      CODE     ---       #329
      00FF1154H   LINE      CODE     ---       #330
      00FF115AH   LINE      CODE     ---       #331
      00FF115EH   LINE      CODE     ---       #333
      00FF1160H   LINE      CODE     ---       #334
      00FF1162H   LINE      CODE     ---       #337
      00FF1168H   LINE      CODE     ---       #338
      00FF1168H   LINE      CODE     ---       #340
      00FF116BH   LINE      CODE     ---       #341
      ---         BLOCKEND  ---      ---       LVL=0

L251 LINKER/LOCATER V4.66.93.0                                                        07/09/2022  13:59:50  PAGE 29


      00FF0918H   BLOCK     CODE     ---       LVL=0
      00FF0918H   LINE      CODE     ---       #343
      00FF0918H   LINE      CODE     ---       #345
      00FF0923H   LINE      CODE     ---       #347
      00FF0923H   LINE      CODE     ---       #348
      00FF0926H   LINE      CODE     ---       #349
      00FF0926H   LINE      CODE     ---       #351
      00FF093FH   LINE      CODE     ---       #353
      00FF093FH   LINE      CODE     ---       #354
      00FF0949H   LINE      CODE     ---       #356
      00FF0949H   LINE      CODE     ---       #357
      00FF0949H   LINE      CODE     ---       #358
      00FF094BH   LINE      CODE     ---       #361
      00FF0957H   LINE      CODE     ---       #362
      00FF095BH   LINE      CODE     ---       #363
      00FF095BH   LINE      CODE     ---       #364
      00FF095DH   LINE      CODE     ---       #365
      00FF095DH   LINE      CODE     ---       #366
      00FF0969H   LINE      CODE     ---       #367
      00FF096DH   LINE      CODE     ---       #368
      00FF096FH   LINE      CODE     ---       #369
      00FF096FH   LINE      CODE     ---       #370
      00FF097DH   LINE      CODE     ---       #372
      00FF097DH   LINE      CODE     ---       #373
      00FF0989H   LINE      CODE     ---       #374
      00FF098DH   LINE      CODE     ---       #375
      00FF098FH   LINE      CODE     ---       #376
      00FF098FH   LINE      CODE     ---       #377
      00FF099BH   LINE      CODE     ---       #378
      00FF099FH   LINE      CODE     ---       #379
      00FF09A1H   LINE      CODE     ---       #380
      00FF09A1H   LINE      CODE     ---       #381
      00FF09ABH   LINE      CODE     ---       #383
      00FF09AFH   LINE      CODE     ---       #384
      00FF09B4H   LINE      CODE     ---       #385
      00FF09B6H   LINE      CODE     ---       #388
      00FF09C2H   LINE      CODE     ---       #389
      00FF09C6H   LINE      CODE     ---       #390
      00FF09C6H   LINE      CODE     ---       #391
      00FF09C8H   LINE      CODE     ---       #392
      00FF09C8H   LINE      CODE     ---       #393
      00FF09C8H   LINE      CODE     ---       #394
      00FF09CAH   LINE      CODE     ---       #395
      00FF09CAH   LINE      CODE     ---       #396
      00FF09CAH   LINE      CODE     ---       #397
      00FF09CAH   LINE      CODE     ---       #398
      00FF09D6H   LINE      CODE     ---       #399
      00FF09DEH   LINE      CODE     ---       #400
      00FF09E0H   LINE      CODE     ---       #401
      00FF09E0H   LINE      CODE     ---       #402
      00FF09E3H   LINE      CODE     ---       #403
      00FF09E3H   LINE      CODE     ---       #404
      00FF09E3H   LINE      CODE     ---       #406
      00FF09EDH   LINE      CODE     ---       #408
      00FF09F1H   LINE      CODE     ---       #409
      00FF09F1H   LINE      CODE     ---       #411
      00FF09F4H   LINE      CODE     ---       #412
      ---         BLOCKEND  ---      ---       LVL=0

      00FF1BB7H   BLOCK     CODE     ---       LVL=0
      00FF1BB7H   LINE      CODE     ---       #414
      00FF1BB7H   LINE      CODE     ---       #416
      ---         BLOCKEND  ---      ---       LVL=0

      00FF1038H   BLOCK     CODE     ---       LVL=0
L251 LINKER/LOCATER V4.66.93.0                                                        07/09/2022  13:59:50  PAGE 30


      00FF1038H   LINE      CODE     ---       #419
      00FF1038H   LINE      CODE     ---       #421
      00FF1061H   LINE      CODE     ---       #428
      00FF1064H   LINE      CODE     ---       #429
      00FF1064H   LINE      CODE     ---       #430
      00FF1064H   LINE      CODE     ---       #432
      00FF106BH   LINE      CODE     ---       #434
      00FF1073H   LINE      CODE     ---       #435
      00FF1073H   LINE      CODE     ---       #436
      00FF1075H   LINE      CODE     ---       #439
      00FF1081H   LINE      CODE     ---       #440
      00FF1089H   LINE      CODE     ---       #441
      00FF1089H   LINE      CODE     ---       #443
      00FF108CH   LINE      CODE     ---       #444
      ---         BLOCKEND  ---      ---       LVL=0

      00FF0D0EH   BLOCK     CODE     ---       LVL=0
      00FF0D0EH   LINE      CODE     ---       #446
      00FF0D0EH   LINE      CODE     ---       #448
      00FF0D37H   LINE      CODE     ---       #455
      00FF0D3AH   LINE      CODE     ---       #456
      00FF0D3AH   LINE      CODE     ---       #457
      00FF0D3AH   LINE      CODE     ---       #459
      00FF0D41H   LINE      CODE     ---       #461
      00FF0D47H   LINE      CODE     ---       #462
      00FF0D4CH   LINE      CODE     ---       #463
      00FF0D50H   LINE      CODE     ---       #465
      00FF0D58H   LINE      CODE     ---       #466
      00FF0D60H   LINE      CODE     ---       #467
      00FF0D68H   LINE      CODE     ---       #490
      00FF0D70H   LINE      CODE     ---       #491
      00FF0D77H   LINE      CODE     ---       #492
      00FF0D7FH   LINE      CODE     ---       #514
      00FF0D86H   LINE      CODE     ---       #515
      00FF0D88H   LINE      CODE     ---       #518
      00FF0D8EH   LINE      CODE     ---       #519
      00FF0D94H   LINE      CODE     ---       #520
      00FF0D98H   LINE      CODE     ---       #521
      00FF0D98H   LINE      CODE     ---       #523
      00FF0D9BH   LINE      CODE     ---       #524
      ---         BLOCKEND  ---      ---       LVL=0

      00FF1235H   BLOCK     CODE     ---       LVL=0
      00FF1235H   LINE      CODE     ---       #526
      00FF1235H   LINE      CODE     ---       #528
      00FF1259H   LINE      CODE     ---       #534
      00FF125CH   LINE      CODE     ---       #535
      00FF125CH   LINE      CODE     ---       #536
      00FF125CH   LINE      CODE     ---       #538
      00FF1268H   LINE      CODE     ---       #539
      00FF1270H   LINE      CODE     ---       #541
      00FF1273H   LINE      CODE     ---       #542
      ---         BLOCKEND  ---      ---       LVL=0

      00FF173AH   BLOCK     CODE     ---       LVL=0
      00FF173AH   LINE      CODE     ---       #544
      00FF173AH   LINE      CODE     ---       #546
      00FF175CH   LINE      CODE     ---       #552
      00FF175FH   LINE      CODE     ---       #553
      00FF175FH   LINE      CODE     ---       #554
      00FF175FH   LINE      CODE     ---       #556
      00FF1762H   LINE      CODE     ---       #557
      ---         BLOCKEND  ---      ---       LVL=0

      00FF1BBAH   BLOCK     CODE     ---       LVL=0
L251 LINKER/LOCATER V4.66.93.0                                                        07/09/2022  13:59:50  PAGE 31


      00FF1BBAH   LINE      CODE     ---       #559
      00FF1BBAH   LINE      CODE     ---       #561
      ---         BLOCKEND  ---      ---       LVL=0

      ---         MODULE    ---      ---       usb_req_vendor
      00FF1BBDH   PUBLIC    CODE     ---       usb_req_vendor
      000000D0H   SFRSYM    DATA     BYTE      PSW
      0000009DH   SFRSYM    DATA     BYTE      IRCBAND
      00000097H   SFRSYM    DATA     BYTE      AUXR2
      000000EFH   SFRSYM    DATA     BYTE      AUXINTIF
      000000FDH   SFRSYM    DATA     BYTE      S4CON
      000000ACH   SFRSYM    DATA     BYTE      S3CON
      0000009AH   SFRSYM    DATA     BYTE      S2CON
      000000B7H   SFRSYM    DATA     BYTE      IPH
      000000CDH   SFRSYM    DATA     BYTE      SPSTAT
      000000DDH   SFRSYM    DATA     BYTE      T4T3M
      000000C1H   SFRSYM    DATA     BYTE      WDT_CONTR
      000000DFH   SFRSYM    DATA     BYTE      IP3
      000000F4H   SFRSYM    DATA     BYTE      USBCON
      000000B5H   SFRSYM    DATA     BYTE      IP2
      000000FFH   SFRSYM    DATA     BYTE      RSTCFG
      000000F9H   SFRSYM    DATA     BYTE      LINICR
      0000008EH   SFRSYM    DATA     BYTE      AUXR
      000000AFH   SFRSYM    DATA     BYTE      IE2
      00000088H   SFRSYM    DATA     BYTE      TCON
      00000098H   SFRSYM    DATA     BYTE      SCON
      000000F1H   SFRSYM    DATA     BYTE      CANICR
      00000087H   SFRSYM    DATA     BYTE      PCON
      000000BCH   SFRSYM    DATA     BYTE      ADC_CONTR
      000000E7H   SFRSYM    DATA     BYTE      CMPCR2
      000000E6H   SFRSYM    DATA     BYTE      CMPCR1
      000000B8H   SFRSYM    DATA     BYTE      IP
      0000008FH   SFRSYM    DATA     BYTE      INTCLKO
      000000EEH   SFRSYM    DATA     BYTE      IP3H
      000000B6H   SFRSYM    DATA     BYTE      IP2H
      000000A8H   SFRSYM    DATA     BYTE      IE
      000000BBH   SFRSYM    DATA     BYTE      P_SW3
      000000BAH   SFRSYM    DATA     BYTE      P_SW2
      000000A2H   SFRSYM    DATA     BYTE      P_SW1
      000000CEH   SFRSYM    DATA     BYTE      SPCTL
      000000F8H   SFRSYM    DATA     BYTE      P7
      000000E8H   SFRSYM    DATA     BYTE      P6
      000000C8H   SFRSYM    DATA     BYTE      P5
      000000C0H   SFRSYM    DATA     BYTE      P4
      000000B0H   SFRSYM    DATA     BYTE      P3
      000000A0H   SFRSYM    DATA     BYTE      P2
      00000090H   SFRSYM    DATA     BYTE      P1
      00000080H   SFRSYM    DATA     BYTE      P0

      00FF1BBDH   BLOCK     CODE     ---       LVL=0
      00FF1BBDH   LINE      CODE     ---       #5
      00FF1BBDH   LINE      CODE     ---       #7
      ---         BLOCKEND  ---      ---       LVL=0

      ---         MODULE    ---      ---       util
      00FF1B42H   PUBLIC    CODE     ---       LCD12864_DisplayClear
      00FF14FFH   PUBLIC    CODE     ---       OLED12864_ScrollRight
      00FF1A20H   PUBLIC    CODE     ---       OLED12864_DisplayOff
      00FF156FH   PUBLIC    CODE     ---       OLED12864_ScrollLeft
      00FF17D2H   PUBLIC    CODE     ---       OLED12864_SetAddressMode
      00FF17F1H   PUBLIC    CODE     ---       OLED12864_SetContrast
      00FF1A37H   PUBLIC    CODE     ---       LCD12864_AutoWrapOff
      00FF1273H   PUBLIC    CODE     ---       OLED12864_ShowPicture
      00FF1918H   PUBLIC    CODE     ---       OLED12864_ScrollStart
      00FF15D9H   PUBLIC    CODE     ---       SEG7_ShowFloat
L251 LINKER/LOCATER V4.66.93.0                                                        07/09/2022  13:59:50  PAGE 32


      00FF116EH   PUBLIC    CODE     ---       SEG7_ShowString
      00FF15A6H   PUBLIC    CODE     ---       SEG7_ShowCode
      00FF12B1H   PUBLIC    CODE     ---       LED40_SendData
      00FF1930H   PUBLIC    CODE     ---       OLED12864_DisplayOn
      00FF1810H   PUBLIC    CODE     ---       LCD12864_ReverseLine
      00FF1A4EH   PUBLIC    CODE     ---       OLED12864_ScrollStop
      00FF12EFH   PUBLIC    CODE     ---       LED64_SendData
      00FF160AH   PUBLIC    CODE     ---       printf_hid
      00FF13A5H   PUBLIC    CODE     ---       SEG7_ShowLong
      00FF1948H   PUBLIC    CODE     ---       LCD12864_ScrollRight
      00FF1960H   PUBLIC    CODE     ---       LCD12864_AutoWrapOn
      00FF1A65H   PUBLIC    CODE     ---       LCD12864_DisplayOff
      00FF0096H   PUBLIC    CODE     ---       reverse2
      00FF1A7CH   PUBLIC    CODE     ---       LCD12864_ScrollLeft
      00FF1A93H   PUBLIC    CODE     ---       OLED12864_HorizontalMirror
      00FF108CH   PUBLIC    CODE     ---       LCD12864_ShowPicture
      00FF1537H   PUBLIC    CODE     ---       OLED12864_ScrollUp
      00FF1AAAH   PUBLIC    CODE     ---       OLED12864_DisplayContent
      00FF1B54H   PUBLIC    CODE     ---       OLED12864_DisplayReverse
      00FF1978H   PUBLIC    CODE     ---       OLED12864_VerticalMirror
      00FF1990H   PUBLIC    CODE     ---       LCD12864_CursorReturnHome
      00FF19A8H   PUBLIC    CODE     ---       OLED12864_DisplayEntire
      00FF19C0H   PUBLIC    CODE     ---       LCD12864_DisplayOn
      00FF19D8H   PUBLIC    CODE     ---       LCD12864_CursorMoveRight
      00FF13E0H   PUBLIC    CODE     ---       LCD12864_ShowString
      00FF1AC1H   PUBLIC    CODE     ---       LCD12864_CursorOff
      00FF19F0H   PUBLIC    CODE     ---       sleep_ms
      00FF1AD8H   PUBLIC    CODE     ---       LCD12864_CursorMoveLeft
      00FF184DH   PUBLIC    CODE     ---       sleep_us
      00FF1788H   PUBLIC    CODE     ---       LCD12864_ScrollUp
      00FF1A08H   PUBLIC    CODE     ---       LCD12864_CursorOn
      000000E0H   PUBLIC    EDATA    BYTE      ?SEG7_ShowString?BYTE
      0000010CH   PUBLIC    EDATA    BYTE      ?printf_hid?BYTE
      000000D0H   SFRSYM    DATA     BYTE      PSW
      0000009DH   SFRSYM    DATA     BYTE      IRCBAND
      00000097H   SFRSYM    DATA     BYTE      AUXR2
      000000EFH   SFRSYM    DATA     BYTE      AUXINTIF
      000000FDH   SFRSYM    DATA     BYTE      S4CON
      000000ACH   SFRSYM    DATA     BYTE      S3CON
      0000009AH   SFRSYM    DATA     BYTE      S2CON
      000000B7H   SFRSYM    DATA     BYTE      IPH
      000000CDH   SFRSYM    DATA     BYTE      SPSTAT
      000000DDH   SFRSYM    DATA     BYTE      T4T3M
      000000C1H   SFRSYM    DATA     BYTE      WDT_CONTR
      000000DFH   SFRSYM    DATA     BYTE      IP3
      000000F4H   SFRSYM    DATA     BYTE      USBCON
      000000B5H   SFRSYM    DATA     BYTE      IP2
      000000FFH   SFRSYM    DATA     BYTE      RSTCFG
      000000F9H   SFRSYM    DATA     BYTE      LINICR
      0000008EH   SFRSYM    DATA     BYTE      AUXR
      000000AFH   SFRSYM    DATA     BYTE      IE2
      00000088H   SFRSYM    DATA     BYTE      TCON
      00000098H   SFRSYM    DATA     BYTE      SCON
      000000F1H   SFRSYM    DATA     BYTE      CANICR
      00000087H   SFRSYM    DATA     BYTE      PCON
      000000BCH   SFRSYM    DATA     BYTE      ADC_CONTR
      000000E7H   SFRSYM    DATA     BYTE      CMPCR2
      000000E6H   SFRSYM    DATA     BYTE      CMPCR1
      000000B8H   SFRSYM    DATA     BYTE      IP
      0000008FH   SFRSYM    DATA     BYTE      INTCLKO
      000000EEH   SFRSYM    DATA     BYTE      IP3H
      000000B6H   SFRSYM    DATA     BYTE      IP2H
      000000A8H   SFRSYM    DATA     BYTE      IE
      000000BBH   SFRSYM    DATA     BYTE      P_SW3
      000000BAH   SFRSYM    DATA     BYTE      P_SW2
L251 LINKER/LOCATER V4.66.93.0                                                        07/09/2022  13:59:50  PAGE 33


      000000A2H   SFRSYM    DATA     BYTE      P_SW1
      000000CEH   SFRSYM    DATA     BYTE      SPCTL
      000000F8H   SFRSYM    DATA     BYTE      P7
      000000E8H   SFRSYM    DATA     BYTE      P6
      000000C8H   SFRSYM    DATA     BYTE      P5
      000000C0H   SFRSYM    DATA     BYTE      P4
      000000B0H   SFRSYM    DATA     BYTE      P3
      000000A0H   SFRSYM    DATA     BYTE      P2
      00000090H   SFRSYM    DATA     BYTE      P1
      00000080H   SFRSYM    DATA     BYTE      P0
      00FF189DH   SYMBOL    CODE     ---       OLED12864_SetHeader
      00FF0BF0H   SYMBOL    CODE     ---       OLED12864_SetBuffer
      00FF18B6H   SYMBOL    CODE     ---       LCD12864_SetHeader
      00FF0C7FH   SYMBOL    CODE     ---       LCD12864_SetBuffer
      00FF18CFH   SYMBOL    CODE     ---       SEG7_SetHeader

      00FF0096H   BLOCK     CODE     ---       LVL=0
      0000011DH   SYMBOL    EDATA    WORD      w
      00FF009AH   BLOCK     CODE     NEAR LAB  LVL=1
      0000011FH   SYMBOL    EDATA    WORD      ret
      ---         BLOCKEND  ---      ---       LVL=1
      00FF0096H   LINE      CODE     ---       #17
      00FF009AH   LINE      CODE     ---       #18
      00FF009AH   LINE      CODE     ---       #21
      00FF00B0H   LINE      CODE     ---       #22
      00FF00C6H   LINE      CODE     ---       #24
      00FF00CAH   LINE      CODE     ---       #25
      ---         BLOCKEND  ---      ---       LVL=0

      00FF184DH   BLOCK     CODE     ---       LVL=0
      WR6         REGSYM    ---      WORD      n
      00FF184DH   LINE      CODE     ---       #27
      00FF184DH   LINE      CODE     ---       #29
      00FF184FH   LINE      CODE     ---       #38
      00FF1850H   LINE      CODE     ---       #39
      00FF1851H   LINE      CODE     ---       #40
      00FF1852H   LINE      CODE     ---       #41
      00FF1853H   LINE      CODE     ---       #43
      00FF1854H   LINE      CODE     ---       #44
      00FF1855H   LINE      CODE     ---       #45
      00FF1856H   LINE      CODE     ---       #46
      00FF1857H   LINE      CODE     ---       #47
      00FF1858H   LINE      CODE     ---       #49
      00FF1859H   LINE      CODE     ---       #50
      00FF185AH   LINE      CODE     ---       #51
      00FF185BH   LINE      CODE     ---       #52
      00FF185CH   LINE      CODE     ---       #53
      00FF185DH   LINE      CODE     ---       #55
      00FF185EH   LINE      CODE     ---       #56
      00FF185FH   LINE      CODE     ---       #57
      00FF1860H   LINE      CODE     ---       #58
      00FF1861H   LINE      CODE     ---       #59
      00FF1869H   LINE      CODE     ---       #60
      ---         BLOCKEND  ---      ---       LVL=0

      00FF19F0H   BLOCK     CODE     ---       LVL=0
      WR14        REGSYM    ---      WORD      n
      00FF19F0H   LINE      CODE     ---       #62
      00FF19F4H   LINE      CODE     ---       #64
      00FF1A05H   LINE      CODE     ---       #66
      ---         BLOCKEND  ---      ---       LVL=0

      00FF18CFH   BLOCK     CODE     ---       LVL=0
      00FF18CFH   LINE      CODE     ---       #68
      00FF18CFH   LINE      CODE     ---       #70
L251 LINKER/LOCATER V4.66.93.0                                                        07/09/2022  13:59:50  PAGE 34


      00FF18D5H   LINE      CODE     ---       #71
      00FF18DBH   LINE      CODE     ---       #72
      00FF18E1H   LINE      CODE     ---       #73
      00FF18E7H   LINE      CODE     ---       #74
      ---         BLOCKEND  ---      ---       LVL=0

      00FF13A5H   BLOCK     CODE     ---       LVL=0
      00000115H   SYMBOL    EDATA    LONG      n
      R15         REGSYM    ---      CHAR      radix
      00FF13A5H   LINE      CODE     ---       #76
      00FF13ADH   LINE      CODE     ---       #78
      00FF13B0H   LINE      CODE     ---       #79
      00FF13B6H   LINE      CODE     ---       #80
      00FF13BCH   LINE      CODE     ---       #81
      00FF13C2H   LINE      CODE     ---       #82
      00FF13C7H   LINE      CODE     ---       #83
      00FF13DAH   LINE      CODE     ---       #85
      00FF13DDH   LINE      CODE     ---       #86
      ---         BLOCKEND  ---      ---       LVL=0

      00FF15D9H   BLOCK     CODE     ---       LVL=0
      DR12        REGSYM    ---      FLOAT     f
      00FF15D9H   LINE      CODE     ---       #88
      00FF15DDH   LINE      CODE     ---       #90
      00FF15E0H   LINE      CODE     ---       #91
      00FF15E6H   LINE      CODE     ---       #92
      00FF15ECH   LINE      CODE     ---       #93
      00FF15F1H   LINE      CODE     ---       #94
      00FF15F5H   LINE      CODE     ---       #95
      00FF1604H   LINE      CODE     ---       #97
      00FF1607H   LINE      CODE     ---       #98
      ---         BLOCKEND  ---      ---       LVL=0

      00FF15A6H   BLOCK     CODE     ---       LVL=0
      REG=3       REGSYM    ---      ---       cod
      00FF15A6H   LINE      CODE     ---       #100
      00FF15A8H   LINE      CODE     ---       #102
      00FF15ABH   LINE      CODE     ---       #103
      00FF15B1H   LINE      CODE     ---       #104
      00FF15B6H   LINE      CODE     ---       #105
      00FF15BAH   LINE      CODE     ---       #106
      00FF15BEH   LINE      CODE     ---       #107
      00FF15D3H   LINE      CODE     ---       #109
      00FF15D6H   LINE      CODE     ---       #110
      ---         BLOCKEND  ---      ---       LVL=0

      00FF116EH   BLOCK     CODE     ---       LVL=0
      000000E0H   SYMBOL    EDATA    ---       fmt
      00FF1174H   BLOCK     CODE     NEAR LAB  LVL=1
      REG=1       REGSYM    ---      ---       va
      WR14        REGSYM    ---      INT       ret
      ---         BLOCKEND  ---      ---       LVL=1
      00FF116EH   LINE      CODE     ---       #112
      00FF1174H   LINE      CODE     ---       #113
      00FF1174H   LINE      CODE     ---       #117
      00FF1177H   LINE      CODE     ---       #118
      00FF117DH   LINE      CODE     ---       #119
      00FF1182H   LINE      CODE     ---       #120
      00FF1186H   LINE      CODE     ---       #121
      00FF118AH   LINE      CODE     ---       #123
      00FF1192H   LINE      CODE     ---       #124
      00FF11ABH   LINE      CODE     ---       #127
      00FF11AEH   LINE      CODE     ---       #129
      00FF11B0H   LINE      CODE     ---       #130
      ---         BLOCKEND  ---      ---       LVL=0
L251 LINKER/LOCATER V4.66.93.0                                                        07/09/2022  13:59:50  PAGE 35



      00FF160AH   BLOCK     CODE     ---       LVL=0
      0000010CH   SYMBOL    EDATA    ---       fmt
      00FF1610H   BLOCK     CODE     NEAR LAB  LVL=1
      REG=1       REGSYM    ---      ---       va
      WR14        REGSYM    ---      INT       ret
      ---         BLOCKEND  ---      ---       LVL=1
      00FF160AH   LINE      CODE     ---       #132
      00FF1610H   LINE      CODE     ---       #133
      00FF1610H   LINE      CODE     ---       #137
      00FF1618H   LINE      CODE     ---       #138
      00FF1631H   LINE      CODE     ---       #141
      00FF1634H   LINE      CODE     ---       #143
      00FF1636H   LINE      CODE     ---       #144
      ---         BLOCKEND  ---      ---       LVL=0

      00FF12B1H   BLOCK     CODE     ---       LVL=0
      REG=0       REGSYM    ---      ---       dat
      R10         REGSYM    ---      BYTE      size
      00FF12B1H   LINE      CODE     ---       #146
      00FF12B3H   LINE      CODE     ---       #148
      00FF12B8H   LINE      CODE     ---       #149
      00FF12BBH   LINE      CODE     ---       #151
      00FF12C1H   LINE      CODE     ---       #152
      00FF12C7H   LINE      CODE     ---       #153
      00FF12CDH   LINE      CODE     ---       #154
      00FF12D3H   LINE      CODE     ---       #155
      00FF12D9H   LINE      CODE     ---       #156
      00FF12ECH   LINE      CODE     ---       #158
      ---         BLOCKEND  ---      ---       LVL=0

      00FF12EFH   BLOCK     CODE     ---       LVL=0
      REG=0       REGSYM    ---      ---       dat
      R10         REGSYM    ---      BYTE      size
      00FF12EFH   LINE      CODE     ---       #161
      00FF12F1H   LINE      CODE     ---       #163
      00FF12F6H   LINE      CODE     ---       #164
      00FF12F9H   LINE      CODE     ---       #166
      00FF12FFH   LINE      CODE     ---       #167
      00FF1305H   LINE      CODE     ---       #168
      00FF130BH   LINE      CODE     ---       #169
      00FF1311H   LINE      CODE     ---       #170
      00FF1317H   LINE      CODE     ---       #171
      00FF132AH   LINE      CODE     ---       #173
      ---         BLOCKEND  ---      ---       LVL=0

      00FF18B6H   BLOCK     CODE     ---       LVL=0
      00FF18B6H   LINE      CODE     ---       #176
      00FF18B6H   LINE      CODE     ---       #178
      00FF18BCH   LINE      CODE     ---       #179
      00FF18C2H   LINE      CODE     ---       #180
      00FF18C8H   LINE      CODE     ---       #181
      00FF18CEH   LINE      CODE     ---       #182
      ---         BLOCKEND  ---      ---       LVL=0

      00FF1A65H   BLOCK     CODE     ---       LVL=0
      00FF1A65H   LINE      CODE     ---       #184
      00FF1A65H   LINE      CODE     ---       #186
      00FF1A68H   LINE      CODE     ---       #187
      00FF1A6EH   LINE      CODE     ---       #188
      00FF1A74H   LINE      CODE     ---       #189
      00FF1A79H   LINE      CODE     ---       #191
      ---         BLOCKEND  ---      ---       LVL=0

      00FF19C0H   BLOCK     CODE     ---       LVL=0
L251 LINKER/LOCATER V4.66.93.0                                                        07/09/2022  13:59:50  PAGE 36


      00FF19C0H   LINE      CODE     ---       #194
      00FF19C0H   LINE      CODE     ---       #196
      00FF19C3H   LINE      CODE     ---       #197
      00FF19C9H   LINE      CODE     ---       #198
      00FF19CFH   LINE      CODE     ---       #199
      00FF19D5H   LINE      CODE     ---       #201
      ---         BLOCKEND  ---      ---       LVL=0

      00FF1AC1H   BLOCK     CODE     ---       LVL=0
      00FF1AC1H   LINE      CODE     ---       #204
      00FF1AC1H   LINE      CODE     ---       #206
      00FF1AC4H   LINE      CODE     ---       #207
      00FF1ACAH   LINE      CODE     ---       #208
      00FF1AD0H   LINE      CODE     ---       #209
      00FF1AD5H   LINE      CODE     ---       #211
      ---         BLOCKEND  ---      ---       LVL=0

      00FF1A08H   BLOCK     CODE     ---       LVL=0
      00FF1A08H   LINE      CODE     ---       #214
      00FF1A08H   LINE      CODE     ---       #216
      00FF1A0BH   LINE      CODE     ---       #217
      00FF1A11H   LINE      CODE     ---       #218
      00FF1A17H   LINE      CODE     ---       #219
      00FF1A1DH   LINE      CODE     ---       #221
      ---         BLOCKEND  ---      ---       LVL=0

      00FF1AD8H   BLOCK     CODE     ---       LVL=0
      00FF1AD8H   LINE      CODE     ---       #224
      00FF1AD8H   LINE      CODE     ---       #226
      00FF1ADBH   LINE      CODE     ---       #227
      00FF1AE1H   LINE      CODE     ---       #228
      00FF1AE7H   LINE      CODE     ---       #229
      00FF1AECH   LINE      CODE     ---       #231
      ---         BLOCKEND  ---      ---       LVL=0

      00FF19D8H   BLOCK     CODE     ---       LVL=0
      00FF19D8H   LINE      CODE     ---       #234
      00FF19D8H   LINE      CODE     ---       #236
      00FF19DBH   LINE      CODE     ---       #237
      00FF19E1H   LINE      CODE     ---       #238
      00FF19E7H   LINE      CODE     ---       #239
      00FF19EDH   LINE      CODE     ---       #241
      ---         BLOCKEND  ---      ---       LVL=0

      00FF1990H   BLOCK     CODE     ---       LVL=0
      00FF1990H   LINE      CODE     ---       #244
      00FF1990H   LINE      CODE     ---       #246
      00FF1993H   LINE      CODE     ---       #247
      00FF1999H   LINE      CODE     ---       #248
      00FF199FH   LINE      CODE     ---       #249
      00FF19A5H   LINE      CODE     ---       #251
      ---         BLOCKEND  ---      ---       LVL=0

      00FF1A7CH   BLOCK     CODE     ---       LVL=0
      00FF1A7CH   LINE      CODE     ---       #254
      00FF1A7CH   LINE      CODE     ---       #256
      00FF1A7FH   LINE      CODE     ---       #257
      00FF1A85H   LINE      CODE     ---       #258
      00FF1A8BH   LINE      CODE     ---       #259
      00FF1A90H   LINE      CODE     ---       #261
      ---         BLOCKEND  ---      ---       LVL=0

      00FF1948H   BLOCK     CODE     ---       LVL=0
      00FF1948H   LINE      CODE     ---       #264
      00FF1948H   LINE      CODE     ---       #266
L251 LINKER/LOCATER V4.66.93.0                                                        07/09/2022  13:59:50  PAGE 37


      00FF194BH   LINE      CODE     ---       #267
      00FF1951H   LINE      CODE     ---       #268
      00FF1957H   LINE      CODE     ---       #269
      00FF195DH   LINE      CODE     ---       #271
      ---         BLOCKEND  ---      ---       LVL=0

      00FF1788H   BLOCK     CODE     ---       LVL=0
      R15         REGSYM    ---      BYTE      line
      00FF1788H   LINE      CODE     ---       #274
      00FF178CH   LINE      CODE     ---       #276
      00FF178FH   LINE      CODE     ---       #277
      00FF1795H   LINE      CODE     ---       #278
      00FF179BH   LINE      CODE     ---       #279
      00FF17A1H   LINE      CODE     ---       #280
      00FF17A7H   LINE      CODE     ---       #282
      00FF17AAH   LINE      CODE     ---       #283
      ---         BLOCKEND  ---      ---       LVL=0

      00FF1A37H   BLOCK     CODE     ---       LVL=0
      00FF1A37H   LINE      CODE     ---       #285
      00FF1A37H   LINE      CODE     ---       #287
      00FF1A3AH   LINE      CODE     ---       #288
      00FF1A40H   LINE      CODE     ---       #289
      00FF1A46H   LINE      CODE     ---       #290
      00FF1A4BH   LINE      CODE     ---       #292
      ---         BLOCKEND  ---      ---       LVL=0

      00FF1960H   BLOCK     CODE     ---       LVL=0
      00FF1960H   LINE      CODE     ---       #295
      00FF1960H   LINE      CODE     ---       #297
      00FF1963H   LINE      CODE     ---       #298
      00FF1969H   LINE      CODE     ---       #299
      00FF196FH   LINE      CODE     ---       #300
      00FF1975H   LINE      CODE     ---       #302
      ---         BLOCKEND  ---      ---       LVL=0

      00FF1810H   BLOCK     CODE     ---       LVL=0
      R15         REGSYM    ---      BYTE      line
      00FF1810H   LINE      CODE     ---       #305
      00FF1814H   LINE      CODE     ---       #307
      00FF1817H   LINE      CODE     ---       #308
      00FF181DH   LINE      CODE     ---       #309
      00FF1823H   LINE      CODE     ---       #310
      00FF1829H   LINE      CODE     ---       #312
      00FF182CH   LINE      CODE     ---       #313
      ---         BLOCKEND  ---      ---       LVL=0

      00FF1B42H   BLOCK     CODE     ---       LVL=0
      00FF1B42H   LINE      CODE     ---       #315
      00FF1B42H   LINE      CODE     ---       #317
      00FF1B45H   LINE      CODE     ---       #318
      00FF1B4BH   LINE      CODE     ---       #319
      00FF1B51H   LINE      CODE     ---       #321
      ---         BLOCKEND  ---      ---       LVL=0

      00FF0C7FH   BLOCK     CODE     ---       LVL=0
      REG=3       REGSYM    ---      ---       dat
      0000001AH   SYMBOL    EDATA    WORD      size
      00FF0C87H   BLOCK     CODE     NEAR LAB  LVL=1
      0000001CH   SYMBOL    EDATA    BYTE      cnt
      0000001DH   SYMBOL    EDATA    WORD      addr
      ---         BLOCKEND  ---      ---       LVL=1
      00FF0C7FH   LINE      CODE     ---       #324
      00FF0C87H   LINE      CODE     ---       #325
      00FF0C87H   LINE      CODE     ---       #329
L251 LINKER/LOCATER V4.66.93.0                                                        07/09/2022  13:59:50  PAGE 38


      00FF0C8DH   LINE      CODE     ---       #330
      00FF0C8FH   LINE      CODE     ---       #332
      00FF0C95H   LINE      CODE     ---       #333
      00FF0C9FH   LINE      CODE     ---       #334
      00FF0CA3H   LINE      CODE     ---       #336
      00FF0CA6H   LINE      CODE     ---       #337
      00FF0CB4H   LINE      CODE     ---       #338
      00FF0CBAH   LINE      CODE     ---       #339
      00FF0CC9H   LINE      CODE     ---       #340
      00FF0CE0H   LINE      CODE     ---       #342
      00FF0CE3H   LINE      CODE     ---       #344
      00FF0CEBH   LINE      CODE     ---       #345
      00FF0CF9H   LINE      CODE     ---       #346
      00FF0D03H   LINE      CODE     ---       #347
      00FF0D0BH   LINE      CODE     ---       #348
      ---         BLOCKEND  ---      ---       LVL=0

      00FF13E0H   BLOCK     CODE     ---       LVL=0
      00000121H   SYMBOL    EDATA    BYTE      x
      00000122H   SYMBOL    EDATA    BYTE      y
      REG=3       REGSYM    ---      ---       str
      00FF13E0H   LINE      CODE     ---       #350
      00FF13ECH   LINE      CODE     ---       #352
      00FF13F6H   LINE      CODE     ---       #354
      00FF13F9H   LINE      CODE     ---       #355
      00FF13FFH   LINE      CODE     ---       #356
      00FF1405H   LINE      CODE     ---       #357
      00FF140DH   LINE      CODE     ---       #358
      00FF1415H   LINE      CODE     ---       #360
      00FF1418H   LINE      CODE     ---       #361
      ---         BLOCKEND  ---      ---       LVL=0

      00FF108CH   BLOCK     CODE     ---       LVL=0
      R12         REGSYM    ---      BYTE      x
      R13         REGSYM    ---      BYTE      y
      R14         REGSYM    ---      BYTE      cx
      R15         REGSYM    ---      BYTE      cy
      REG=7       REGSYM    ---      ---       dat
      00FF108CH   LINE      CODE     ---       #363
      00FF1098H   LINE      CODE     ---       #365
      00FF10ACH   LINE      CODE     ---       #367
      00FF10AFH   LINE      CODE     ---       #368
      00FF10B5H   LINE      CODE     ---       #369
      00FF10BBH   LINE      CODE     ---       #370
      00FF10C1H   LINE      CODE     ---       #371
      00FF10C7H   LINE      CODE     ---       #372
      00FF10CDH   LINE      CODE     ---       #373
      00FF10D3H   LINE      CODE     ---       #375
      00FF10D6H   LINE      CODE     ---       #376
      ---         BLOCKEND  ---      ---       LVL=0

      00FF189DH   BLOCK     CODE     ---       LVL=0
      00FF189DH   LINE      CODE     ---       #378
      00FF189DH   LINE      CODE     ---       #380
      00FF18A3H   LINE      CODE     ---       #381
      00FF18A9H   LINE      CODE     ---       #382
      00FF18AFH   LINE      CODE     ---       #383
      00FF18B5H   LINE      CODE     ---       #384
      ---         BLOCKEND  ---      ---       LVL=0

      00FF1A20H   BLOCK     CODE     ---       LVL=0
      00FF1A20H   LINE      CODE     ---       #386
      00FF1A20H   LINE      CODE     ---       #388
      00FF1A23H   LINE      CODE     ---       #389
      00FF1A29H   LINE      CODE     ---       #390
L251 LINKER/LOCATER V4.66.93.0                                                        07/09/2022  13:59:50  PAGE 39


      00FF1A2FH   LINE      CODE     ---       #391
      00FF1A34H   LINE      CODE     ---       #393
      ---         BLOCKEND  ---      ---       LVL=0

      00FF1930H   BLOCK     CODE     ---       LVL=0
      00FF1930H   LINE      CODE     ---       #396
      00FF1930H   LINE      CODE     ---       #398
      00FF1933H   LINE      CODE     ---       #399
      00FF1939H   LINE      CODE     ---       #400
      00FF193FH   LINE      CODE     ---       #401
      00FF1945H   LINE      CODE     ---       #403
      ---         BLOCKEND  ---      ---       LVL=0

      00FF1AAAH   BLOCK     CODE     ---       LVL=0
      00FF1AAAH   LINE      CODE     ---       #406
      00FF1AAAH   LINE      CODE     ---       #408
      00FF1AADH   LINE      CODE     ---       #409
      00FF1AB3H   LINE      CODE     ---       #410
      00FF1AB9H   LINE      CODE     ---       #411
      00FF1ABEH   LINE      CODE     ---       #413
      ---         BLOCKEND  ---      ---       LVL=0

      00FF19A8H   BLOCK     CODE     ---       LVL=0
      00FF19A8H   LINE      CODE     ---       #416
      00FF19A8H   LINE      CODE     ---       #418
      00FF19ABH   LINE      CODE     ---       #419
      00FF19B1H   LINE      CODE     ---       #420
      00FF19B7H   LINE      CODE     ---       #421
      00FF19BDH   LINE      CODE     ---       #423
      ---         BLOCKEND  ---      ---       LVL=0

      00FF1A93H   BLOCK     CODE     ---       LVL=0
      00FF1A93H   LINE      CODE     ---       #426
      00FF1A93H   LINE      CODE     ---       #428
      00FF1A96H   LINE      CODE     ---       #429
      00FF1A9CH   LINE      CODE     ---       #430
      00FF1AA2H   LINE      CODE     ---       #431
      00FF1AA7H   LINE      CODE     ---       #433
      ---         BLOCKEND  ---      ---       LVL=0

      00FF1978H   BLOCK     CODE     ---       LVL=0
      00FF1978H   LINE      CODE     ---       #436
      00FF1978H   LINE      CODE     ---       #438
      00FF197BH   LINE      CODE     ---       #439
      00FF1981H   LINE      CODE     ---       #440
      00FF1987H   LINE      CODE     ---       #441
      00FF198DH   LINE      CODE     ---       #443
      ---         BLOCKEND  ---      ---       LVL=0

      00FF1B54H   BLOCK     CODE     ---       LVL=0
      00FF1B54H   LINE      CODE     ---       #446
      00FF1B54H   LINE      CODE     ---       #448
      00FF1B57H   LINE      CODE     ---       #449
      00FF1B5DH   LINE      CODE     ---       #450
      00FF1B63H   LINE      CODE     ---       #452
      ---         BLOCKEND  ---      ---       LVL=0

      00FF17F1H   BLOCK     CODE     ---       LVL=0
      R15         REGSYM    ---      BYTE      bContrast
      00FF17F1H   LINE      CODE     ---       #455
      00FF17F5H   LINE      CODE     ---       #457
      00FF17F8H   LINE      CODE     ---       #458
      00FF17FEH   LINE      CODE     ---       #459
      00FF1804H   LINE      CODE     ---       #460
      00FF180AH   LINE      CODE     ---       #462
L251 LINKER/LOCATER V4.66.93.0                                                        07/09/2022  13:59:50  PAGE 40


      00FF180DH   LINE      CODE     ---       #463
      ---         BLOCKEND  ---      ---       LVL=0

      00FF17D2H   BLOCK     CODE     ---       LVL=0
      R15         REGSYM    ---      BYTE      bMode
      00FF17D2H   LINE      CODE     ---       #465
      00FF17D6H   LINE      CODE     ---       #467
      00FF17D9H   LINE      CODE     ---       #468
      00FF17DFH   LINE      CODE     ---       #469
      00FF17E5H   LINE      CODE     ---       #470
      00FF17EBH   LINE      CODE     ---       #472
      00FF17EEH   LINE      CODE     ---       #473
      ---         BLOCKEND  ---      ---       LVL=0

      00FF156FH   BLOCK     CODE     ---       LVL=0
      R12         REGSYM    ---      BYTE      bPageStart
      R13         REGSYM    ---      BYTE      bPageEnd
      WR14        REGSYM    ---      WORD      nInterval
      00FF156FH   LINE      CODE     ---       #475
      00FF1575H   LINE      CODE     ---       #477
      00FF1578H   LINE      CODE     ---       #478
      00FF157EH   LINE      CODE     ---       #479
      00FF1584H   LINE      CODE     ---       #480
      00FF1589H   LINE      CODE     ---       #481
      00FF158FH   LINE      CODE     ---       #482
      00FF1595H   LINE      CODE     ---       #483
      00FF15A0H   LINE      CODE     ---       #485
      00FF15A3H   LINE      CODE     ---       #486
      ---         BLOCKEND  ---      ---       LVL=0

      00FF14FFH   BLOCK     CODE     ---       LVL=0
      R12         REGSYM    ---      BYTE      bPageStart
      R13         REGSYM    ---      BYTE      bPageEnd
      WR14        REGSYM    ---      WORD      nInterval
      00FF14FFH   LINE      CODE     ---       #488
      00FF1505H   LINE      CODE     ---       #490
      00FF1508H   LINE      CODE     ---       #491
      00FF150EH   LINE      CODE     ---       #492
      00FF1514H   LINE      CODE     ---       #493
      00FF151AH   LINE      CODE     ---       #494
      00FF1520H   LINE      CODE     ---       #495
      00FF1526H   LINE      CODE     ---       #496
      00FF1531H   LINE      CODE     ---       #498
      00FF1534H   LINE      CODE     ---       #499
      ---         BLOCKEND  ---      ---       LVL=0

      00FF1537H   BLOCK     CODE     ---       LVL=0
      R12         REGSYM    ---      BYTE      bPageStart
      R13         REGSYM    ---      BYTE      bPageEnd
      WR14        REGSYM    ---      WORD      nInterval
      00FF1537H   LINE      CODE     ---       #501
      00FF153DH   LINE      CODE     ---       #503
      00FF1540H   LINE      CODE     ---       #504
      00FF1546H   LINE      CODE     ---       #505
      00FF154CH   LINE      CODE     ---       #506
      00FF1552H   LINE      CODE     ---       #507
      00FF1558H   LINE      CODE     ---       #508
      00FF155EH   LINE      CODE     ---       #509
      00FF1569H   LINE      CODE     ---       #511
      00FF156CH   LINE      CODE     ---       #512
      ---         BLOCKEND  ---      ---       LVL=0

      00FF1918H   BLOCK     CODE     ---       LVL=0
      00FF1918H   LINE      CODE     ---       #514
      00FF1918H   LINE      CODE     ---       #516
L251 LINKER/LOCATER V4.66.93.0                                                        07/09/2022  13:59:50  PAGE 41


      00FF191BH   LINE      CODE     ---       #517
      00FF1921H   LINE      CODE     ---       #518
      00FF1927H   LINE      CODE     ---       #519
      00FF192DH   LINE      CODE     ---       #521
      ---         BLOCKEND  ---      ---       LVL=0

      00FF1A4EH   BLOCK     CODE     ---       LVL=0
      00FF1A4EH   LINE      CODE     ---       #524
      00FF1A4EH   LINE      CODE     ---       #526
      00FF1A51H   LINE      CODE     ---       #527
      00FF1A57H   LINE      CODE     ---       #528
      00FF1A5DH   LINE      CODE     ---       #529
      00FF1A62H   LINE      CODE     ---       #531
      ---         BLOCKEND  ---      ---       LVL=0

      00FF0BF0H   BLOCK     CODE     ---       LVL=0
      REG=3       REGSYM    ---      ---       dat
      00000110H   SYMBOL    EDATA    WORD      size
      00FF0BF8H   BLOCK     CODE     NEAR LAB  LVL=1
      00000112H   SYMBOL    EDATA    BYTE      cnt
      00000113H   SYMBOL    EDATA    WORD      addr
      ---         BLOCKEND  ---      ---       LVL=1
      00FF0BF0H   LINE      CODE     ---       #534
      00FF0BF8H   LINE      CODE     ---       #535
      00FF0BF8H   LINE      CODE     ---       #539
      00FF0BFEH   LINE      CODE     ---       #540
      00FF0C00H   LINE      CODE     ---       #542
      00FF0C06H   LINE      CODE     ---       #543
      00FF0C10H   LINE      CODE     ---       #544
      00FF0C14H   LINE      CODE     ---       #546
      00FF0C17H   LINE      CODE     ---       #547
      00FF0C25H   LINE      CODE     ---       #548
      00FF0C2BH   LINE      CODE     ---       #549
      00FF0C3AH   LINE      CODE     ---       #550
      00FF0C51H   LINE      CODE     ---       #552
      00FF0C54H   LINE      CODE     ---       #554
      00FF0C5CH   LINE      CODE     ---       #555
      00FF0C6AH   LINE      CODE     ---       #556
      00FF0C74H   LINE      CODE     ---       #557
      00FF0C7CH   LINE      CODE     ---       #558
      ---         BLOCKEND  ---      ---       LVL=0

      00FF1273H   BLOCK     CODE     ---       LVL=0
      R12         REGSYM    ---      BYTE      x
      R13         REGSYM    ---      BYTE      y
      R14         REGSYM    ---      BYTE      cx
      R15         REGSYM    ---      BYTE      cy
      REG=7       REGSYM    ---      ---       dat
      00FF1273H   LINE      CODE     ---       #560
      00FF127DH   LINE      CODE     ---       #562
      00FF1284H   LINE      CODE     ---       #564
      00FF1287H   LINE      CODE     ---       #565
      00FF128DH   LINE      CODE     ---       #566
      00FF1293H   LINE      CODE     ---       #567
      00FF1299H   LINE      CODE     ---       #568
      00FF129FH   LINE      CODE     ---       #569
      00FF12A5H   LINE      CODE     ---       #570
      00FF12ABH   LINE      CODE     ---       #572
      00FF12AEH   LINE      CODE     ---       #573
      ---         BLOCKEND  ---      ---       LVL=0

      ---         MODULE    ---      ---       usb_desc
      00FF0E25H   PUBLIC    CODE     ---       PRODUCTDESC
      00FF0E3FH   PUBLIC    CODE     ---       LANGIDDESC
      00FF0E43H   PUBLIC    CODE     ---       DEVICEDESC
L251 LINKER/LOCATER V4.66.93.0                                                        07/09/2022  13:59:50  PAGE 42


      00FF0E55H   PUBLIC    CODE     ---       HIDREPORTDESC
      00FF0E70H   PUBLIC    CODE     ---       CONFIGDESC
      00FF0E99H   PUBLIC    CODE     ---       PACKET0
      00FF0E9BH   PUBLIC    CODE     ---       PACKET1
      00FF0E9DH   PUBLIC    CODE     ---       MANUFACTDESC
      000000D0H   SFRSYM    DATA     BYTE      PSW
      0000009DH   SFRSYM    DATA     BYTE      IRCBAND
      00000097H   SFRSYM    DATA     BYTE      AUXR2
      000000EFH   SFRSYM    DATA     BYTE      AUXINTIF
      000000FDH   SFRSYM    DATA     BYTE      S4CON
      000000ACH   SFRSYM    DATA     BYTE      S3CON
      0000009AH   SFRSYM    DATA     BYTE      S2CON
      000000B7H   SFRSYM    DATA     BYTE      IPH
      000000CDH   SFRSYM    DATA     BYTE      SPSTAT
      000000DDH   SFRSYM    DATA     BYTE      T4T3M
      000000C1H   SFRSYM    DATA     BYTE      WDT_CONTR
      000000DFH   SFRSYM    DATA     BYTE      IP3
      000000F4H   SFRSYM    DATA     BYTE      USBCON
      000000B5H   SFRSYM    DATA     BYTE      IP2
      000000FFH   SFRSYM    DATA     BYTE      RSTCFG
      000000F9H   SFRSYM    DATA     BYTE      LINICR
      0000008EH   SFRSYM    DATA     BYTE      AUXR
      000000AFH   SFRSYM    DATA     BYTE      IE2
      00000088H   SFRSYM    DATA     BYTE      TCON
      00000098H   SFRSYM    DATA     BYTE      SCON
      000000F1H   SFRSYM    DATA     BYTE      CANICR
      00000087H   SFRSYM    DATA     BYTE      PCON
      000000BCH   SFRSYM    DATA     BYTE      ADC_CONTR
      000000E7H   SFRSYM    DATA     BYTE      CMPCR2
      000000E6H   SFRSYM    DATA     BYTE      CMPCR1
      000000B8H   SFRSYM    DATA     BYTE      IP
      0000008FH   SFRSYM    DATA     BYTE      INTCLKO
      000000EEH   SFRSYM    DATA     BYTE      IP3H
      000000B6H   SFRSYM    DATA     BYTE      IP2H
      000000A8H   SFRSYM    DATA     BYTE      IE
      000000BBH   SFRSYM    DATA     BYTE      P_SW3
      000000BAH   SFRSYM    DATA     BYTE      P_SW2
      000000A2H   SFRSYM    DATA     BYTE      P_SW1
      000000CEH   SFRSYM    DATA     BYTE      SPCTL
      000000F8H   SFRSYM    DATA     BYTE      P7
      000000E8H   SFRSYM    DATA     BYTE      P6
      000000C8H   SFRSYM    DATA     BYTE      P5
      000000C0H   SFRSYM    DATA     BYTE      P4
      000000B0H   SFRSYM    DATA     BYTE      P3
      000000A0H   SFRSYM    DATA     BYTE      P2
      00000090H   SFRSYM    DATA     BYTE      P1
      00000080H   SFRSYM    DATA     BYTE      P0

      ---         MODULE    ---      ---       VSPRINTF
      00000111H   PUBLIC    EDATA    ---       ?VSPRINTF?BYTE
      00FF00CEH   PUBLIC    CODE     NEAR LAB  VSPRINTF

      ---         MODULE    ---      ---       ?C?PRNFMT
      00FF0117H   PUBLIC    CODE     ---       ?C?PRNFMT

      ---         MODULE    ---      ---       ?C?FPCONVERT
      00FF0534H   PUBLIC    CODE     ---       ?C?FPCONVERT
      00FF05ECH   PUBLIC    CODE     ---       ?C?FPROUND

      ---         MODULE    ---      ---       ?C?FPMUL
      00FF062FH   PUBLIC    CODE     ---       ?C?FPMUL

      ---         MODULE    ---      ---       ?C?FPDIV
      00FF06CFH   PUBLIC    CODE     ---       ?C?FPDIV

L251 LINKER/LOCATER V4.66.93.0                                                        07/09/2022  13:59:50  PAGE 43


      ---         MODULE    ---      ---       ?C?FTNPWR
      00FF0780H   PUBLIC    CODE     ---       ?C?FTNPWR

      ---         MODULE    ---      ---       ?C?FPGETOPN
      00FF07B7H   PUBLIC    CODE     ---       ?C?FPGETOPN2
      00FF07F4H   PUBLIC    CODE     ---       ?C?FPNANRESULT
      00FF07FCH   PUBLIC    CODE     ---       ?C?FPOVERFLOW
      00FF07D0H   PUBLIC    CODE     ---       ?C?FPRESULT
      00FF07E6H   PUBLIC    CODE     ---       ?C?FPRESULT2
      00FF07F9H   PUBLIC    CODE     ---       ?C?FPUNDERFLOW

      ---         MODULE    ---      ---       ?C_START
      00FF0000H   PUBLIC    CODE     ---       ?C?STARTUP
      00FF0000H   PUBLIC    CODE     ---       ?C_STARTUP

      ---         MODULE    ---      ---       ?C?INITEDATA
      00FF1209H   PUBLIC    CODE     ---       ?C?INITEDATA

      ---         MODULE    ---      ---       ?C?LMUL
      00FF0808H   PUBLIC    CODE     ---       ?C?LMUL

      ---         MODULE    ---      ---       STRCMP?_
      00FF186EH   PUBLIC    CODE     NEAR LAB  STRCMP?_

      ---         MODULE    ---      ---       STRLEN
      00FF1B93H   PUBLIC    CODE     ---       strlen?_

      ---         MODULE    ---      ---       memcpy
      00FF17ADH   PUBLIC    CODE     ---       memcpy?_

      ---         MODULE    ---      ---       ?C?INITEDATA_END
      00FF1BDCH   PUBLIC    HCONST   WORD      ?C?INITEDATA_END

Program Size: data=8.7 edata+hdata=538 xdata=192 const=39 code=7101
L251 RUN COMPLETE.  0 WARNING(S),  0 ERROR(S)
