L251 LINKER/LOCATER V4.66.93.0                                                          07/09/2022  13:55:25  PAGE 1


L251 LINKER/LOCATER V4.66.93.0, INVOKED BY:
C:\KEIL_V5\C251\BIN\L251.EXE init.obj, ..\COMM\stc_usb_hid_32g.LIB TO init CASE DISABLEWARNING (57) CLASSES (EDATA (0X0-
>> 0XFFF), HDATA (0X0-0XFFF))


CPU MODE:     251 SOURCE MODE
INTR FRAME:   2 BYTES SAVED ON INTERRUPT
MEMORY MODEL: XSMALL WITH FLOATING POINT ARITHMETIC


INPUT MODULES INCLUDED:
  init.obj (init)
         COMMENT TYPE 0: C251 V5.60.0
  ..\COMM\stc_usb_hid_32g.LIB (usb)
         COMMENT TYPE 0: C251 V5.60.0
  ..\COMM\stc_usb_hid_32g.LIB (usb_req_class)
         COMMENT TYPE 0: C251 V5.60.0
  ..\COMM\stc_usb_hid_32g.LIB (usb_req_std)
         COMMENT TYPE 0: C251 V5.60.0
  ..\COMM\stc_usb_hid_32g.LIB (usb_req_vendor)
         COMMENT TYPE 0: C251 V5.60.0
  ..\COMM\stc_usb_hid_32g.LIB (util)
         COMMENT TYPE 0: C251 V5.60.0
  ..\COMM\stc_usb_hid_32g.LIB (usb_desc)
         COMMENT TYPE 0: C251 V5.60.0
  C:\KEIL_V5\C251\LIB\C2SFPXS.LIB (VSPRINTF)
         COMMENT TYPE 0: A251 V4.69.6.0
  C:\KEIL_V5\C251\LIB\C2SFPXS.LIB (?C?PRNFMT)
         COMMENT TYPE 0: A251 V4.69.6.0
  C:\KEIL_V5\C251\LIB\C2SFPXS.LIB (?C?FPCONVERT)
         COMMENT TYPE 0: A251 V4.69.6.0
  C:\KEIL_V5\C251\LIB\C2SFPXS.LIB (?C?FPMUL)
         COMMENT TYPE 0: A251 V4.69.6.0
  C:\KEIL_V5\C251\LIB\C2SFPXS.LIB (?C?FPDIV)
         COMMENT TYPE 0: A251 V4.69.6.0
  C:\KEIL_V5\C251\LIB\C2SFPXS.LIB (?C?FTNPWR)
         COMMENT TYPE 0: A251 V4.69.6.0
  C:\KEIL_V5\C251\LIB\C2SFPXS.LIB (?C?FPGETOPN)
         COMMENT TYPE 0: A251 V4.69.6.0
  C:\KEIL_V5\C251\LIB\C2SXS.LIB (?C_START)
         COMMENT TYPE 0: A251 V4.69.6.0
  C:\KEIL_V5\C251\LIB\C2SXS.LIB (?C?INITEDATA)
         COMMENT TYPE 0: A251 V4.69.6.0
  C:\KEIL_V5\C251\LIB\C2SXS.LIB (?C?LMUL)
         COMMENT TYPE 0: A251 V4.69.6.0
  C:\KEIL_V5\C251\LIB\C2SXS.LIB (STRCMP?_)
         COMMENT TYPE 0: A251 V4.69.6.0
  C:\KEIL_V5\C251\LIB\C2SXS.LIB (STRLEN)
         COMMENT TYPE 0: C251 V5.58.7
  C:\KEIL_V5\C251\LIB\C2SXS.LIB (memcpy)
         COMMENT TYPE 0: C251 V5.58.7
  C:\KEIL_V5\C251\LIB\C2SXS.LIB (?C?INITEDATA_END)
         COMMENT TYPE 0: A251 V4.69.6.0


ACTIVE MEMORY CLASSES OF MODULE:  init (init)

BASE        START       END         USED      MEMORY CLASS
==========================================================
000000H     000000H     000FFFH     000191H   EDATA
000000H     000000H     000FFFH               HDATA
000000H     FF0000H     FFFFFFH     000023H   HCONST
FF0000H     FF0000H     FFFFFFH     001AA7H   CODE
000020H.0   000020H.0   00002FH.7   000000H.4 BIT
010000H     010000H     01FFFFH     0000C0H   XDATA
FF0000H     FF0000H     FFFFFFH     000004H   CONST
L251 LINKER/LOCATER V4.66.93.0                                                        07/09/2022  13:55:25  PAGE 2


000000H     000000H     00007FH     000008H   DATA


MEMORY MAP OF MODULE:  init (init)


START     STOP      LENGTH    ALIGN  RELOC    MEMORY CLASS   SEGMENT NAME
=========================================================================
000000H   000007H   000008H   ---    AT..     DATA           "REG BANK 0"
000008H   000019H   000012H   BYTE   UNIT     EDATA          ?ED?USB
00001AH   00001EH   000005H   BYTE   UNIT     EDATA          ?ED?LCD12864_SETBUFFER?UTIL
00001FH   00001FH   000001H   BYTE   UNIT     EDATA          ?ED?USB_REQ_CLASS
000020H.0 000020H.2 000000H.3 BIT    UNIT     BIT            ?BI?USB
000020H.3 000020H.3 000000H.1 BIT    UNIT     BIT            ?BI?INIT
000020H.4 000020H   000000H.4 ---    ---      **GAP**
000021H   00004CH   00002CH   BYTE   UNIT     EDATA          ?ED?SEG7_SHOWSTRING?UTIL
00004DH   000078H   00002CH   BYTE   UNIT     EDATA          ?ED?PRINTF_HID?UTIL
000079H   000086H   00000EH   BYTE   UNIT     EDATA          ?ED?INIT
000087H   00008BH   000005H   BYTE   UNIT     EDATA          ?ED?OLED12864_SETBUFFER?UTIL
00008CH   00008FH   000004H   BYTE   UNIT     EDATA          ?ED?SEG7_SHOWLONG?UTIL
000090H   000093H   000004H   BYTE   UNIT     EDATA          ?ED?VSPRINTF
000094H   000097H   000004H   BYTE   UNIT     EDATA          _EDATA_GROUP_
000098H   000099H   000002H   BYTE   UNIT     EDATA          ?ED?LCD12864_SHOWSTRING?UTIL
00009AH   000199H   000100H   BYTE   UNIT     EDATA          ?STACK
00019AH   00FFFFH   00FE66H   ---    ---      **GAP**
010000H   0100BFH   0000C0H   BYTE   INSEG    XDATA          ?XD?USB
0100C0H   FEFFFFH   FDFF40H   ---    ---      **GAP**
FF0000H   FF0002H   000003H   ---    OFFS..   CODE           ?CO?start251?4
FF0003H   FF0005H   000003H   ---    OFFS..   CODE           ?PR?IV?0
FF0006H   FF0012H   00000DH   BYTE   INSEG    CODE           ?PR?USB_SETUP_STATUS?USB
FF0013H   FF0015H   000003H   ---    OFFS..   CODE           ?PR?IV?2
FF0016H   FF0052H   00003DH   BYTE   INSEG    CODE           ?PR?KEYRESETSCAN?INIT
FF0053H   FF0055H   000003H   ---    OFFS..   CODE           ?PR?IV?10
FF0056H   FF0058H   000003H   BYTE   INSEG    CODE           ?PR?USB_GET_PROTOCOL?USB_REQ_CLASS
FF0059H   FF0059H   000001H   BYTE   INSEG    CODE           ?PR?USB_SUSPEND?USB
FF005AH   FF005AH   000001H   BYTE   INSEG    CODE           ?PR?USB_RESUME?USB
FF005BH   FF005DH   000003H   ---    OFFS..   CODE           ?PR?IV?11
FF005EH   FF0082H   000025H   BYTE   INSEG    CODE           ?PR?LCD12864_SCROLLUP?UTIL
FF0083H   FF0085H   000003H   ---    OFFS..   CODE           ?PR?IV?16
FF0086H   FF00CAH   000045H   BYTE   INSEG    CODE           ?PR?SEG7_SHOWSTRING?UTIL
FF00CBH   FF00CDH   000003H   ---    OFFS..   CODE           ?PR?IV?25
FF00CEH   FF0818H   00074BH   BYTE   UNIT     CODE           ?C?LIB_CODE
FF0819H   FF0917H   0000FFH   BYTE   INSEG    CODE           ?PR?USB_GET_STATUS?USB_REQ_STD
FF0918H   FF09F3H   0000DCH   BYTE   INSEG    CODE           ?PR?USB_GET_DESCRIPTOR?USB_REQ_STD
FF09F4H   FF0A8EH   00009BH   BYTE   INSEG    CODE           ?PR?USB_CLEAR_FEATURE?USB_REQ_STD
FF0A8FH   FF0B23H   000095H   BYTE   INSEG    CODE           ?PR?USB_SET_FEATURE?USB_REQ_STD
FF0B24H   FF0BB2H   00008FH   BYTE   INSEG    CODE           ?PR?OLED12864_SETBUFFER?UTIL
FF0BB3H   FF0C41H   00008FH   BYTE   INSEG    CODE           ?PR?LCD12864_SETBUFFER?UTIL
FF0C42H   FF0CCEH   00008DH   BYTE   INSEG    CODE           ?PR?USB_SET_CONFIGURATION?USB_REQ_STD
FF0CCFH   FF0D58H   00008AH   BYTE   INSEG    CODE           ?PR?USB_SETUP?USB
FF0D59H   FF0DD8H   000080H   BYTE   UNIT     CODE           ?CO?USB_DESC
FF0DD9H   FF0E56H   00007EH   BYTE   INSEG    CODE           ?PR?MAIN?INIT
FF0E57H   FF0ED2H   00007CH   BYTE   INSEG    CODE           ?PR?USB_OUT_EP1?USB
FF0ED3H   FF0F4CH   00007AH   BYTE   INSEG    CODE           ?PR?USB_ISR?USB
FF0F4DH   FF0FB3H   000067H   BYTE   INSEG    CODE           ?PR?USB_CTRL_IN?USB
FF0FB4H   FF100FH   00005CH   BYTE   INSEG    CODE           ?PR?USB_REQ_STD?USB_REQ_STD
FF1010H   FF1065H   000056H   BYTE   INSEG    CODE           ?PR?USB_CTRL_OUT?USB
FF1066H   FF10B9H   000054H   BYTE   INSEG    CODE           ?PR?USB_GET_CONFIGURATION?USB_REQ_STD
FF10BAH   FF1106H   00004DH   BYTE   INSEG    CODE           ?PR?LCD12864_SHOWPICTURE?UTIL
FF1107H   FF1151H   00004BH   BYTE   INSEG    CODE           ?PR?USB_INIT?USB
FF1152H   FF119BH   00004AH   BYTE   INSEG    CODE           ?PR?USB_SET_ADDRESS?USB_REQ_STD
FF119CH   FF11AEH   000013H   BYTE   UNIT     CODE           ?C_C51STARTUP
FF11AFH   FF11D7H   000029H   BYTE   UNIT     CODE           ?C_C51STARTUP?2
FF11D8H   FF11DAH   000003H   BYTE   UNIT     CODE           ?C_C51STARTUP?3
FF11DBH   FF1218H   00003EH   BYTE   INSEG    CODE           ?PR?USB_GET_INTERFACE?USB_REQ_STD
L251 LINKER/LOCATER V4.66.93.0                                                        07/09/2022  13:55:25  PAGE 3


FF1219H   FF1256H   00003EH   BYTE   INSEG    CODE           ?PR?OLED12864_SHOWPICTURE?UTIL
FF1257H   FF1294H   00003EH   BYTE   INSEG    CODE           ?PR?LED40_SENDDATA?UTIL
FF1295H   FF12D2H   00003EH   BYTE   INSEG    CODE           ?PR?LED64_SENDDATA?UTIL
FF12D3H   FF130DH   00003BH   BYTE   INSEG    CODE           ?PR?SEG7_SHOWLONG?UTIL
FF130EH   FF1348H   00003BH   BYTE   INSEG    CODE           ?PR?LCD12864_SHOWSTRING?UTIL
FF1349H   FF1382H   00003AH   BYTE   INSEG    CODE           ?PR?USB_READ_FIFO?_?USB
FF1383H   FF13BAH   000038H   BYTE   INSEG    CODE           ?PR?USB_RESET?USB
FF13BBH   FF13F2H   000038H   BYTE   INSEG    CODE           ?PR?OLED12864_SCROLLRIGHT?UTIL
FF13F3H   FF142AH   000038H   BYTE   INSEG    CODE           ?PR?OLED12864_SCROLLUP?UTIL
FF142BH   FF1461H   000037H   BYTE   INSEG    CODE           ?PR?OLED12864_SCROLLLEFT?UTIL
FF1462H   FF1496H   000035H   BYTE   INSEG    CODE           ?PR?REVERSE2?UTIL
FF1497H   FF14C9H   000033H   BYTE   INSEG    CODE           ?PR?SEG7_SHOWCODE?UTIL
FF14CAH   FF14FAH   000031H   BYTE   INSEG    CODE           ?PR?SEG7_SHOWFLOAT?UTIL
FF14FBH   FF1529H   00002FH   BYTE   INSEG    CODE           ?PR?PRINTF_HID?UTIL
FF152AH   FF1557H   00002EH   BYTE   INSEG    CODE           ?PR?USB_REQ_CLASS?USB_REQ_CLASS
FF1558H   FF1584H   00002DH   BYTE   INSEG    CODE           ?PR?USB_IN_EP1?USB
FF1585H   FF15AEH   00002AH   BYTE   INSEG    CODE           ?PR?USB_GET_REPORT?USB_REQ_CLASS
FF15AFH   FF15D8H   00002AH   BYTE   INSEG    CODE           ?PR?USB_SET_REPORT?USB_REQ_CLASS
FF15D9H   FF1601H   000029H   BYTE   INSEG    CODE           ?PR?USB_IN?USB
FF1602H   FF162AH   000029H   BYTE   INSEG    CODE           ?PR?USB_WRITE_FIFO?_?USB
FF162BH   FF1652H   000028H   BYTE   INSEG    CODE           ?PR?USB_SET_INTERFACE?USB_REQ_STD
FF1653H   FF1678H   000026H   BYTE   INSEG    CODE           ?PR?USB_GET_IDLE?USB_REQ_CLASS
FF1679H   FF169DH   000025H   BYTE   INSEG    CODE           ?PR?MEMCPY?_?MEMCPY
FF169EH   FF16BCH   00001FH   BYTE   INSEG    CODE           ?PR?OLED12864_SETADDRESSMODE?UTIL
FF16BDH   FF16DBH   00001FH   BYTE   INSEG    CODE           ?PR?OLED12864_SETCONTRAST?UTIL
FF16DCH   FF16FAH   00001FH   BYTE   INSEG    CODE           ?PR?LCD12864_REVERSELINE?UTIL
FF16FBH   FF1718H   00001EH   BYTE   INSEG    CODE           ?PR?USB_SET_IDLE?USB_REQ_CLASS
FF1719H   FF1735H   00001DH   BYTE   INSEG    CODE           ?PR?SLEEP_US?UTIL
FF1736H   FF174FH   00001AH   BYTE   UNIT     CODE           ?PR?STRCMP?_
FF1750H   FF1768H   000019H   BYTE   INSEG    CODE           ?PR?USB_BULK_INTR_OUT?USB
FF1769H   FF1781H   000019H   BYTE   INSEG    CODE           ?PR?OLED12864_SETHEADER?UTIL
FF1782H   FF179AH   000019H   BYTE   INSEG    CODE           ?PR?LCD12864_SETHEADER?UTIL
FF179BH   FF17B3H   000019H   BYTE   INSEG    CODE           ?PR?SEG7_SETHEADER?UTIL
FF17B4H   FF17CBH   000018H   BYTE   INSEG    CODE           ?PR?USB_OUT_DONE?USB
FF17CCH   FF17E3H   000018H   BYTE   INSEG    CODE           ?PR?OLED12864_SCROLLSTART?UTIL
FF17E4H   FF17FBH   000018H   BYTE   INSEG    CODE           ?PR?OLED12864_DISPLAYON?UTIL
FF17FCH   FF1813H   000018H   BYTE   INSEG    CODE           ?PR?LCD12864_SCROLLRIGHT?UTIL
FF1814H   FF182BH   000018H   BYTE   INSEG    CODE           ?PR?LCD12864_AUTOWRAPON?UTIL
FF182CH   FF1843H   000018H   BYTE   INSEG    CODE           ?PR?OLED12864_VERTICALMIRROR?UTIL
FF1844H   FF185BH   000018H   BYTE   INSEG    CODE           ?PR?LCD12864_CURSORRETURNHOME?UTIL
FF185CH   FF1873H   000018H   BYTE   INSEG    CODE           ?PR?OLED12864_DISPLAYENTIRE?UTIL
FF1874H   FF188BH   000018H   BYTE   INSEG    CODE           ?PR?LCD12864_DISPLAYON?UTIL
FF188CH   FF18A3H   000018H   BYTE   INSEG    CODE           ?PR?LCD12864_CURSORMOVERIGHT?UTIL
FF18A4H   FF18BBH   000018H   BYTE   INSEG    CODE           ?PR?SLEEP_MS?UTIL
FF18BCH   FF18D3H   000018H   BYTE   INSEG    CODE           ?PR?LCD12864_CURSORON?UTIL
FF18D4H   FF18EAH   000017H   BYTE   INSEG    CODE           ?PR?OLED12864_DISPLAYOFF?UTIL
FF18EBH   FF1901H   000017H   BYTE   INSEG    CODE           ?PR?LCD12864_AUTOWRAPOFF?UTIL
FF1902H   FF1918H   000017H   BYTE   INSEG    CODE           ?PR?OLED12864_SCROLLSTOP?UTIL
FF1919H   FF192FH   000017H   BYTE   INSEG    CODE           ?PR?LCD12864_DISPLAYOFF?UTIL
FF1930H   FF1946H   000017H   BYTE   INSEG    CODE           ?PR?LCD12864_SCROLLLEFT?UTIL
FF1947H   FF195DH   000017H   BYTE   INSEG    CODE           ?PR?OLED12864_HORIZONTALMIRROR?UTIL
FF195EH   FF1974H   000017H   BYTE   INSEG    CODE           ?PR?OLED12864_DISPLAYCONTENT?UTIL
FF1975H   FF198BH   000017H   BYTE   INSEG    CODE           ?PR?LCD12864_CURSOROFF?UTIL
FF198CH   FF19A2H   000017H   BYTE   INSEG    CODE           ?PR?LCD12864_CURSORMOVELEFT?UTIL
FF19A3H   FF19B8H   000016H   BYTE   INSEG    CODE           ?PR?DELAY_MS?INIT
FF19B9H   FF19CDH   000015H   BYTE   INSEG    CODE           ?PR?USB_BULK_INTR_IN?USB
FF19CEH   FF19E2H   000015H   BYTE   INSEG    CODE           ?PR?USB_READ_REG?USB
FF19E3H   FF19F5H   000013H   BYTE   INSEG    CODE           ?PR?USB_WRITE_REG?USB
FF19F6H   FF1A07H   000012H   BYTE   INSEG    CODE           ?PR?LCD12864_DISPLAYCLEAR?UTIL
FF1A08H   FF1A19H   000012H   BYTE   INSEG    CODE           ?PR?OLED12864_DISPLAYREVERSE?UTIL
FF1A1AH   FF1A2AH   000011H   BYTE   INSEG    CODE           ?PR?USB_SETUP_IN?USB
FF1A2BH   FF1A38H   00000EH   BYTE   INSEG    CODE           ?PR?INT0_INT?INIT
FF1A39H   FF1A46H   00000EH   BYTE   INSEG    CODE           ?PR?INT1_INT?INIT
FF1A47H   FF1A54H   00000EH   BYTE   INSEG    CODE           ?PR?INT2_INT?INIT
FF1A55H   FF1A62H   00000EH   BYTE   INSEG    CODE           ?PR?INT3_INT?INIT
L251 LINKER/LOCATER V4.66.93.0                                                        07/09/2022  13:55:25  PAGE 4


FF1A63H   FF1A70H   00000EH   BYTE   INSEG    CODE           ?PR?INT4_INT?INIT
FF1A71H   FF1A7EH   00000EH   BYTE   INSEG    CODE           ?PR?USB_SETUP_OUT?USB
FF1A7FH   FF1A8CH   00000EH   BYTE   INSEG    CODE           ?PR?USB_SETUP_STALL?USB
FF1A8DH   FF1A9AH   00000EH   BYTE   INSEG    CODE           ?PR?STRLEN?_?STRLEN
FF1A9BH   FF1A9DH   000003H   BYTE   INSEG    CODE           ?PR?USB_SET_PROTOCOL?USB_REQ_CLASS
FF1A9EH   FF1AA0H   000003H   BYTE   INSEG    CODE           ?PR?USB_SET_DESCRIPTOR?USB_REQ_STD
FF1AA1H   FF1AA3H   000003H   BYTE   INSEG    CODE           ?PR?USB_SYNCH_FRAME?USB_REQ_STD
FF1AA4H   FF1AA6H   000003H   BYTE   INSEG    CODE           ?PR?USB_REQ_VENDOR?USB_REQ_VENDOR
FF1AA7H   FF1AAAH   000004H   BYTE   UNIT     CONST          ?CO?PRINTF
FF1AABH   FF1AC4H   00001AH   BYTE   UNIT     HCONST         ?C_INITEDATA
FF1AC5H   FF1ACDH   000009H   BYTE   UNIT     HCONST         ?HC?INIT



OVERLAY MAP OF MODULE:   init (init)


FUNCTION/MODULE                        EDATA_GROUP
--> CALLED FUNCTION/MODULE             START  STOP
==================================================
INT0_int/init                          ----- -----

*** NEW ROOT *************************

INT1_int/init                          ----- -----

*** NEW ROOT *************************

INT2_int/init                          ----- -----

*** NEW ROOT *************************

INT3_int/init                          ----- -----

*** NEW ROOT *************************

INT4_int/init                          ----- -----

*** NEW ROOT *************************

usb_isr/usb                            ----- -----
  +--> usb_read_reg/usb
  +--> usb_resume/usb
  +--> usb_reset/usb
  +--> usb_setup/usb
  +--> usb_in_ep1/usb
  +--> usb_out_ep1/usb
  +--> usb_suspend/usb

usb_read_reg/usb                       ----- -----

usb_resume/usb                         ----- -----

usb_reset/usb                          ----- -----
  +--> usb_write_reg/usb

usb_write_reg/usb                      ----- -----

usb_setup/usb                          ----- -----
  +--> usb_write_reg/usb
  +--> usb_read_reg/usb
  +--> usb_read_fifo?_/usb
  +--> reverse2/util
  +--> usb_req_std/usb_req_std
  +--> usb_req_class/usb_req_class
L251 LINKER/LOCATER V4.66.93.0                                                        07/09/2022  13:55:25  PAGE 5


  +--> usb_req_vendor/usb_req_vendor
  +--> usb_setup_stall/usb
  +--> usb_ctrl_in/usb
  +--> usb_ctrl_out/usb

usb_read_fifo?_/usb                    ----- -----
  +--> usb_read_reg/usb

reverse2/util                          0094H 0097H

usb_req_std/usb_req_std                ----- -----
  +--> usb_get_status/usb_req_std
  +--> usb_clear_feature/usb_req_std
  +--> usb_set_feature/usb_req_std
  +--> usb_set_address/usb_req_std
  +--> usb_get_descriptor/usb_req_std
  +--> usb_set_descriptor/usb_req_std
  +--> usb_get_configuration/usb_req_std
  +--> usb_set_configuration/usb_req_std
  +--> usb_get_interface/usb_req_std
  +--> usb_set_interface/usb_req_std
  +--> usb_synch_frame/usb_req_std
  +--> usb_setup_stall/usb

usb_get_status/usb_req_std             ----- -----
  +--> usb_setup_stall/usb
  +--> usb_setup_in/usb

usb_setup_stall/usb                    ----- -----
  +--> usb_write_reg/usb

usb_setup_in/usb                       ----- -----
  +--> usb_write_reg/usb
  +--> usb_ctrl_in/usb

usb_ctrl_in/usb                        ----- -----
  +--> usb_write_reg/usb
  +--> usb_read_reg/usb
  +--> usb_write_fifo?_/usb

usb_write_fifo?_/usb                   ----- -----
  +--> usb_write_reg/usb

usb_clear_feature/usb_req_std          ----- -----
  +--> usb_write_reg/usb
  +--> usb_setup_stall/usb
  +--> usb_setup_status/usb

usb_setup_status/usb                   ----- -----
  +--> usb_write_reg/usb

usb_set_feature/usb_req_std            ----- -----
  +--> usb_write_reg/usb
  +--> usb_setup_stall/usb
  +--> usb_setup_status/usb

usb_set_address/usb_req_std            ----- -----
  +--> usb_setup_stall/usb
  +--> usb_write_reg/usb
  +--> usb_setup_status/usb

usb_get_descriptor/usb_req_std         ----- -----
  +--> usb_setup_stall/usb
  +--> usb_setup_in/usb

L251 LINKER/LOCATER V4.66.93.0                                                        07/09/2022  13:55:25  PAGE 6


usb_set_descriptor/usb_req_std         ----- -----
  +--> usb_setup_stall/usb

usb_get_configuration/usb_req_std      ----- -----
  +--> usb_setup_stall/usb
  +--> usb_setup_in/usb

usb_set_configuration/usb_req_std      ----- -----
  +--> usb_setup_stall/usb
  +--> usb_write_reg/usb
  +--> usb_setup_status/usb

usb_get_interface/usb_req_std          ----- -----
  +--> usb_setup_stall/usb
  +--> usb_setup_in/usb

usb_set_interface/usb_req_std          ----- -----
  +--> usb_setup_stall/usb
  +--> usb_setup_status/usb

usb_synch_frame/usb_req_std            ----- -----
  +--> usb_setup_stall/usb

usb_req_class/usb_req_class            ----- -----
  +--> usb_get_report/usb_req_class
  +--> usb_set_report/usb_req_class
  +--> usb_get_idle/usb_req_class
  +--> usb_set_idle/usb_req_class
  +--> usb_get_protocol/usb_req_class
  +--> usb_set_protocol/usb_req_class
  +--> usb_setup_stall/usb

usb_get_report/usb_req_class           ----- -----
  +--> usb_setup_stall/usb
  +--> usb_setup_in/usb

usb_set_report/usb_req_class           ----- -----
  +--> usb_setup_stall/usb
  +--> usb_setup_out/usb

usb_setup_out/usb                      ----- -----
  +--> usb_write_reg/usb

usb_get_idle/usb_req_class             ----- -----
  +--> usb_setup_stall/usb
  +--> usb_setup_in/usb

usb_set_idle/usb_req_class             ----- -----
  +--> usb_setup_stall/usb
  +--> usb_setup_status/usb

usb_get_protocol/usb_req_class         ----- -----
  +--> usb_setup_stall/usb

usb_set_protocol/usb_req_class         ----- -----
  +--> usb_setup_stall/usb

usb_req_vendor/usb_req_vendor          ----- -----
  +--> usb_setup_stall/usb

usb_ctrl_out/usb                       ----- -----
  +--> usb_write_reg/usb
  +--> usb_read_reg/usb
  +--> usb_read_fifo?_/usb

L251 LINKER/LOCATER V4.66.93.0                                                        07/09/2022  13:55:25  PAGE 7


usb_in_ep1/usb                         ----- -----
  +--> usb_write_reg/usb
  +--> usb_read_reg/usb

usb_out_ep1/usb                        ----- -----
  +--> usb_write_reg/usb
  +--> usb_read_reg/usb
  +--> usb_bulk_intr_out/usb
  +--> usb_read_fifo?_/usb
  +--> STRCMP?_/STRCMP?_
  +--> sleep_ms/util

usb_bulk_intr_out/usb                  ----- -----
  +--> usb_read_fifo?_/usb
  +--> usb_write_reg/usb

STRCMP?_/STRCMP?_                      ----- -----

sleep_ms/util                          ----- -----
  +--> sleep_us/util

sleep_us/util                          ----- -----

usb_suspend/usb                        ----- -----

*** NEW ROOT *************************

?C_C51STARTUP                          ----- -----

*** NEW ROOT *************************

?C_C51STARTUP?3                        ----- -----
  +--> main/init

main/init                              ----- -----
  +--> usb_init/usb
  +--> usb_OUT_done/usb
  +--> KeyResetScan/init
  +--> delay_ms/init

usb_init/usb                           ----- -----
  +--> usb_write_reg/usb

usb_OUT_done/usb                       ----- -----
  +--> usb_write_reg/usb

KeyResetScan/init                      ----- -----
  +--> delay_ms/init

delay_ms/init                          ----- -----

*** NEW ROOT *************************

?C_C51STARTUP?2                        ----- -----



PUBLIC SYMBOLS OF MODULE:  init (init)


      VALUE       CLASS    TYPE      PUBLIC SYMBOL NAME
      =================================================
      000000FFH   NUMBER   ---       ?C?CODESEG
      00FF0534H   CODE     ---       ?C?FPCONVERT
      00FF06CFH   CODE     ---       ?C?FPDIV
L251 LINKER/LOCATER V4.66.93.0                                                        07/09/2022  13:55:25  PAGE 8


      00FF07B7H   CODE     ---       ?C?FPGETOPN2
      00FF062FH   CODE     ---       ?C?FPMUL
      00FF07F4H   CODE     ---       ?C?FPNANRESULT
      00FF07FCH   CODE     ---       ?C?FPOVERFLOW
      00FF07D0H   CODE     ---       ?C?FPRESULT
      00FF07E6H   CODE     ---       ?C?FPRESULT2
      00FF05ECH   CODE     ---       ?C?FPROUND
      00FF07F9H   CODE     ---       ?C?FPUNDERFLOW
      00FF0780H   CODE     ---       ?C?FTNPWR
      00FF11AFH   CODE     ---       ?C?INITEDATA
      00FF1AC3H   HCONST   WORD      ?C?INITEDATA_END
      00FF0808H   CODE     ---       ?C?LMUL
      00FF0117H   CODE     ---       ?C?PRNFMT
      00FF0000H   CODE     ---       ?C?STARTUP
      00000001H   NUMBER   ---       ?C?XDATASEG
      00FF0000H   CODE     ---       ?C_STARTUP
      00000075H   EDATA    BYTE      ?printf_hid?BYTE
      00000049H   EDATA    BYTE      ?SEG7_ShowString?BYTE
      00000088H   EDATA    ---       ?vsprintf?BYTE
*SFR* 000000BCH   DATA     BYTE      ADC_CONTR
*SFR* 000000DEH   DATA     BYTE      ADCCFG
*SFR* 000000EFH   DATA     BYTE      AUXINTIF
*SFR* 0000008EH   DATA     BYTE      AUXR
*SFR* 00000097H   DATA     BYTE      AUXR2
      0000001FH   EDATA    BYTE      bHidIdle
      00000020H.1 BIT      BIT       bUsbFeatureReady
      00000020H.2 BIT      BIT       bUsbInBusy
      00000020H.0 BIT      BIT       bUsbOutReady
*SFR* 000000F1H   DATA     BYTE      CANICR
*SFR* 000000EAH   DATA     BYTE      CKCON
*SFR* 000000E6H   DATA     BYTE      CMPCR1
*SFR* 000000E7H   DATA     BYTE      CMPCR2
      00FF0DA4H   CODE     ---       CONFIGDESC
      00FF19A3H   CODE     ---       delay_ms
      00FF0D77H   CODE     ---       DEVICEDESC
      00000010H   EDATA    BYTE      DeviceState
*SFR* 000000A8H.7 DATA     BIT       EA
*SFR* 000000BAH.7 DATA     BIT       EAXFR
      00000011H   EDATA    ---       Ep0State
*SFR* 000000AFH.7 DATA     BIT       EUSB
*SFR* 000000A8H.0 DATA     BIT       EX0
*SFR* 000000A8H.2 DATA     BIT       EX1
      00FF0D89H   CODE     ---       HIDREPORTDESC
*SFR* 000000C7H   DATA     BYTE      IAP_CONTR
*SFR* 000000A8H   DATA     BYTE      IE
*SFR* 00000088H.1 DATA     BIT       IE0
*SFR* 00000088H.3 DATA     BIT       IE1
*SFR* 000000AFH   DATA     BYTE      IE2
      00000018H   EDATA    BYTE      InEpState
      00FF1A2BH   CODE     ---       INT0_int
      00FF1A39H   CODE     ---       INT1_int
      00FF1A47H   CODE     ---       INT2_int
      00FF1A55H   CODE     ---       INT3_int
      00FF1A63H   CODE     ---       INT4_int
*SFR* 0000008FH   DATA     BYTE      INTCLKO
*SFR* 000000B8H   DATA     BYTE      IP
*SFR* 000000B5H   DATA     BYTE      IP2
*SFR* 000000B6H   DATA     BYTE      IP2H
*SFR* 000000DFH   DATA     BYTE      IP3
*SFR* 000000EEH   DATA     BYTE      IP3H
*SFR* 000000B7H   DATA     BYTE      IPH
*SFR* 0000009DH   DATA     BYTE      IRCBAND
*SFR* 00000088H.0 DATA     BIT       IT0
*SFR* 00000088H.2 DATA     BIT       IT1
      0000007DH   EDATA    WORD      Key_cnt
L251 LINKER/LOCATER V4.66.93.0                                                        07/09/2022  13:55:25  PAGE 9


      00000020H.3 BIT      BIT       Key_Flag
      00FF0016H   CODE     ---       KeyResetScan
      00FF0D73H   CODE     ---       LANGIDDESC
      00FF18EBH   CODE     ---       LCD12864_AutoWrapOff
      00FF1814H   CODE     ---       LCD12864_AutoWrapOn
      00FF198CH   CODE     ---       LCD12864_CursorMoveLeft
      00FF188CH   CODE     ---       LCD12864_CursorMoveRight
      00FF1975H   CODE     ---       LCD12864_CursorOff
      00FF18BCH   CODE     ---       LCD12864_CursorOn
      00FF1844H   CODE     ---       LCD12864_CursorReturnHome
      00FF19F6H   CODE     ---       LCD12864_DisplayClear
      00FF1919H   CODE     ---       LCD12864_DisplayOff
      00FF1874H   CODE     ---       LCD12864_DisplayOn
      00FF16DCH   CODE     ---       LCD12864_ReverseLine
      00FF1930H   CODE     ---       LCD12864_ScrollLeft
      00FF17FCH   CODE     ---       LCD12864_ScrollRight
      00FF005EH   CODE     ---       LCD12864_ScrollUp
      00FF10BAH   CODE     ---       LCD12864_ShowPicture
      00FF130EH   CODE     ---       LCD12864_ShowString
      00FF1257H   CODE     ---       LED40_SendData
      00FF1295H   CODE     ---       LED64_SendData
*SFR* 000000F9H   DATA     BYTE      LINICR
      00FF0DD9H   CODE     ---       main
      00FF0DD1H   CODE     ---       MANUFACTDESC
      00FF1679H   CODE     ---       memcpy?_
      00FF195EH   CODE     ---       OLED12864_DisplayContent
      00FF185CH   CODE     ---       OLED12864_DisplayEntire
      00FF18D4H   CODE     ---       OLED12864_DisplayOff
      00FF17E4H   CODE     ---       OLED12864_DisplayOn
      00FF1A08H   CODE     ---       OLED12864_DisplayReverse
      00FF1947H   CODE     ---       OLED12864_HorizontalMirror
      00FF142BH   CODE     ---       OLED12864_ScrollLeft
      00FF13BBH   CODE     ---       OLED12864_ScrollRight
      00FF17CCH   CODE     ---       OLED12864_ScrollStart
      00FF1902H   CODE     ---       OLED12864_ScrollStop
      00FF13F3H   CODE     ---       OLED12864_ScrollUp
      00FF169EH   CODE     ---       OLED12864_SetAddressMode
      00FF16BDH   CODE     ---       OLED12864_SetContrast
      00FF1219H   CODE     ---       OLED12864_ShowPicture
      00FF182CH   CODE     ---       OLED12864_VerticalMirror
      00000019H   EDATA    BYTE      OutEpState
*SFR* 00000080H   DATA     BYTE      P0
*SFR* 00000094H   DATA     BYTE      P0M0
*SFR* 00000093H   DATA     BYTE      P0M1
*SFR* 00000090H   DATA     BYTE      P1
*SFR* 00000090H.0 DATA     BIT       P10
*SFR* 00000090H.1 DATA     BIT       P11
*SFR* 00000090H.3 DATA     BIT       P13
*SFR* 00000090H.4 DATA     BIT       P14
*SFR* 00000092H   DATA     BYTE      P1M0
*SFR* 00000091H   DATA     BYTE      P1M1
*SFR* 000000A0H   DATA     BYTE      P2
*SFR* 00000096H   DATA     BYTE      P2M0
*SFR* 00000095H   DATA     BYTE      P2M1
*SFR* 000000B0H   DATA     BYTE      P3
*SFR* 000000B0H.2 DATA     BIT       P32
*SFR* 000000B2H   DATA     BYTE      P3M0
*SFR* 000000B1H   DATA     BYTE      P3M1
*SFR* 000000C0H   DATA     BYTE      P4
*SFR* 000000B4H   DATA     BYTE      P4M0
*SFR* 000000B3H   DATA     BYTE      P4M1
*SFR* 000000C8H   DATA     BYTE      P5
*SFR* 000000C8H.2 DATA     BIT       P52
*SFR* 000000CAH   DATA     BYTE      P5M0
*SFR* 000000C9H   DATA     BYTE      P5M1
L251 LINKER/LOCATER V4.66.93.0                                                        07/09/2022  13:55:25  PAGE 10


*SFR* 000000E8H   DATA     BYTE      P6
*SFR* 000000CCH   DATA     BYTE      P6M0
*SFR* 000000CBH   DATA     BYTE      P6M1
*SFR* 000000F8H   DATA     BYTE      P7
*SFR* 000000E2H   DATA     BYTE      P7M0
*SFR* 000000E1H   DATA     BYTE      P7M1
*SFR* 000000A2H   DATA     BYTE      P_SW1
*SFR* 000000BAH   DATA     BYTE      P_SW2
*SFR* 000000BBH   DATA     BYTE      P_SW3
      00FF0DCDH   CODE     ---       PACKET0
      00FF0DCFH   CODE     ---       PACKET1
*SFR* 00000087H   DATA     BYTE      PCON
      00FF14FBH   CODE     ---       printf_hid
      00FF0D59H   CODE     ---       PRODUCTDESC
*SFR* 000000D0H   DATA     BYTE      PSW
      00FF1462H   CODE     ---       reverse2
*SFR* 000000FFH   DATA     BYTE      RSTCFG
*SFR* 0000009AH   DATA     BYTE      S2CON
*SFR* 000000ACH   DATA     BYTE      S3CON
*SFR* 000000FDH   DATA     BYTE      S4CON
*SFR* 00000098H   DATA     BYTE      SCON
      00FF1497H   CODE     ---       SEG7_ShowCode
      00FF14CAH   CODE     ---       SEG7_ShowFloat
      00FF12D3H   CODE     ---       SEG7_ShowLong
      00FF0086H   CODE     ---       SEG7_ShowString
      00000008H   EDATA    ---       Setup
      00FF18A4H   CODE     ---       sleep_ms
      00FF1719H   CODE     ---       sleep_us
*SFR* 000000CEH   DATA     BYTE      SPCTL
*SFR* 000000CDH   DATA     BYTE      SPSTAT
      00FF173AH   CODE     NEAR LAB  strcmp?_
      00FF1A8DH   CODE     ---       strlen?_
*SFR* 000000DDH   DATA     BYTE      T4T3M
*SFR* 00000088H   DATA     BYTE      TCON
*SFR* 00000089H   DATA     BYTE      TMOD
      00FF19B9H   CODE     ---       usb_bulk_intr_in
      00FF1750H   CODE     ---       usb_bulk_intr_out
      00FF09F4H   CODE     ---       usb_clear_feature
      00FF0F4DH   CODE     ---       usb_ctrl_in
      00FF1010H   CODE     ---       usb_ctrl_out
      00FF1066H   CODE     ---       usb_get_configuration
      00FF0918H   CODE     ---       usb_get_descriptor
      00FF1653H   CODE     ---       usb_get_idle
      00FF11DBH   CODE     ---       usb_get_interface
      00FF0056H   CODE     ---       usb_get_protocol
      00FF1585H   CODE     ---       usb_get_report
      00FF0819H   CODE     ---       usb_get_status
      00FF15D9H   CODE     ---       usb_IN
      00FF1558H   CODE     ---       usb_in_ep1
      00FF1107H   CODE     ---       usb_init
      00FF0ED3H   CODE     ---       usb_isr
      00FF17B4H   CODE     ---       usb_OUT_done
      00FF0E57H   CODE     ---       usb_out_ep1
      00FF1349H   CODE     ---       usb_read_fifo?_
      00FF19CEH   CODE     ---       usb_read_reg
      00FF152AH   CODE     ---       usb_req_class
      00FF0FB4H   CODE     ---       usb_req_std
      00FF1AA4H   CODE     ---       usb_req_vendor
      00FF1383H   CODE     ---       usb_reset
      00FF005AH   CODE     ---       usb_resume
      00FF1152H   CODE     ---       usb_set_address
      00FF0C42H   CODE     ---       usb_set_configuration
      00FF1A9EH   CODE     ---       usb_set_descriptor
      00FF0A8FH   CODE     ---       usb_set_feature
      00FF16FBH   CODE     ---       usb_set_idle
L251 LINKER/LOCATER V4.66.93.0                                                        07/09/2022  13:55:25  PAGE 11


      00FF162BH   CODE     ---       usb_set_interface
      00FF1A9BH   CODE     ---       usb_set_protocol
      00FF15AFH   CODE     ---       usb_set_report
      00FF0CCFH   CODE     ---       usb_setup
      00FF1A1AH   CODE     ---       usb_setup_in
      00FF1A71H   CODE     ---       usb_setup_out
      00FF1A7FH   CODE     ---       usb_setup_stall
      00FF0006H   CODE     ---       usb_setup_status
      00FF0059H   CODE     ---       usb_suspend
      00FF1AA1H   CODE     ---       usb_synch_frame
      00FF1602H   CODE     ---       usb_write_fifo?_
      00FF19E3H   CODE     ---       usb_write_reg
*SFR* 000000FCH   DATA     BYTE      USBADR
*SFR* 000000DCH   DATA     BYTE      USBCLK
*SFR* 000000F4H   DATA     BYTE      USBCON
*SFR* 000000ECH   DATA     BYTE      USBDAT
      00010080H   XDATA    ---       UsbFeatureBuffer
      00010000H   XDATA    ---       UsbInBuffer
      00010040H   XDATA    ---       UsbOutBuffer
      00000083H   EDATA    ---       USER_DEVICEDESC
      0000007FH   EDATA    ---       USER_PRODUCTDESC
      00000079H   EDATA    ---       USER_STCISPCMD
      00FF00CEH   CODE     NEAR LAB  vsprintf
*SFR* 000000C1H   DATA     BYTE      WDT_CONTR
*SFR* 000000E9H   DATA     BYTE      WTST



SYMBOL TABLE OF MODULE:  init (init)

      VALUE       REP       CLASS    TYPE      SYMBOL NAME
      ====================================================
      ---         MODULE    ---      ---       init
      00FF0DD9H   PUBLIC    CODE     ---       main
      00FF0016H   PUBLIC    CODE     ---       KeyResetScan
      00FF1A2BH   PUBLIC    CODE     ---       INT0_int
      00FF1A39H   PUBLIC    CODE     ---       INT1_int
      00FF1A47H   PUBLIC    CODE     ---       INT2_int
      00FF1A55H   PUBLIC    CODE     ---       INT3_int
      00FF1A63H   PUBLIC    CODE     ---       INT4_int
      00FF19A3H   PUBLIC    CODE     ---       delay_ms
      00000020H.3 PUBLIC    BIT      BIT       Key_Flag
      00000079H   PUBLIC    EDATA    ---       USER_STCISPCMD
      0000007DH   PUBLIC    EDATA    WORD      Key_cnt
      0000007FH   PUBLIC    EDATA    ---       USER_PRODUCTDESC
      00000083H   PUBLIC    EDATA    ---       USER_DEVICEDESC
      00000094H   SFRSYM    DATA     BYTE      P0M0
      000000D0H   SFRSYM    DATA     BYTE      PSW
      000000BAH.7 SFRSYM    DATA     BIT       EAXFR
      0000009DH   SFRSYM    DATA     BYTE      IRCBAND
      00000097H   SFRSYM    DATA     BYTE      AUXR2
      000000EAH   SFRSYM    DATA     BYTE      CKCON
      000000EFH   SFRSYM    DATA     BYTE      AUXINTIF
      000000FDH   SFRSYM    DATA     BYTE      S4CON
      000000ACH   SFRSYM    DATA     BYTE      S3CON
      0000009AH   SFRSYM    DATA     BYTE      S2CON
      000000B7H   SFRSYM    DATA     BYTE      IPH
      000000CDH   SFRSYM    DATA     BYTE      SPSTAT
      000000DDH   SFRSYM    DATA     BYTE      T4T3M
      000000C1H   SFRSYM    DATA     BYTE      WDT_CONTR
      000000E9H   SFRSYM    DATA     BYTE      WTST
      00000088H.2 SFRSYM    DATA     BIT       IT1
      000000A8H.2 SFRSYM    DATA     BIT       EX1
      00000088H.0 SFRSYM    DATA     BIT       IT0
      000000A8H.0 SFRSYM    DATA     BIT       EX0
L251 LINKER/LOCATER V4.66.93.0                                                        07/09/2022  13:55:25  PAGE 12


      000000DFH   SFRSYM    DATA     BYTE      IP3
      000000F4H   SFRSYM    DATA     BYTE      USBCON
      000000B5H   SFRSYM    DATA     BYTE      IP2
      000000FFH   SFRSYM    DATA     BYTE      RSTCFG
      000000DCH   SFRSYM    DATA     BYTE      USBCLK
      000000C7H   SFRSYM    DATA     BYTE      IAP_CONTR
      000000F9H   SFRSYM    DATA     BYTE      LINICR
      0000008EH   SFRSYM    DATA     BYTE      AUXR
      000000AFH   SFRSYM    DATA     BYTE      IE2
      00000088H.3 SFRSYM    DATA     BIT       IE1
      00000088H.1 SFRSYM    DATA     BIT       IE0
      000000C8H.2 SFRSYM    DATA     BIT       P52
      00000088H   SFRSYM    DATA     BYTE      TCON
      00000089H   SFRSYM    DATA     BYTE      TMOD
      00000090H.4 SFRSYM    DATA     BIT       P14
      000000B0H.2 SFRSYM    DATA     BIT       P32
      00000090H.3 SFRSYM    DATA     BIT       P13
      00000098H   SFRSYM    DATA     BYTE      SCON
      00000090H.1 SFRSYM    DATA     BIT       P11
      000000F1H   SFRSYM    DATA     BYTE      CANICR
      00000087H   SFRSYM    DATA     BYTE      PCON
      00000090H.0 SFRSYM    DATA     BIT       P10
      000000BCH   SFRSYM    DATA     BYTE      ADC_CONTR
      000000AFH.7 SFRSYM    DATA     BIT       EUSB
      000000E7H   SFRSYM    DATA     BYTE      CMPCR2
      000000E6H   SFRSYM    DATA     BYTE      CMPCR1
      000000DEH   SFRSYM    DATA     BYTE      ADCCFG
      000000B8H   SFRSYM    DATA     BYTE      IP
      0000008FH   SFRSYM    DATA     BYTE      INTCLKO
      000000EEH   SFRSYM    DATA     BYTE      IP3H
      000000B6H   SFRSYM    DATA     BYTE      IP2H
      000000A8H   SFRSYM    DATA     BYTE      IE
      000000BBH   SFRSYM    DATA     BYTE      P_SW3
      000000BAH   SFRSYM    DATA     BYTE      P_SW2
      000000A2H   SFRSYM    DATA     BYTE      P_SW1
      000000CEH   SFRSYM    DATA     BYTE      SPCTL
      000000F8H   SFRSYM    DATA     BYTE      P7
      000000A8H.7 SFRSYM    DATA     BIT       EA
      000000E1H   SFRSYM    DATA     BYTE      P7M1
      000000E8H   SFRSYM    DATA     BYTE      P6
      000000C8H   SFRSYM    DATA     BYTE      P5
      000000CBH   SFRSYM    DATA     BYTE      P6M1
      000000E2H   SFRSYM    DATA     BYTE      P7M0
      000000C0H   SFRSYM    DATA     BYTE      P4
      000000C9H   SFRSYM    DATA     BYTE      P5M1
      000000CCH   SFRSYM    DATA     BYTE      P6M0
      000000B0H   SFRSYM    DATA     BYTE      P3
      000000B3H   SFRSYM    DATA     BYTE      P4M1
      000000CAH   SFRSYM    DATA     BYTE      P5M0
      000000A0H   SFRSYM    DATA     BYTE      P2
      000000B1H   SFRSYM    DATA     BYTE      P3M1
      000000B4H   SFRSYM    DATA     BYTE      P4M0
      00000090H   SFRSYM    DATA     BYTE      P1
      00000095H   SFRSYM    DATA     BYTE      P2M1
      000000B2H   SFRSYM    DATA     BYTE      P3M0
      00000080H   SFRSYM    DATA     BYTE      P0
      00000091H   SFRSYM    DATA     BYTE      P1M1
      00000096H   SFRSYM    DATA     BYTE      P2M0
      00000092H   SFRSYM    DATA     BYTE      P1M0
      00000093H   SFRSYM    DATA     BYTE      P0M1

      00FF0DD9H   BLOCK     CODE     ---       LVL=0
      00FF0DD9H   LINE      CODE     ---       #63
      00FF0DD9H   LINE      CODE     ---       #65
      00FF0DDCH   LINE      CODE     ---       #66
L251 LINKER/LOCATER V4.66.93.0                                                        07/09/2022  13:55:25  PAGE 13


      00FF0DDFH   LINE      CODE     ---       #67
      00FF0DE2H   LINE      CODE     ---       #69
      00FF0DE8H   LINE      CODE     ---       #70
      00FF0DEEH   LINE      CODE     ---       #71
      00FF0DF4H   LINE      CODE     ---       #72
      00FF0DFAH   LINE      CODE     ---       #73
      00FF0E00H   LINE      CODE     ---       #74
      00FF0E06H   LINE      CODE     ---       #75
      00FF0E0CH   LINE      CODE     ---       #76
      00FF0E12H   LINE      CODE     ---       #79
      00FF0E15H   LINE      CODE     ---       #80
      00FF0E18H   LINE      CODE     ---       #81
      00FF0E25H   LINE      CODE     ---       #82
      00FF0E33H   LINE      CODE     ---       #83
      00FF0E36H   LINE      CODE     ---       #86
      00FF0E38H   LINE      CODE     ---       #87
      00FF0E3AH   LINE      CODE     ---       #88
      00FF0E3CH   LINE      CODE     ---       #89
      00FF0E3EH   LINE      CODE     ---       #91
      00FF0E40H   LINE      CODE     ---       #93
      00FF0E42H   LINE      CODE     ---       #101
      00FF0E45H   LINE      CODE     ---       #102
      00FF0E47H   LINE      CODE     ---       #104
      00FF0E47H   LINE      CODE     ---       #106
      00FF0E4AH   LINE      CODE     ---       #111
      00FF0E4DH   LINE      CODE     ---       #112
      00FF0E4DH   LINE      CODE     ---       #114
      00FF0E50H   LINE      CODE     ---       #115
      00FF0E55H   LINE      CODE     ---       #116
      ---         BLOCKEND  ---      ---       LVL=0

      00FF1A2BH   BLOCK     CODE     ---       LVL=0
      00FF1A2BH   LINE      CODE     ---       #121
      00FF1A2DH   LINE      CODE     ---       #123
      00FF1A36H   LINE      CODE     ---       #124
      ---         BLOCKEND  ---      ---       LVL=0

      00FF1A39H   BLOCK     CODE     ---       LVL=0
      00FF1A39H   LINE      CODE     ---       #127
      00FF1A3BH   LINE      CODE     ---       #129
      00FF1A44H   LINE      CODE     ---       #130
      ---         BLOCKEND  ---      ---       LVL=0

      00FF1A47H   BLOCK     CODE     ---       LVL=0
      00FF1A47H   LINE      CODE     ---       #133
      00FF1A49H   LINE      CODE     ---       #135
      00FF1A52H   LINE      CODE     ---       #136
      ---         BLOCKEND  ---      ---       LVL=0

      00FF1A55H   BLOCK     CODE     ---       LVL=0
      00FF1A55H   LINE      CODE     ---       #139
      00FF1A57H   LINE      CODE     ---       #141
      00FF1A60H   LINE      CODE     ---       #142
      ---         BLOCKEND  ---      ---       LVL=0

      00FF1A63H   BLOCK     CODE     ---       LVL=0
      00FF1A63H   LINE      CODE     ---       #145
      00FF1A65H   LINE      CODE     ---       #147
      00FF1A6EH   LINE      CODE     ---       #148
      ---         BLOCKEND  ---      ---       LVL=0

      00FF19A3H   BLOCK     CODE     ---       LVL=0
      R10         REGSYM    ---      BYTE      ms
      00FF19A5H   BLOCK     CODE     NEAR LAB  LVL=1
      WR8         REGSYM    ---      WORD      i
L251 LINKER/LOCATER V4.66.93.0                                                        07/09/2022  13:55:25  PAGE 14


      ---         BLOCKEND  ---      ---       LVL=1
      00FF19A3H   LINE      CODE     ---       #159
      00FF19A5H   LINE      CODE     ---       #160
      00FF19A5H   LINE      CODE     ---       #162
      00FF19A5H   LINE      CODE     ---       #163
      00FF19A9H   LINE      CODE     ---       #164
      00FF19B1H   LINE      CODE     ---       #165
      00FF19B8H   LINE      CODE     ---       #166
      ---         BLOCKEND  ---      ---       LVL=0

      00FF0016H   BLOCK     CODE     ---       LVL=0
      00FF0016H   LINE      CODE     ---       #177
      00FF0016H   LINE      CODE     ---       #179
      00FF0019H   LINE      CODE     ---       #181
      00FF001CH   LINE      CODE     ---       #183
      00FF0026H   LINE      CODE     ---       #184
      00FF002CH   LINE      CODE     ---       #186
      00FF002EH   LINE      CODE     ---       #188
      00FF0031H   LINE      CODE     ---       #189
      00FF0034H   LINE      CODE     ---       #190
      00FF0040H   LINE      CODE     ---       #192
      00FF0045H   LINE      CODE     ---       #193
      00FF0048H   LINE      CODE     ---       #194
      00FF004AH   LINE      CODE     ---       #200
      00FF0050H   LINE      CODE     ---       #201
      00FF0052H   LINE      CODE     ---       #202
      00FF0052H   LINE      CODE     ---       #203
      ---         BLOCKEND  ---      ---       LVL=0

      ---         MODULE    ---      ---       usb
      00FF1A1AH   PUBLIC    CODE     ---       usb_setup_in
      00FF1A71H   PUBLIC    CODE     ---       usb_setup_out
      00FF0F4DH   PUBLIC    CODE     ---       usb_ctrl_in
      00FF1010H   PUBLIC    CODE     ---       usb_ctrl_out
      00FF17B4H   PUBLIC    CODE     ---       usb_OUT_done
      00FF0059H   PUBLIC    CODE     ---       usb_suspend
      00FF19B9H   PUBLIC    CODE     ---       usb_bulk_intr_in
      00FF1750H   PUBLIC    CODE     ---       usb_bulk_intr_out
      00FF005AH   PUBLIC    CODE     ---       usb_resume
      00FF15D9H   PUBLIC    CODE     ---       usb_IN
      00FF1349H   PUBLIC    CODE     ---       usb_read_fifo?_
      00FF1383H   PUBLIC    CODE     ---       usb_reset
      00FF0CCFH   PUBLIC    CODE     ---       usb_setup
      00FF1602H   PUBLIC    CODE     ---       usb_write_fifo?_
      00FF1107H   PUBLIC    CODE     ---       usb_init
      00FF1A7FH   PUBLIC    CODE     ---       usb_setup_stall
      00FF0006H   PUBLIC    CODE     ---       usb_setup_status
      00FF19CEH   PUBLIC    CODE     ---       usb_read_reg
      00FF1558H   PUBLIC    CODE     ---       usb_in_ep1
      00FF0E57H   PUBLIC    CODE     ---       usb_out_ep1
      00FF19E3H   PUBLIC    CODE     ---       usb_write_reg
      00FF0ED3H   PUBLIC    CODE     ---       usb_isr
      00000008H   PUBLIC    EDATA    ---       Setup
      00000010H   PUBLIC    EDATA    BYTE      DeviceState
      00000011H   PUBLIC    EDATA    ---       Ep0State
      00000018H   PUBLIC    EDATA    BYTE      InEpState
      00000019H   PUBLIC    EDATA    BYTE      OutEpState
      00000020H.0 PUBLIC    BIT      BIT       bUsbOutReady
      00000020H.1 PUBLIC    BIT      BIT       bUsbFeatureReady
      00000020H.2 PUBLIC    BIT      BIT       bUsbInBusy
      00010000H   PUBLIC    XDATA    ---       UsbInBuffer
      00010040H   PUBLIC    XDATA    ---       UsbOutBuffer
      00010080H   PUBLIC    XDATA    ---       UsbFeatureBuffer
      000000D0H   SFRSYM    DATA     BYTE      PSW
      0000009DH   SFRSYM    DATA     BYTE      IRCBAND
L251 LINKER/LOCATER V4.66.93.0                                                        07/09/2022  13:55:25  PAGE 15


      00000097H   SFRSYM    DATA     BYTE      AUXR2
      000000EFH   SFRSYM    DATA     BYTE      AUXINTIF
      000000FDH   SFRSYM    DATA     BYTE      S4CON
      000000ACH   SFRSYM    DATA     BYTE      S3CON
      0000009AH   SFRSYM    DATA     BYTE      S2CON
      000000B7H   SFRSYM    DATA     BYTE      IPH
      000000CDH   SFRSYM    DATA     BYTE      SPSTAT
      000000DDH   SFRSYM    DATA     BYTE      T4T3M
      000000C1H   SFRSYM    DATA     BYTE      WDT_CONTR
      000000DFH   SFRSYM    DATA     BYTE      IP3
      000000F4H   SFRSYM    DATA     BYTE      USBCON
      000000B5H   SFRSYM    DATA     BYTE      IP2
      000000FFH   SFRSYM    DATA     BYTE      RSTCFG
      000000DCH   SFRSYM    DATA     BYTE      USBCLK
      000000ECH   SFRSYM    DATA     BYTE      USBDAT
      000000C7H   SFRSYM    DATA     BYTE      IAP_CONTR
      000000F9H   SFRSYM    DATA     BYTE      LINICR
      000000FCH   SFRSYM    DATA     BYTE      USBADR
      0000008EH   SFRSYM    DATA     BYTE      AUXR
      000000AFH   SFRSYM    DATA     BYTE      IE2
      00000088H   SFRSYM    DATA     BYTE      TCON
      00000098H   SFRSYM    DATA     BYTE      SCON
      000000F1H   SFRSYM    DATA     BYTE      CANICR
      00000087H   SFRSYM    DATA     BYTE      PCON
      000000BCH   SFRSYM    DATA     BYTE      ADC_CONTR
      000000AFH.7 SFRSYM    DATA     BIT       EUSB
      000000E7H   SFRSYM    DATA     BYTE      CMPCR2
      000000E6H   SFRSYM    DATA     BYTE      CMPCR1
      000000B8H   SFRSYM    DATA     BYTE      IP
      0000008FH   SFRSYM    DATA     BYTE      INTCLKO
      000000EEH   SFRSYM    DATA     BYTE      IP3H
      000000B6H   SFRSYM    DATA     BYTE      IP2H
      000000A8H   SFRSYM    DATA     BYTE      IE
      000000BBH   SFRSYM    DATA     BYTE      P_SW3
      000000BAH   SFRSYM    DATA     BYTE      P_SW2
      000000A2H   SFRSYM    DATA     BYTE      P_SW1
      000000CEH   SFRSYM    DATA     BYTE      SPCTL
      000000F8H   SFRSYM    DATA     BYTE      P7
      000000E8H   SFRSYM    DATA     BYTE      P6
      000000C8H   SFRSYM    DATA     BYTE      P5
      000000C0H   SFRSYM    DATA     BYTE      P4
      000000B0H   SFRSYM    DATA     BYTE      P3
      000000A0H   SFRSYM    DATA     BYTE      P2
      00000090H   SFRSYM    DATA     BYTE      P1
      00000080H   SFRSYM    DATA     BYTE      P0

      00FF1107H   BLOCK     CODE     ---       LVL=0
      00FF1107H   LINE      CODE     ---       #22
      00FF1107H   LINE      CODE     ---       #24
      00FF110AH   LINE      CODE     ---       #25
      00FF110DH   LINE      CODE     ---       #27
      00FF1113H   LINE      CODE     ---       #28
      00FF111BH   LINE      CODE     ---       #29
      00FF1123H   LINE      CODE     ---       #30
      00FF112BH   LINE      CODE     ---       #31
      00FF1133H   LINE      CODE     ---       #32
      00FF113BH   LINE      CODE     ---       #34
      00FF1141H   LINE      CODE     ---       #35
      00FF1146H   LINE      CODE     ---       #36
      00FF114AH   LINE      CODE     ---       #37
      00FF114EH   LINE      CODE     ---       #39
      00FF1151H   LINE      CODE     ---       #40
      ---         BLOCKEND  ---      ---       LVL=0

      00FF19CEH   BLOCK     CODE     ---       LVL=0
L251 LINKER/LOCATER V4.66.93.0                                                        07/09/2022  13:55:25  PAGE 16


      R10         REGSYM    ---      BYTE      addr
      00FF19D0H   BLOCK     CODE     NEAR LAB  LVL=1
      R11         REGSYM    ---      BYTE      dat
      ---         BLOCKEND  ---      ---       LVL=1
      00FF19CEH   LINE      CODE     ---       #42
      00FF19D0H   LINE      CODE     ---       #43
      00FF19D0H   LINE      CODE     ---       #46
      00FF19D5H   LINE      CODE     ---       #47
      00FF19DBH   LINE      CODE     ---       #48
      00FF19E0H   LINE      CODE     ---       #49
      00FF19E2H   LINE      CODE     ---       #51
      00FF19E2H   LINE      CODE     ---       #52
      ---         BLOCKEND  ---      ---       LVL=0

      00FF19E3H   BLOCK     CODE     ---       LVL=0
      R7          REGSYM    ---      BYTE      addr
      R10         REGSYM    ---      BYTE      dat
      00FF19E3H   LINE      CODE     ---       #54
      00FF19E7H   LINE      CODE     ---       #56
      00FF19ECH   LINE      CODE     ---       #57
      00FF19F2H   LINE      CODE     ---       #58
      00FF19F5H   LINE      CODE     ---       #59
      ---         BLOCKEND  ---      ---       LVL=0

      00FF1349H   BLOCK     CODE     ---       LVL=0
      FFFFFFFEH   STKSYM    ---      BYTE      fifo
      REG=3       REGSYM    ---      ---       pdat
      00FF1351H   BLOCK     CODE     NEAR LAB  LVL=1
      00000000H   STKSYM    ---      BYTE      cnt
      FFFFFFFFH   STKSYM    ---      BYTE      ret
      ---         BLOCKEND  ---      ---       LVL=1
      00FF1349H   LINE      CODE     ---       #61
      00FF1351H   LINE      CODE     ---       #62
      00FF1351H   LINE      CODE     ---       #66
      00FF135DH   LINE      CODE     ---       #67
      00FF135FH   LINE      CODE     ---       #69
      00FF136BH   LINE      CODE     ---       #70
      00FF1378H   LINE      CODE     ---       #72
      00FF137CH   LINE      CODE     ---       #73
      ---         BLOCKEND  ---      ---       LVL=0

      00FF1602H   BLOCK     CODE     ---       LVL=0
      00000000H   STKSYM    ---      BYTE      fifo
      REG=3       REGSYM    ---      ---       pdat
      FFFFFFFFH   STKSYM    ---      BYTE      cnt
      00FF1602H   LINE      CODE     ---       #75
      00FF160AH   LINE      CODE     ---       #77
      00FF160CH   LINE      CODE     ---       #79
      00FF1617H   LINE      CODE     ---       #80
      00FF1626H   LINE      CODE     ---       #81
      ---         BLOCKEND  ---      ---       LVL=0

      00FF0ED3H   BLOCK     CODE     ---       LVL=0
      00FF0EEDH   BLOCK     CODE     NEAR LAB  LVL=1
      R15         REGSYM    ---      BYTE      intrusb
      R13         REGSYM    ---      BYTE      intrin
      R14         REGSYM    ---      BYTE      introut
      ---         BLOCKEND  ---      ---       LVL=1
      00FF0ED3H   LINE      CODE     ---       #83
      00FF0EEDH   LINE      CODE     ---       #84
      00FF0EEDH   LINE      CODE     ---       #89
      00FF0EF4H   LINE      CODE     ---       #90
      00FF0EFBH   LINE      CODE     ---       #91
      00FF0F02H   LINE      CODE     ---       #93
      00FF0F0AH   LINE      CODE     ---       #94
L251 LINKER/LOCATER V4.66.93.0                                                        07/09/2022  13:55:25  PAGE 17


      00FF0F12H   LINE      CODE     ---       #96
      00FF0F1AH   LINE      CODE     ---       #99
      00FF0F22H   LINE      CODE     ---       #115
      00FF0F2AH   LINE      CODE     ---       #130
      00FF0F32H   LINE      CODE     ---       #131
      ---         BLOCKEND  ---      ---       LVL=0

      00FF005AH   BLOCK     CODE     ---       LVL=0
      00FF005AH   LINE      CODE     ---       #133
      00FF005AH   LINE      CODE     ---       #135
      ---         BLOCKEND  ---      ---       LVL=0

      00FF1383H   BLOCK     CODE     ---       LVL=0
      00FF1383H   LINE      CODE     ---       #137
      00FF1383H   LINE      CODE     ---       #139
      00FF1389H   LINE      CODE     ---       #140
      00FF138FH   LINE      CODE     ---       #141
      00FF1394H   LINE      CODE     ---       #144
      00FF139CH   LINE      CODE     ---       #145
      00FF13A4H   LINE      CODE     ---       #164
      00FF13ACH   LINE      CODE     ---       #165
      00FF13B4H   LINE      CODE     ---       #183
      ---         BLOCKEND  ---      ---       LVL=0

      00FF0059H   BLOCK     CODE     ---       LVL=0
      00FF0059H   LINE      CODE     ---       #186
      00FF0059H   LINE      CODE     ---       #188
      ---         BLOCKEND  ---      ---       LVL=0

      00FF0CCFH   BLOCK     CODE     ---       LVL=0
      00FF0CD1H   BLOCK     CODE     NEAR LAB  LVL=1
      R15         REGSYM    ---      BYTE      csr
      ---         BLOCKEND  ---      ---       LVL=1
      00FF0CCFH   LINE      CODE     ---       #190
      00FF0CD1H   LINE      CODE     ---       #191
      00FF0CD1H   LINE      CODE     ---       #194
      00FF0CD8H   LINE      CODE     ---       #195
      00FF0CDFH   LINE      CODE     ---       #197
      00FF0CE2H   LINE      CODE     ---       #199
      00FF0CECH   LINE      CODE     ---       #200
      00FF0CF1H   LINE      CODE     ---       #201
      00FF0CF1H   LINE      CODE     ---       #202
      00FF0CF6H   LINE      CODE     ---       #204
      00FF0D00H   LINE      CODE     ---       #205
      00FF0D00H   LINE      CODE     ---       #207
      00FF0D0FH   LINE      CODE     ---       #209
      00FF0D0FH   LINE      CODE     ---       #210
      00FF0D14H   LINE      CODE     ---       #212
      00FF0D1DH   LINE      CODE     ---       #213
      00FF0D28H   LINE      CODE     ---       #214
      00FF0D3AH   LINE      CODE     ---       #216
      00FF0D3AH   LINE      CODE     ---       #217
      00FF0D3DH   LINE      CODE     ---       #218
      00FF0D3FH   LINE      CODE     ---       #219
      00FF0D3FH   LINE      CODE     ---       #220
      00FF0D42H   LINE      CODE     ---       #221
      00FF0D44H   LINE      CODE     ---       #222
      00FF0D44H   LINE      CODE     ---       #223
      00FF0D47H   LINE      CODE     ---       #224
      00FF0D49H   LINE      CODE     ---       #225
      00FF0D49H   LINE      CODE     ---       #226
      00FF0D4CH   LINE      CODE     ---       #227
      00FF0D4EH   LINE      CODE     ---       #228
      00FF0D4EH   LINE      CODE     ---       #229
      00FF0D4EH   LINE      CODE     ---       #230
L251 LINKER/LOCATER V4.66.93.0                                                        07/09/2022  13:55:25  PAGE 18


      00FF0D4EH   LINE      CODE     ---       #231
      00FF0D4EH   LINE      CODE     ---       #232
      00FF0D51H   LINE      CODE     ---       #233
      00FF0D53H   LINE      CODE     ---       #234
      00FF0D53H   LINE      CODE     ---       #235
      00FF0D56H   LINE      CODE     ---       #236
      00FF0D56H   LINE      CODE     ---       #237
      00FF0D56H   LINE      CODE     ---       #238
      ---         BLOCKEND  ---      ---       LVL=0

      00FF1A7FH   BLOCK     CODE     ---       LVL=0
      00FF1A7FH   LINE      CODE     ---       #240
      00FF1A7FH   LINE      CODE     ---       #242
      00FF1A85H   LINE      CODE     ---       #243
      ---         BLOCKEND  ---      ---       LVL=0

      00FF1A1AH   BLOCK     CODE     ---       LVL=0
      00FF1A1AH   LINE      CODE     ---       #246
      00FF1A1AH   LINE      CODE     ---       #248
      00FF1A20H   LINE      CODE     ---       #249
      00FF1A28H   LINE      CODE     ---       #250
      ---         BLOCKEND  ---      ---       LVL=0

      00FF1A71H   BLOCK     CODE     ---       LVL=0
      00FF1A71H   LINE      CODE     ---       #253
      00FF1A71H   LINE      CODE     ---       #255
      00FF1A77H   LINE      CODE     ---       #256
      ---         BLOCKEND  ---      ---       LVL=0

      00FF0006H   BLOCK     CODE     ---       LVL=0
      00FF0006H   LINE      CODE     ---       #259
      00FF0006H   LINE      CODE     ---       #261
      00FF000BH   LINE      CODE     ---       #262
      ---         BLOCKEND  ---      ---       LVL=0

      00FF0F4DH   BLOCK     CODE     ---       LVL=0
      00FF0F4FH   BLOCK     CODE     NEAR LAB  LVL=1
      R11         REGSYM    ---      BYTE      csr
      R15         REGSYM    ---      BYTE      cnt
      ---         BLOCKEND  ---      ---       LVL=1
      00FF0F4DH   LINE      CODE     ---       #265
      00FF0F4FH   LINE      CODE     ---       #266
      00FF0F4FH   LINE      CODE     ---       #270
      00FF0F56H   LINE      CODE     ---       #271
      00FF0F5BH   LINE      CODE     ---       #272
      00FF0F5EH   LINE      CODE     ---       #274
      00FF0F6FH   LINE      CODE     ---       #275
      00FF0F7AH   LINE      CODE     ---       #276
      00FF0F86H   LINE      CODE     ---       #277
      00FF0F92H   LINE      CODE     ---       #278
      00FF0F9AH   LINE      CODE     ---       #280
      00FF0FA2H   LINE      CODE     ---       #281
      00FF0FA7H   LINE      CODE     ---       #282
      00FF0FA9H   LINE      CODE     ---       #285
      00FF0FB1H   LINE      CODE     ---       #286
      00FF0FB1H   LINE      CODE     ---       #287
      ---         BLOCKEND  ---      ---       LVL=0

      00FF1010H   BLOCK     CODE     ---       LVL=0
      R11         REGSYM    ---      BYTE      csr
      R7          REGSYM    ---      BYTE      cnt
      00FF1010H   LINE      CODE     ---       #289
      00FF1010H   LINE      CODE     ---       #290
      00FF1010H   LINE      CODE     ---       #294
      00FF1017H   LINE      CODE     ---       #295
L251 LINKER/LOCATER V4.66.93.0                                                        07/09/2022  13:55:25  PAGE 19


      00FF101CH   LINE      CODE     ---       #296
      00FF101FH   LINE      CODE     ---       #298
      00FF1028H   LINE      CODE     ---       #299
      00FF1034H   LINE      CODE     ---       #300
      00FF103EH   LINE      CODE     ---       #301
      00FF1046H   LINE      CODE     ---       #303
      00FF104EH   LINE      CODE     ---       #304
      00FF1053H   LINE      CODE     ---       #306
      00FF105AH   LINE      CODE     ---       #307
      00FF105CH   LINE      CODE     ---       #308
      00FF105DH   LINE      CODE     ---       #311
      00FF1065H   LINE      CODE     ---       #312
      00FF1065H   LINE      CODE     ---       #313
      ---         BLOCKEND  ---      ---       LVL=0

      00FF19B9H   BLOCK     CODE     ---       LVL=0
      REG=0       REGSYM    ---      ---       pData
      R7          REGSYM    ---      BYTE      bSize
      R10         REGSYM    ---      BYTE      ep
      00FF19B9H   LINE      CODE     ---       #315
      00FF19BDH   LINE      CODE     ---       #317
      00FF19C6H   LINE      CODE     ---       #318
      ---         BLOCKEND  ---      ---       LVL=0

      00FF1750H   BLOCK     CODE     ---       LVL=0
      REG=0       REGSYM    ---      ---       pData
      R7          REGSYM    ---      BYTE      ep
      00FF1752H   BLOCK     CODE     NEAR LAB  LVL=1
      R15         REGSYM    ---      BYTE      cnt
      ---         BLOCKEND  ---      ---       LVL=1
      00FF1750H   LINE      CODE     ---       #321
      00FF1752H   LINE      CODE     ---       #322
      00FF1752H   LINE      CODE     ---       #325
      00FF175DH   LINE      CODE     ---       #326
      00FF1764H   LINE      CODE     ---       #328
      00FF1766H   LINE      CODE     ---       #329
      ---         BLOCKEND  ---      ---       LVL=0

      00FF1558H   BLOCK     CODE     ---       LVL=0
      00FF155AH   BLOCK     CODE     NEAR LAB  LVL=1
      R15         REGSYM    ---      BYTE      csr
      ---         BLOCKEND  ---      ---       LVL=1
      00FF1558H   LINE      CODE     ---       #332
      00FF155AH   LINE      CODE     ---       #333
      00FF155AH   LINE      CODE     ---       #336
      00FF1562H   LINE      CODE     ---       #337
      00FF1569H   LINE      CODE     ---       #338
      00FF156CH   LINE      CODE     ---       #340
      00FF1574H   LINE      CODE     ---       #341
      00FF1574H   LINE      CODE     ---       #342
      00FF1579H   LINE      CODE     ---       #344
      00FF1580H   LINE      CODE     ---       #345
      00FF1580H   LINE      CODE     ---       #346
      00FF1582H   LINE      CODE     ---       #347
      ---         BLOCKEND  ---      ---       LVL=0

      00FF0E57H   BLOCK     CODE     ---       LVL=0
      00FF0E59H   BLOCK     CODE     NEAR LAB  LVL=1
      R15         REGSYM    ---      BYTE      csr
      ---         BLOCKEND  ---      ---       LVL=1
      00FF0E57H   LINE      CODE     ---       #423
      00FF0E59H   LINE      CODE     ---       #424
      00FF0E59H   LINE      CODE     ---       #427
      00FF0E61H   LINE      CODE     ---       #428
      00FF0E68H   LINE      CODE     ---       #429
L251 LINKER/LOCATER V4.66.93.0                                                        07/09/2022  13:55:25  PAGE 20


      00FF0E6BH   LINE      CODE     ---       #431
      00FF0E73H   LINE      CODE     ---       #432
      00FF0E73H   LINE      CODE     ---       #433
      00FF0E78H   LINE      CODE     ---       #435
      00FF0E85H   LINE      CODE     ---       #436
      00FF0E92H   LINE      CODE     ---       #438
      00FF0E9CH   LINE      CODE     ---       #440
      00FF0EA9H   LINE      CODE     ---       #442
      00FF0EB0H   LINE      CODE     ---       #444
      00FF0EB3H   LINE      CODE     ---       #445
      00FF0EB6H   LINE      CODE     ---       #446
      00FF0EC2H   LINE      CODE     ---       #448
      00FF0EC9H   LINE      CODE     ---       #450
      00FF0ECCH   LINE      CODE     ---       #451
      00FF0ECEH   LINE      CODE     ---       #452
      00FF0ECEH   LINE      CODE     ---       #455
      00FF0ED0H   LINE      CODE     ---       #457
      ---         BLOCKEND  ---      ---       LVL=0

      00FF15D9H   BLOCK     CODE     ---       LVL=0
      00FF15D9H   LINE      CODE     ---       #534
      00FF15D9H   LINE      CODE     ---       #536
      00FF15DCH   LINE      CODE     ---       #538
      00FF15E4H   LINE      CODE     ---       #539
      00FF15ECH   LINE      CODE     ---       #540
      00FF15FCH   LINE      CODE     ---       #541
      00FF15FEH   LINE      CODE     ---       #543
      00FF1601H   LINE      CODE     ---       #544
      ---         BLOCKEND  ---      ---       LVL=0

      00FF17B4H   BLOCK     CODE     ---       LVL=0
      00FF17B4H   LINE      CODE     ---       #546
      00FF17B4H   LINE      CODE     ---       #548
      00FF17B7H   LINE      CODE     ---       #550
      00FF17BFH   LINE      CODE     ---       #551
      00FF17C6H   LINE      CODE     ---       #552
      00FF17C8H   LINE      CODE     ---       #554
      00FF17CBH   LINE      CODE     ---       #555
      ---         BLOCKEND  ---      ---       LVL=0

      ---         MODULE    ---      ---       usb_req_class
      00FF0056H   PUBLIC    CODE     ---       usb_get_protocol
      00FF1A9BH   PUBLIC    CODE     ---       usb_set_protocol
      00FF1653H   PUBLIC    CODE     ---       usb_get_idle
      00FF1585H   PUBLIC    CODE     ---       usb_get_report
      00FF152AH   PUBLIC    CODE     ---       usb_req_class
      00FF16FBH   PUBLIC    CODE     ---       usb_set_idle
      00FF15AFH   PUBLIC    CODE     ---       usb_set_report
      0000001FH   PUBLIC    EDATA    BYTE      bHidIdle
      000000D0H   SFRSYM    DATA     BYTE      PSW
      0000009DH   SFRSYM    DATA     BYTE      IRCBAND
      00000097H   SFRSYM    DATA     BYTE      AUXR2
      000000EFH   SFRSYM    DATA     BYTE      AUXINTIF
      000000FDH   SFRSYM    DATA     BYTE      S4CON
      000000ACH   SFRSYM    DATA     BYTE      S3CON
      0000009AH   SFRSYM    DATA     BYTE      S2CON
      000000B7H   SFRSYM    DATA     BYTE      IPH
      000000CDH   SFRSYM    DATA     BYTE      SPSTAT
      000000DDH   SFRSYM    DATA     BYTE      T4T3M
      000000C1H   SFRSYM    DATA     BYTE      WDT_CONTR
      000000DFH   SFRSYM    DATA     BYTE      IP3
      000000F4H   SFRSYM    DATA     BYTE      USBCON
      000000B5H   SFRSYM    DATA     BYTE      IP2
      000000FFH   SFRSYM    DATA     BYTE      RSTCFG
      000000F9H   SFRSYM    DATA     BYTE      LINICR
L251 LINKER/LOCATER V4.66.93.0                                                        07/09/2022  13:55:25  PAGE 21


      0000008EH   SFRSYM    DATA     BYTE      AUXR
      000000AFH   SFRSYM    DATA     BYTE      IE2
      00000088H   SFRSYM    DATA     BYTE      TCON
      00000098H   SFRSYM    DATA     BYTE      SCON
      000000F1H   SFRSYM    DATA     BYTE      CANICR
      00000087H   SFRSYM    DATA     BYTE      PCON
      000000BCH   SFRSYM    DATA     BYTE      ADC_CONTR
      000000E7H   SFRSYM    DATA     BYTE      CMPCR2
      000000E6H   SFRSYM    DATA     BYTE      CMPCR1
      000000B8H   SFRSYM    DATA     BYTE      IP
      0000008FH   SFRSYM    DATA     BYTE      INTCLKO
      000000EEH   SFRSYM    DATA     BYTE      IP3H
      000000B6H   SFRSYM    DATA     BYTE      IP2H
      000000A8H   SFRSYM    DATA     BYTE      IE
      000000BBH   SFRSYM    DATA     BYTE      P_SW3
      000000BAH   SFRSYM    DATA     BYTE      P_SW2
      000000A2H   SFRSYM    DATA     BYTE      P_SW1
      000000CEH   SFRSYM    DATA     BYTE      SPCTL
      000000F8H   SFRSYM    DATA     BYTE      P7
      000000E8H   SFRSYM    DATA     BYTE      P6
      000000C8H   SFRSYM    DATA     BYTE      P5
      000000C0H   SFRSYM    DATA     BYTE      P4
      000000B0H   SFRSYM    DATA     BYTE      P3
      000000A0H   SFRSYM    DATA     BYTE      P2
      00000090H   SFRSYM    DATA     BYTE      P1
      00000080H   SFRSYM    DATA     BYTE      P0

      00FF152AH   BLOCK     CODE     ---       LVL=0
      00FF152AH   LINE      CODE     ---       #7
      00FF152AH   LINE      CODE     ---       #9
      00FF1543H   LINE      CODE     ---       #11
      00FF1543H   LINE      CODE     ---       #12
      00FF1546H   LINE      CODE     ---       #13
      00FF1546H   LINE      CODE     ---       #14
      00FF1546H   LINE      CODE     ---       #15
      00FF1549H   LINE      CODE     ---       #16
      00FF1549H   LINE      CODE     ---       #17
      00FF1549H   LINE      CODE     ---       #18
      00FF154CH   LINE      CODE     ---       #19
      00FF154CH   LINE      CODE     ---       #20
      00FF154CH   LINE      CODE     ---       #21
      00FF154FH   LINE      CODE     ---       #22
      00FF154FH   LINE      CODE     ---       #23
      00FF154FH   LINE      CODE     ---       #24
      00FF1552H   LINE      CODE     ---       #25
      00FF1552H   LINE      CODE     ---       #26
      00FF1552H   LINE      CODE     ---       #27
      00FF1555H   LINE      CODE     ---       #28
      00FF1555H   LINE      CODE     ---       #29
      00FF1555H   LINE      CODE     ---       #30
      00FF1558H   LINE      CODE     ---       #31
      00FF1558H   LINE      CODE     ---       #32
      00FF1558H   LINE      CODE     ---       #33
      ---         BLOCKEND  ---      ---       LVL=0

      00FF1585H   BLOCK     CODE     ---       LVL=0
      00FF1585H   LINE      CODE     ---       #35
      00FF1585H   LINE      CODE     ---       #37
      00FF1595H   LINE      CODE     ---       #40
      00FF1598H   LINE      CODE     ---       #41
      00FF1598H   LINE      CODE     ---       #42
      00FF1598H   LINE      CODE     ---       #44
      00FF15A4H   LINE      CODE     ---       #45
      00FF15ACH   LINE      CODE     ---       #47
      00FF15AFH   LINE      CODE     ---       #48
L251 LINKER/LOCATER V4.66.93.0                                                        07/09/2022  13:55:25  PAGE 22


      ---         BLOCKEND  ---      ---       LVL=0

      00FF15AFH   BLOCK     CODE     ---       LVL=0
      00FF15AFH   LINE      CODE     ---       #50
      00FF15AFH   LINE      CODE     ---       #52
      00FF15BFH   LINE      CODE     ---       #55
      00FF15C2H   LINE      CODE     ---       #56
      00FF15C2H   LINE      CODE     ---       #57
      00FF15C2H   LINE      CODE     ---       #59
      00FF15CEH   LINE      CODE     ---       #60
      00FF15D6H   LINE      CODE     ---       #62
      00FF15D9H   LINE      CODE     ---       #63
      ---         BLOCKEND  ---      ---       LVL=0

      00FF1653H   BLOCK     CODE     ---       LVL=0
      00FF1653H   LINE      CODE     ---       #65
      00FF1653H   LINE      CODE     ---       #67
      00FF1663H   LINE      CODE     ---       #70
      00FF1666H   LINE      CODE     ---       #71
      00FF1666H   LINE      CODE     ---       #72
      00FF1666H   LINE      CODE     ---       #74
      00FF166EH   LINE      CODE     ---       #75
      00FF1676H   LINE      CODE     ---       #77
      00FF1679H   LINE      CODE     ---       #78
      ---         BLOCKEND  ---      ---       LVL=0

      00FF16FBH   BLOCK     CODE     ---       LVL=0
      00FF16FBH   LINE      CODE     ---       #80
      00FF16FBH   LINE      CODE     ---       #82
      00FF170BH   LINE      CODE     ---       #85
      00FF170EH   LINE      CODE     ---       #86
      00FF170EH   LINE      CODE     ---       #87
      00FF170EH   LINE      CODE     ---       #89
      00FF1716H   LINE      CODE     ---       #91
      00FF1719H   LINE      CODE     ---       #92
      ---         BLOCKEND  ---      ---       LVL=0

      00FF0056H   BLOCK     CODE     ---       LVL=0
      00FF0056H   LINE      CODE     ---       #94
      00FF0056H   LINE      CODE     ---       #96
      ---         BLOCKEND  ---      ---       LVL=0

      00FF1A9BH   BLOCK     CODE     ---       LVL=0
      00FF1A9BH   LINE      CODE     ---       #99
      00FF1A9BH   LINE      CODE     ---       #101
      ---         BLOCKEND  ---      ---       LVL=0

      ---         MODULE    ---      ---       usb_req_std
      00FF11DBH   PUBLIC    CODE     ---       usb_get_interface
      00FF09F4H   PUBLIC    CODE     ---       usb_clear_feature
      00FF162BH   PUBLIC    CODE     ---       usb_set_interface
      00FF0918H   PUBLIC    CODE     ---       usb_get_descriptor
      00FF1A9EH   PUBLIC    CODE     ---       usb_set_descriptor
      00FF0FB4H   PUBLIC    CODE     ---       usb_req_std
      00FF1AA1H   PUBLIC    CODE     ---       usb_synch_frame
      00FF1152H   PUBLIC    CODE     ---       usb_set_address
      00FF0A8FH   PUBLIC    CODE     ---       usb_set_feature
      00FF1066H   PUBLIC    CODE     ---       usb_get_configuration
      00FF0C42H   PUBLIC    CODE     ---       usb_set_configuration
      00FF0819H   PUBLIC    CODE     ---       usb_get_status
      000000D0H   SFRSYM    DATA     BYTE      PSW
      0000009DH   SFRSYM    DATA     BYTE      IRCBAND
      00000097H   SFRSYM    DATA     BYTE      AUXR2
      000000EFH   SFRSYM    DATA     BYTE      AUXINTIF
      000000FDH   SFRSYM    DATA     BYTE      S4CON
L251 LINKER/LOCATER V4.66.93.0                                                        07/09/2022  13:55:25  PAGE 23


      000000ACH   SFRSYM    DATA     BYTE      S3CON
      0000009AH   SFRSYM    DATA     BYTE      S2CON
      000000B7H   SFRSYM    DATA     BYTE      IPH
      000000CDH   SFRSYM    DATA     BYTE      SPSTAT
      000000DDH   SFRSYM    DATA     BYTE      T4T3M
      000000C1H   SFRSYM    DATA     BYTE      WDT_CONTR
      000000DFH   SFRSYM    DATA     BYTE      IP3
      000000F4H   SFRSYM    DATA     BYTE      USBCON
      000000B5H   SFRSYM    DATA     BYTE      IP2
      000000FFH   SFRSYM    DATA     BYTE      RSTCFG
      000000F9H   SFRSYM    DATA     BYTE      LINICR
      0000008EH   SFRSYM    DATA     BYTE      AUXR
      000000AFH   SFRSYM    DATA     BYTE      IE2
      00000088H   SFRSYM    DATA     BYTE      TCON
      00000098H   SFRSYM    DATA     BYTE      SCON
      000000F1H   SFRSYM    DATA     BYTE      CANICR
      00000087H   SFRSYM    DATA     BYTE      PCON
      000000BCH   SFRSYM    DATA     BYTE      ADC_CONTR
      000000E7H   SFRSYM    DATA     BYTE      CMPCR2
      000000E6H   SFRSYM    DATA     BYTE      CMPCR1
      000000B8H   SFRSYM    DATA     BYTE      IP
      0000008FH   SFRSYM    DATA     BYTE      INTCLKO
      000000EEH   SFRSYM    DATA     BYTE      IP3H
      000000B6H   SFRSYM    DATA     BYTE      IP2H
      000000A8H   SFRSYM    DATA     BYTE      IE
      000000BBH   SFRSYM    DATA     BYTE      P_SW3
      000000BAH   SFRSYM    DATA     BYTE      P_SW2
      000000A2H   SFRSYM    DATA     BYTE      P_SW1
      000000CEH   SFRSYM    DATA     BYTE      SPCTL
      000000F8H   SFRSYM    DATA     BYTE      P7
      000000E8H   SFRSYM    DATA     BYTE      P6
      000000C8H   SFRSYM    DATA     BYTE      P5
      000000C0H   SFRSYM    DATA     BYTE      P4
      000000B0H   SFRSYM    DATA     BYTE      P3
      000000A0H   SFRSYM    DATA     BYTE      P2
      00000090H   SFRSYM    DATA     BYTE      P1
      00000080H   SFRSYM    DATA     BYTE      P0

      00FF0FB4H   BLOCK     CODE     ---       LVL=0
      00FF0FB4H   LINE      CODE     ---       #7
      00FF0FB4H   LINE      CODE     ---       #9
      00FF0FECH   LINE      CODE     ---       #11
      00FF0FECH   LINE      CODE     ---       #12
      00FF0FEFH   LINE      CODE     ---       #13
      00FF0FEFH   LINE      CODE     ---       #14
      00FF0FEFH   LINE      CODE     ---       #15
      00FF0FF2H   LINE      CODE     ---       #16
      00FF0FF2H   LINE      CODE     ---       #17
      00FF0FF2H   LINE      CODE     ---       #18
      00FF0FF5H   LINE      CODE     ---       #19
      00FF0FF5H   LINE      CODE     ---       #20
      00FF0FF5H   LINE      CODE     ---       #21
      00FF0FF8H   LINE      CODE     ---       #22
      00FF0FF8H   LINE      CODE     ---       #23
      00FF0FF8H   LINE      CODE     ---       #24
      00FF0FFBH   LINE      CODE     ---       #25
      00FF0FFBH   LINE      CODE     ---       #26
      00FF0FFBH   LINE      CODE     ---       #27
      00FF0FFEH   LINE      CODE     ---       #28
      00FF0FFEH   LINE      CODE     ---       #29
      00FF0FFEH   LINE      CODE     ---       #30
      00FF1001H   LINE      CODE     ---       #31
      00FF1001H   LINE      CODE     ---       #32
      00FF1001H   LINE      CODE     ---       #33
      00FF1004H   LINE      CODE     ---       #34
L251 LINKER/LOCATER V4.66.93.0                                                        07/09/2022  13:55:25  PAGE 24


      00FF1004H   LINE      CODE     ---       #35
      00FF1004H   LINE      CODE     ---       #36
      00FF1007H   LINE      CODE     ---       #37
      00FF1007H   LINE      CODE     ---       #38
      00FF1007H   LINE      CODE     ---       #39
      00FF100AH   LINE      CODE     ---       #40
      00FF100AH   LINE      CODE     ---       #41
      00FF100AH   LINE      CODE     ---       #42
      00FF100DH   LINE      CODE     ---       #43
      00FF100DH   LINE      CODE     ---       #44
      00FF100DH   LINE      CODE     ---       #45
      00FF1010H   LINE      CODE     ---       #46
      00FF1010H   LINE      CODE     ---       #47
      00FF1010H   LINE      CODE     ---       #48
      ---         BLOCKEND  ---      ---       LVL=0

      00FF0819H   BLOCK     CODE     ---       LVL=0
      00FF081BH   BLOCK     CODE     NEAR LAB  LVL=1
      R10         REGSYM    ---      BYTE      ep
      ---         BLOCKEND  ---      ---       LVL=1
      00FF0819H   LINE      CODE     ---       #50
      00FF081BH   LINE      CODE     ---       #51
      00FF081BH   LINE      CODE     ---       #54
      00FF083CH   LINE      CODE     ---       #59
      00FF083CH   LINE      CODE     ---       #60
      00FF083FH   LINE      CODE     ---       #61
      00FF083FH   LINE      CODE     ---       #63
      00FF0850H   LINE      CODE     ---       #65
      00FF0850H   LINE      CODE     ---       #66
      00FF085CH   LINE      CODE     ---       #69
      00FF085CH   LINE      CODE     ---       #70
      00FF085FH   LINE      CODE     ---       #71
      00FF085FH   LINE      CODE     ---       #74
      00FF085FH   LINE      CODE     ---       #75
      00FF085FH   LINE      CODE     ---       #76
      00FF085FH   LINE      CODE     ---       #77
      00FF0861H   LINE      CODE     ---       #78
      00FF0861H   LINE      CODE     ---       #79
      00FF0877H   LINE      CODE     ---       #83
      00FF0877H   LINE      CODE     ---       #84
      00FF087AH   LINE      CODE     ---       #85
      00FF087AH   LINE      CODE     ---       #88
      00FF0882H   LINE      CODE     ---       #89
      00FF0882H   LINE      CODE     ---       #90
      00FF0882H   LINE      CODE     ---       #91
      00FF0884H   LINE      CODE     ---       #92
      00FF0884H   LINE      CODE     ---       #93
      00FF0891H   LINE      CODE     ---       #96
      00FF0891H   LINE      CODE     ---       #97
      00FF0893H   LINE      CODE     ---       #98
      00FF0893H   LINE      CODE     ---       #101
      00FF089CH   LINE      CODE     ---       #102
      00FF08A5H   LINE      CODE     ---       #105
      00FF08A5H   LINE      CODE     ---       #120
      00FF08BEH   LINE      CODE     ---       #122
      00FF08C6H   LINE      CODE     ---       #123
      00FF08C6H   LINE      CODE     ---       #124
      00FF08C8H   LINE      CODE     ---       #127
      00FF08D0H   LINE      CODE     ---       #128
      00FF08D0H   LINE      CODE     ---       #129
      00FF08D0H   LINE      CODE     ---       #130
      00FF08D2H   LINE      CODE     ---       #133
      00FF08D2H   LINE      CODE     ---       #148
      00FF08EBH   LINE      CODE     ---       #150
      00FF08F3H   LINE      CODE     ---       #151
L251 LINKER/LOCATER V4.66.93.0                                                        07/09/2022  13:55:25  PAGE 25


      00FF08F3H   LINE      CODE     ---       #152
      00FF08F5H   LINE      CODE     ---       #155
      00FF0901H   LINE      CODE     ---       #156
      00FF0909H   LINE      CODE     ---       #157
      00FF0909H   LINE      CODE     ---       #158
      00FF090BH   LINE      CODE     ---       #160
      00FF090BH   LINE      CODE     ---       #161
      00FF090BH   LINE      CODE     ---       #162
      00FF090DH   LINE      CODE     ---       #163
      00FF090DH   LINE      CODE     ---       #164
      00FF090DH   LINE      CODE     ---       #165
      00FF090DH   LINE      CODE     ---       #166
      00FF090DH   LINE      CODE     ---       #167
      00FF0910H   LINE      CODE     ---       #168
      00FF0912H   LINE      CODE     ---       #169
      00FF0912H   LINE      CODE     ---       #171
      00FF0915H   LINE      CODE     ---       #172
      ---         BLOCKEND  ---      ---       LVL=0

      00FF09F4H   BLOCK     CODE     ---       LVL=0
      R7          REGSYM    ---      BYTE      ep
      00FF09F4H   LINE      CODE     ---       #174
      00FF09F4H   LINE      CODE     ---       #175
      00FF09F4H   LINE      CODE     ---       #178
      00FF0A1FH   LINE      CODE     ---       #185
      00FF0A1FH   LINE      CODE     ---       #186
      00FF0A21H   LINE      CODE     ---       #187
      00FF0A21H   LINE      CODE     ---       #189
      00FF0A2AH   LINE      CODE     ---       #190
      00FF0A33H   LINE      CODE     ---       #193
      00FF0A33H   LINE      CODE     ---       #208
      00FF0A4DH   LINE      CODE     ---       #209
      00FF0A52H   LINE      CODE     ---       #210
      00FF0A57H   LINE      CODE     ---       #211
      00FF0A57H   LINE      CODE     ---       #212
      00FF0A59H   LINE      CODE     ---       #215
      00FF0A59H   LINE      CODE     ---       #230
      00FF0A73H   LINE      CODE     ---       #231
      00FF0A78H   LINE      CODE     ---       #232
      00FF0A80H   LINE      CODE     ---       #233
      00FF0A87H   LINE      CODE     ---       #234
      00FF0A89H   LINE      CODE     ---       #236
      00FF0A89H   LINE      CODE     ---       #237
      00FF0A8CH   LINE      CODE     ---       #238
      00FF0A8CH   LINE      CODE     ---       #239
      00FF0A8CH   LINE      CODE     ---       #241
      00FF0A8FH   LINE      CODE     ---       #242
      ---         BLOCKEND  ---      ---       LVL=0

      00FF0A8FH   BLOCK     CODE     ---       LVL=0
      R7          REGSYM    ---      BYTE      ep
      00FF0A8FH   LINE      CODE     ---       #244
      00FF0A8FH   LINE      CODE     ---       #245
      00FF0A8FH   LINE      CODE     ---       #248
      00FF0ABAH   LINE      CODE     ---       #255
      00FF0ABAH   LINE      CODE     ---       #256
      00FF0ABCH   LINE      CODE     ---       #257
      00FF0ABCH   LINE      CODE     ---       #259
      00FF0AC5H   LINE      CODE     ---       #260
      00FF0ACEH   LINE      CODE     ---       #263
      00FF0ACEH   LINE      CODE     ---       #278
      00FF0AE5H   LINE      CODE     ---       #279
      00FF0AEAH   LINE      CODE     ---       #280
      00FF0AEFH   LINE      CODE     ---       #281
      00FF0AEFH   LINE      CODE     ---       #282
L251 LINKER/LOCATER V4.66.93.0                                                        07/09/2022  13:55:25  PAGE 26


      00FF0AF1H   LINE      CODE     ---       #285
      00FF0AF1H   LINE      CODE     ---       #300
      00FF0B08H   LINE      CODE     ---       #301
      00FF0B0DH   LINE      CODE     ---       #302
      00FF0B15H   LINE      CODE     ---       #303
      00FF0B1CH   LINE      CODE     ---       #304
      00FF0B1EH   LINE      CODE     ---       #306
      00FF0B1EH   LINE      CODE     ---       #307
      00FF0B21H   LINE      CODE     ---       #308
      00FF0B21H   LINE      CODE     ---       #309
      00FF0B21H   LINE      CODE     ---       #311
      00FF0B24H   LINE      CODE     ---       #312
      ---         BLOCKEND  ---      ---       LVL=0

      00FF1152H   BLOCK     CODE     ---       LVL=0
      00FF1154H   BLOCK     CODE     NEAR LAB  LVL=1
      R15         REGSYM    ---      BYTE      addr
      ---         BLOCKEND  ---      ---       LVL=1
      00FF1152H   LINE      CODE     ---       #314
      00FF1154H   LINE      CODE     ---       #315
      00FF1154H   LINE      CODE     ---       #318
      00FF117DH   LINE      CODE     ---       #325
      00FF1180H   LINE      CODE     ---       #326
      00FF1182H   LINE      CODE     ---       #327
      00FF1182H   LINE      CODE     ---       #329
      00FF1182H   LINE      CODE     ---       #330
      00FF1188H   LINE      CODE     ---       #331
      00FF118CH   LINE      CODE     ---       #333
      00FF118EH   LINE      CODE     ---       #334
      00FF1190H   LINE      CODE     ---       #337
      00FF1196H   LINE      CODE     ---       #338
      00FF1196H   LINE      CODE     ---       #340
      00FF1199H   LINE      CODE     ---       #341
      ---         BLOCKEND  ---      ---       LVL=0

      00FF0918H   BLOCK     CODE     ---       LVL=0
      00FF0918H   LINE      CODE     ---       #343
      00FF0918H   LINE      CODE     ---       #345
      00FF0923H   LINE      CODE     ---       #347
      00FF0923H   LINE      CODE     ---       #348
      00FF0926H   LINE      CODE     ---       #349
      00FF0926H   LINE      CODE     ---       #351
      00FF093FH   LINE      CODE     ---       #353
      00FF093FH   LINE      CODE     ---       #354
      00FF0949H   LINE      CODE     ---       #356
      00FF0949H   LINE      CODE     ---       #357
      00FF0949H   LINE      CODE     ---       #358
      00FF094BH   LINE      CODE     ---       #361
      00FF0957H   LINE      CODE     ---       #362
      00FF095BH   LINE      CODE     ---       #363
      00FF095BH   LINE      CODE     ---       #364
      00FF095DH   LINE      CODE     ---       #365
      00FF095DH   LINE      CODE     ---       #366
      00FF0969H   LINE      CODE     ---       #367
      00FF096DH   LINE      CODE     ---       #368
      00FF096FH   LINE      CODE     ---       #369
      00FF096FH   LINE      CODE     ---       #370
      00FF097DH   LINE      CODE     ---       #372
      00FF097DH   LINE      CODE     ---       #373
      00FF0989H   LINE      CODE     ---       #374
      00FF098DH   LINE      CODE     ---       #375
      00FF098FH   LINE      CODE     ---       #376
      00FF098FH   LINE      CODE     ---       #377
      00FF099BH   LINE      CODE     ---       #378
      00FF099FH   LINE      CODE     ---       #379
L251 LINKER/LOCATER V4.66.93.0                                                        07/09/2022  13:55:25  PAGE 27


      00FF09A1H   LINE      CODE     ---       #380
      00FF09A1H   LINE      CODE     ---       #381
      00FF09ABH   LINE      CODE     ---       #383
      00FF09AFH   LINE      CODE     ---       #384
      00FF09B4H   LINE      CODE     ---       #385
      00FF09B6H   LINE      CODE     ---       #388
      00FF09C2H   LINE      CODE     ---       #389
      00FF09C6H   LINE      CODE     ---       #390
      00FF09C6H   LINE      CODE     ---       #391
      00FF09C8H   LINE      CODE     ---       #392
      00FF09C8H   LINE      CODE     ---       #393
      00FF09C8H   LINE      CODE     ---       #394
      00FF09CAH   LINE      CODE     ---       #395
      00FF09CAH   LINE      CODE     ---       #396
      00FF09CAH   LINE      CODE     ---       #397
      00FF09CAH   LINE      CODE     ---       #398
      00FF09D6H   LINE      CODE     ---       #399
      00FF09DEH   LINE      CODE     ---       #400
      00FF09E0H   LINE      CODE     ---       #401
      00FF09E0H   LINE      CODE     ---       #402
      00FF09E3H   LINE      CODE     ---       #403
      00FF09E3H   LINE      CODE     ---       #404
      00FF09E3H   LINE      CODE     ---       #406
      00FF09EDH   LINE      CODE     ---       #408
      00FF09F1H   LINE      CODE     ---       #409
      00FF09F1H   LINE      CODE     ---       #411
      00FF09F4H   LINE      CODE     ---       #412
      ---         BLOCKEND  ---      ---       LVL=0

      00FF1A9EH   BLOCK     CODE     ---       LVL=0
      00FF1A9EH   LINE      CODE     ---       #414
      00FF1A9EH   LINE      CODE     ---       #416
      ---         BLOCKEND  ---      ---       LVL=0

      00FF1066H   BLOCK     CODE     ---       LVL=0
      00FF1066H   LINE      CODE     ---       #419
      00FF1066H   LINE      CODE     ---       #421
      00FF108FH   LINE      CODE     ---       #428
      00FF1092H   LINE      CODE     ---       #429
      00FF1092H   LINE      CODE     ---       #430
      00FF1092H   LINE      CODE     ---       #432
      00FF1099H   LINE      CODE     ---       #434
      00FF10A1H   LINE      CODE     ---       #435
      00FF10A1H   LINE      CODE     ---       #436
      00FF10A3H   LINE      CODE     ---       #439
      00FF10AFH   LINE      CODE     ---       #440
      00FF10B7H   LINE      CODE     ---       #441
      00FF10B7H   LINE      CODE     ---       #443
      00FF10BAH   LINE      CODE     ---       #444
      ---         BLOCKEND  ---      ---       LVL=0

      00FF0C42H   BLOCK     CODE     ---       LVL=0
      00FF0C42H   LINE      CODE     ---       #446
      00FF0C42H   LINE      CODE     ---       #448
      00FF0C6BH   LINE      CODE     ---       #455
      00FF0C6EH   LINE      CODE     ---       #456
      00FF0C6EH   LINE      CODE     ---       #457
      00FF0C6EH   LINE      CODE     ---       #459
      00FF0C75H   LINE      CODE     ---       #461
      00FF0C7BH   LINE      CODE     ---       #462
      00FF0C80H   LINE      CODE     ---       #463
      00FF0C84H   LINE      CODE     ---       #465
      00FF0C8CH   LINE      CODE     ---       #466
      00FF0C94H   LINE      CODE     ---       #467
      00FF0C9CH   LINE      CODE     ---       #490
L251 LINKER/LOCATER V4.66.93.0                                                        07/09/2022  13:55:25  PAGE 28


      00FF0CA4H   LINE      CODE     ---       #491
      00FF0CABH   LINE      CODE     ---       #492
      00FF0CB3H   LINE      CODE     ---       #514
      00FF0CBAH   LINE      CODE     ---       #515
      00FF0CBCH   LINE      CODE     ---       #518
      00FF0CC2H   LINE      CODE     ---       #519
      00FF0CC8H   LINE      CODE     ---       #520
      00FF0CCCH   LINE      CODE     ---       #521
      00FF0CCCH   LINE      CODE     ---       #523
      00FF0CCFH   LINE      CODE     ---       #524
      ---         BLOCKEND  ---      ---       LVL=0

      00FF11DBH   BLOCK     CODE     ---       LVL=0
      00FF11DBH   LINE      CODE     ---       #526
      00FF11DBH   LINE      CODE     ---       #528
      00FF11FFH   LINE      CODE     ---       #534
      00FF1202H   LINE      CODE     ---       #535
      00FF1202H   LINE      CODE     ---       #536
      00FF1202H   LINE      CODE     ---       #538
      00FF120EH   LINE      CODE     ---       #539
      00FF1216H   LINE      CODE     ---       #541
      00FF1219H   LINE      CODE     ---       #542
      ---         BLOCKEND  ---      ---       LVL=0

      00FF162BH   BLOCK     CODE     ---       LVL=0
      00FF162BH   LINE      CODE     ---       #544
      00FF162BH   LINE      CODE     ---       #546
      00FF164DH   LINE      CODE     ---       #552
      00FF1650H   LINE      CODE     ---       #553
      00FF1650H   LINE      CODE     ---       #554
      00FF1650H   LINE      CODE     ---       #556
      00FF1653H   LINE      CODE     ---       #557
      ---         BLOCKEND  ---      ---       LVL=0

      00FF1AA1H   BLOCK     CODE     ---       LVL=0
      00FF1AA1H   LINE      CODE     ---       #559
      00FF1AA1H   LINE      CODE     ---       #561
      ---         BLOCKEND  ---      ---       LVL=0

      ---         MODULE    ---      ---       usb_req_vendor
      00FF1AA4H   PUBLIC    CODE     ---       usb_req_vendor
      000000D0H   SFRSYM    DATA     BYTE      PSW
      0000009DH   SFRSYM    DATA     BYTE      IRCBAND
      00000097H   SFRSYM    DATA     BYTE      AUXR2
      000000EFH   SFRSYM    DATA     BYTE      AUXINTIF
      000000FDH   SFRSYM    DATA     BYTE      S4CON
      000000ACH   SFRSYM    DATA     BYTE      S3CON
      0000009AH   SFRSYM    DATA     BYTE      S2CON
      000000B7H   SFRSYM    DATA     BYTE      IPH
      000000CDH   SFRSYM    DATA     BYTE      SPSTAT
      000000DDH   SFRSYM    DATA     BYTE      T4T3M
      000000C1H   SFRSYM    DATA     BYTE      WDT_CONTR
      000000DFH   SFRSYM    DATA     BYTE      IP3
      000000F4H   SFRSYM    DATA     BYTE      USBCON
      000000B5H   SFRSYM    DATA     BYTE      IP2
      000000FFH   SFRSYM    DATA     BYTE      RSTCFG
      000000F9H   SFRSYM    DATA     BYTE      LINICR
      0000008EH   SFRSYM    DATA     BYTE      AUXR
      000000AFH   SFRSYM    DATA     BYTE      IE2
      00000088H   SFRSYM    DATA     BYTE      TCON
      00000098H   SFRSYM    DATA     BYTE      SCON
      000000F1H   SFRSYM    DATA     BYTE      CANICR
      00000087H   SFRSYM    DATA     BYTE      PCON
      000000BCH   SFRSYM    DATA     BYTE      ADC_CONTR
      000000E7H   SFRSYM    DATA     BYTE      CMPCR2
L251 LINKER/LOCATER V4.66.93.0                                                        07/09/2022  13:55:25  PAGE 29


      000000E6H   SFRSYM    DATA     BYTE      CMPCR1
      000000B8H   SFRSYM    DATA     BYTE      IP
      0000008FH   SFRSYM    DATA     BYTE      INTCLKO
      000000EEH   SFRSYM    DATA     BYTE      IP3H
      000000B6H   SFRSYM    DATA     BYTE      IP2H
      000000A8H   SFRSYM    DATA     BYTE      IE
      000000BBH   SFRSYM    DATA     BYTE      P_SW3
      000000BAH   SFRSYM    DATA     BYTE      P_SW2
      000000A2H   SFRSYM    DATA     BYTE      P_SW1
      000000CEH   SFRSYM    DATA     BYTE      SPCTL
      000000F8H   SFRSYM    DATA     BYTE      P7
      000000E8H   SFRSYM    DATA     BYTE      P6
      000000C8H   SFRSYM    DATA     BYTE      P5
      000000C0H   SFRSYM    DATA     BYTE      P4
      000000B0H   SFRSYM    DATA     BYTE      P3
      000000A0H   SFRSYM    DATA     BYTE      P2
      00000090H   SFRSYM    DATA     BYTE      P1
      00000080H   SFRSYM    DATA     BYTE      P0

      00FF1AA4H   BLOCK     CODE     ---       LVL=0
      00FF1AA4H   LINE      CODE     ---       #5
      00FF1AA4H   LINE      CODE     ---       #7
      ---         BLOCKEND  ---      ---       LVL=0

      ---         MODULE    ---      ---       util
      00FF19F6H   PUBLIC    CODE     ---       LCD12864_DisplayClear
      00FF13BBH   PUBLIC    CODE     ---       OLED12864_ScrollRight
      00FF18D4H   PUBLIC    CODE     ---       OLED12864_DisplayOff
      00FF142BH   PUBLIC    CODE     ---       OLED12864_ScrollLeft
      00FF169EH   PUBLIC    CODE     ---       OLED12864_SetAddressMode
      00FF16BDH   PUBLIC    CODE     ---       OLED12864_SetContrast
      00FF18EBH   PUBLIC    CODE     ---       LCD12864_AutoWrapOff
      00FF1219H   PUBLIC    CODE     ---       OLED12864_ShowPicture
      00FF17CCH   PUBLIC    CODE     ---       OLED12864_ScrollStart
      00FF14CAH   PUBLIC    CODE     ---       SEG7_ShowFloat
      00FF0086H   PUBLIC    CODE     ---       SEG7_ShowString
      00FF1497H   PUBLIC    CODE     ---       SEG7_ShowCode
      00FF1257H   PUBLIC    CODE     ---       LED40_SendData
      00FF17E4H   PUBLIC    CODE     ---       OLED12864_DisplayOn
      00FF16DCH   PUBLIC    CODE     ---       LCD12864_ReverseLine
      00FF1902H   PUBLIC    CODE     ---       OLED12864_ScrollStop
      00FF1295H   PUBLIC    CODE     ---       LED64_SendData
      00FF14FBH   PUBLIC    CODE     ---       printf_hid
      00FF12D3H   PUBLIC    CODE     ---       SEG7_ShowLong
      00FF17FCH   PUBLIC    CODE     ---       LCD12864_ScrollRight
      00FF1814H   PUBLIC    CODE     ---       LCD12864_AutoWrapOn
      00FF1919H   PUBLIC    CODE     ---       LCD12864_DisplayOff
      00FF1462H   PUBLIC    CODE     ---       reverse2
      00FF1930H   PUBLIC    CODE     ---       LCD12864_ScrollLeft
      00FF1947H   PUBLIC    CODE     ---       OLED12864_HorizontalMirror
      00FF10BAH   PUBLIC    CODE     ---       LCD12864_ShowPicture
      00FF13F3H   PUBLIC    CODE     ---       OLED12864_ScrollUp
      00FF195EH   PUBLIC    CODE     ---       OLED12864_DisplayContent
      00FF1A08H   PUBLIC    CODE     ---       OLED12864_DisplayReverse
      00FF182CH   PUBLIC    CODE     ---       OLED12864_VerticalMirror
      00FF1844H   PUBLIC    CODE     ---       LCD12864_CursorReturnHome
      00FF185CH   PUBLIC    CODE     ---       OLED12864_DisplayEntire
      00FF1874H   PUBLIC    CODE     ---       LCD12864_DisplayOn
      00FF188CH   PUBLIC    CODE     ---       LCD12864_CursorMoveRight
      00FF130EH   PUBLIC    CODE     ---       LCD12864_ShowString
      00FF1975H   PUBLIC    CODE     ---       LCD12864_CursorOff
      00FF18A4H   PUBLIC    CODE     ---       sleep_ms
      00FF198CH   PUBLIC    CODE     ---       LCD12864_CursorMoveLeft
      00FF1719H   PUBLIC    CODE     ---       sleep_us
      00FF005EH   PUBLIC    CODE     ---       LCD12864_ScrollUp
L251 LINKER/LOCATER V4.66.93.0                                                        07/09/2022  13:55:25  PAGE 30


      00FF18BCH   PUBLIC    CODE     ---       LCD12864_CursorOn
      00000049H   PUBLIC    EDATA    BYTE      ?SEG7_ShowString?BYTE
      00000075H   PUBLIC    EDATA    BYTE      ?printf_hid?BYTE
      000000D0H   SFRSYM    DATA     BYTE      PSW
      0000009DH   SFRSYM    DATA     BYTE      IRCBAND
      00000097H   SFRSYM    DATA     BYTE      AUXR2
      000000EFH   SFRSYM    DATA     BYTE      AUXINTIF
      000000FDH   SFRSYM    DATA     BYTE      S4CON
      000000ACH   SFRSYM    DATA     BYTE      S3CON
      0000009AH   SFRSYM    DATA     BYTE      S2CON
      000000B7H   SFRSYM    DATA     BYTE      IPH
      000000CDH   SFRSYM    DATA     BYTE      SPSTAT
      000000DDH   SFRSYM    DATA     BYTE      T4T3M
      000000C1H   SFRSYM    DATA     BYTE      WDT_CONTR
      000000DFH   SFRSYM    DATA     BYTE      IP3
      000000F4H   SFRSYM    DATA     BYTE      USBCON
      000000B5H   SFRSYM    DATA     BYTE      IP2
      000000FFH   SFRSYM    DATA     BYTE      RSTCFG
      000000F9H   SFRSYM    DATA     BYTE      LINICR
      0000008EH   SFRSYM    DATA     BYTE      AUXR
      000000AFH   SFRSYM    DATA     BYTE      IE2
      00000088H   SFRSYM    DATA     BYTE      TCON
      00000098H   SFRSYM    DATA     BYTE      SCON
      000000F1H   SFRSYM    DATA     BYTE      CANICR
      00000087H   SFRSYM    DATA     BYTE      PCON
      000000BCH   SFRSYM    DATA     BYTE      ADC_CONTR
      000000E7H   SFRSYM    DATA     BYTE      CMPCR2
      000000E6H   SFRSYM    DATA     BYTE      CMPCR1
      000000B8H   SFRSYM    DATA     BYTE      IP
      0000008FH   SFRSYM    DATA     BYTE      INTCLKO
      000000EEH   SFRSYM    DATA     BYTE      IP3H
      000000B6H   SFRSYM    DATA     BYTE      IP2H
      000000A8H   SFRSYM    DATA     BYTE      IE
      000000BBH   SFRSYM    DATA     BYTE      P_SW3
      000000BAH   SFRSYM    DATA     BYTE      P_SW2
      000000A2H   SFRSYM    DATA     BYTE      P_SW1
      000000CEH   SFRSYM    DATA     BYTE      SPCTL
      000000F8H   SFRSYM    DATA     BYTE      P7
      000000E8H   SFRSYM    DATA     BYTE      P6
      000000C8H   SFRSYM    DATA     BYTE      P5
      000000C0H   SFRSYM    DATA     BYTE      P4
      000000B0H   SFRSYM    DATA     BYTE      P3
      000000A0H   SFRSYM    DATA     BYTE      P2
      00000090H   SFRSYM    DATA     BYTE      P1
      00000080H   SFRSYM    DATA     BYTE      P0
      00FF1769H   SYMBOL    CODE     ---       OLED12864_SetHeader
      00FF0B24H   SYMBOL    CODE     ---       OLED12864_SetBuffer
      00FF1782H   SYMBOL    CODE     ---       LCD12864_SetHeader
      00FF0BB3H   SYMBOL    CODE     ---       LCD12864_SetBuffer
      00FF179BH   SYMBOL    CODE     ---       SEG7_SetHeader

      00FF1462H   BLOCK     CODE     ---       LVL=0
      00000094H   SYMBOL    EDATA    WORD      w
      00FF1466H   BLOCK     CODE     NEAR LAB  LVL=1
      00000096H   SYMBOL    EDATA    WORD      ret
      ---         BLOCKEND  ---      ---       LVL=1
      00FF1462H   LINE      CODE     ---       #17
      00FF1466H   LINE      CODE     ---       #18
      00FF1466H   LINE      CODE     ---       #21
      00FF147CH   LINE      CODE     ---       #22
      00FF1492H   LINE      CODE     ---       #24
      00FF1496H   LINE      CODE     ---       #25
      ---         BLOCKEND  ---      ---       LVL=0

      00FF1719H   BLOCK     CODE     ---       LVL=0
L251 LINKER/LOCATER V4.66.93.0                                                        07/09/2022  13:55:25  PAGE 31


      WR6         REGSYM    ---      WORD      n
      00FF1719H   LINE      CODE     ---       #27
      00FF1719H   LINE      CODE     ---       #29
      00FF171BH   LINE      CODE     ---       #38
      00FF171CH   LINE      CODE     ---       #39
      00FF171DH   LINE      CODE     ---       #40
      00FF171EH   LINE      CODE     ---       #41
      00FF171FH   LINE      CODE     ---       #43
      00FF1720H   LINE      CODE     ---       #44
      00FF1721H   LINE      CODE     ---       #45
      00FF1722H   LINE      CODE     ---       #46
      00FF1723H   LINE      CODE     ---       #47
      00FF1724H   LINE      CODE     ---       #49
      00FF1725H   LINE      CODE     ---       #50
      00FF1726H   LINE      CODE     ---       #51
      00FF1727H   LINE      CODE     ---       #52
      00FF1728H   LINE      CODE     ---       #53
      00FF1729H   LINE      CODE     ---       #55
      00FF172AH   LINE      CODE     ---       #56
      00FF172BH   LINE      CODE     ---       #57
      00FF172CH   LINE      CODE     ---       #58
      00FF172DH   LINE      CODE     ---       #59
      00FF1735H   LINE      CODE     ---       #60
      ---         BLOCKEND  ---      ---       LVL=0

      00FF18A4H   BLOCK     CODE     ---       LVL=0
      WR14        REGSYM    ---      WORD      n
      00FF18A4H   LINE      CODE     ---       #62
      00FF18A8H   LINE      CODE     ---       #64
      00FF18B9H   LINE      CODE     ---       #66
      ---         BLOCKEND  ---      ---       LVL=0

      00FF179BH   BLOCK     CODE     ---       LVL=0
      00FF179BH   LINE      CODE     ---       #68
      00FF179BH   LINE      CODE     ---       #70
      00FF17A1H   LINE      CODE     ---       #71
      00FF17A7H   LINE      CODE     ---       #72
      00FF17ADH   LINE      CODE     ---       #73
      00FF17B3H   LINE      CODE     ---       #74
      ---         BLOCKEND  ---      ---       LVL=0

      00FF12D3H   BLOCK     CODE     ---       LVL=0
      0000008CH   SYMBOL    EDATA    LONG      n
      R15         REGSYM    ---      CHAR      radix
      00FF12D3H   LINE      CODE     ---       #76
      00FF12DBH   LINE      CODE     ---       #78
      00FF12DEH   LINE      CODE     ---       #79
      00FF12E4H   LINE      CODE     ---       #80
      00FF12EAH   LINE      CODE     ---       #81
      00FF12F0H   LINE      CODE     ---       #82
      00FF12F5H   LINE      CODE     ---       #83
      00FF1308H   LINE      CODE     ---       #85
      00FF130BH   LINE      CODE     ---       #86
      ---         BLOCKEND  ---      ---       LVL=0

      00FF14CAH   BLOCK     CODE     ---       LVL=0
      DR12        REGSYM    ---      FLOAT     f
      00FF14CAH   LINE      CODE     ---       #88
      00FF14CEH   LINE      CODE     ---       #90
      00FF14D1H   LINE      CODE     ---       #91
      00FF14D7H   LINE      CODE     ---       #92
      00FF14DDH   LINE      CODE     ---       #93
      00FF14E2H   LINE      CODE     ---       #94
      00FF14E6H   LINE      CODE     ---       #95
      00FF14F5H   LINE      CODE     ---       #97
L251 LINKER/LOCATER V4.66.93.0                                                        07/09/2022  13:55:25  PAGE 32


      00FF14F8H   LINE      CODE     ---       #98
      ---         BLOCKEND  ---      ---       LVL=0

      00FF1497H   BLOCK     CODE     ---       LVL=0
      REG=3       REGSYM    ---      ---       cod
      00FF1497H   LINE      CODE     ---       #100
      00FF1499H   LINE      CODE     ---       #102
      00FF149CH   LINE      CODE     ---       #103
      00FF14A2H   LINE      CODE     ---       #104
      00FF14A7H   LINE      CODE     ---       #105
      00FF14ABH   LINE      CODE     ---       #106
      00FF14AFH   LINE      CODE     ---       #107
      00FF14C4H   LINE      CODE     ---       #109
      00FF14C7H   LINE      CODE     ---       #110
      ---         BLOCKEND  ---      ---       LVL=0

      00FF0086H   BLOCK     CODE     ---       LVL=0
      00000049H   SYMBOL    EDATA    ---       fmt
      00FF008CH   BLOCK     CODE     NEAR LAB  LVL=1
      REG=1       REGSYM    ---      ---       va
      WR14        REGSYM    ---      INT       ret
      ---         BLOCKEND  ---      ---       LVL=1
      00FF0086H   LINE      CODE     ---       #112
      00FF008CH   LINE      CODE     ---       #113
      00FF008CH   LINE      CODE     ---       #117
      00FF008FH   LINE      CODE     ---       #118
      00FF0095H   LINE      CODE     ---       #119
      00FF009AH   LINE      CODE     ---       #120
      00FF009EH   LINE      CODE     ---       #121
      00FF00A2H   LINE      CODE     ---       #123
      00FF00AAH   LINE      CODE     ---       #124
      00FF00C3H   LINE      CODE     ---       #127
      00FF00C6H   LINE      CODE     ---       #129
      00FF00C8H   LINE      CODE     ---       #130
      ---         BLOCKEND  ---      ---       LVL=0

      00FF14FBH   BLOCK     CODE     ---       LVL=0
      00000075H   SYMBOL    EDATA    ---       fmt
      00FF1501H   BLOCK     CODE     NEAR LAB  LVL=1
      REG=1       REGSYM    ---      ---       va
      WR14        REGSYM    ---      INT       ret
      ---         BLOCKEND  ---      ---       LVL=1
      00FF14FBH   LINE      CODE     ---       #132
      00FF1501H   LINE      CODE     ---       #133
      00FF1501H   LINE      CODE     ---       #137
      00FF1509H   LINE      CODE     ---       #138
      00FF1522H   LINE      CODE     ---       #141
      00FF1525H   LINE      CODE     ---       #143
      00FF1527H   LINE      CODE     ---       #144
      ---         BLOCKEND  ---      ---       LVL=0

      00FF1257H   BLOCK     CODE     ---       LVL=0
      REG=0       REGSYM    ---      ---       dat
      R10         REGSYM    ---      BYTE      size
      00FF1257H   LINE      CODE     ---       #146
      00FF1259H   LINE      CODE     ---       #148
      00FF125EH   LINE      CODE     ---       #149
      00FF1261H   LINE      CODE     ---       #151
      00FF1267H   LINE      CODE     ---       #152
      00FF126DH   LINE      CODE     ---       #153
      00FF1273H   LINE      CODE     ---       #154
      00FF1279H   LINE      CODE     ---       #155
      00FF127FH   LINE      CODE     ---       #156
      00FF1292H   LINE      CODE     ---       #158
      ---         BLOCKEND  ---      ---       LVL=0
L251 LINKER/LOCATER V4.66.93.0                                                        07/09/2022  13:55:25  PAGE 33



      00FF1295H   BLOCK     CODE     ---       LVL=0
      REG=0       REGSYM    ---      ---       dat
      R10         REGSYM    ---      BYTE      size
      00FF1295H   LINE      CODE     ---       #161
      00FF1297H   LINE      CODE     ---       #163
      00FF129CH   LINE      CODE     ---       #164
      00FF129FH   LINE      CODE     ---       #166
      00FF12A5H   LINE      CODE     ---       #167
      00FF12ABH   LINE      CODE     ---       #168
      00FF12B1H   LINE      CODE     ---       #169
      00FF12B7H   LINE      CODE     ---       #170
      00FF12BDH   LINE      CODE     ---       #171
      00FF12D0H   LINE      CODE     ---       #173
      ---         BLOCKEND  ---      ---       LVL=0

      00FF1782H   BLOCK     CODE     ---       LVL=0
      00FF1782H   LINE      CODE     ---       #176
      00FF1782H   LINE      CODE     ---       #178
      00FF1788H   LINE      CODE     ---       #179
      00FF178EH   LINE      CODE     ---       #180
      00FF1794H   LINE      CODE     ---       #181
      00FF179AH   LINE      CODE     ---       #182
      ---         BLOCKEND  ---      ---       LVL=0

      00FF1919H   BLOCK     CODE     ---       LVL=0
      00FF1919H   LINE      CODE     ---       #184
      00FF1919H   LINE      CODE     ---       #186
      00FF191CH   LINE      CODE     ---       #187
      00FF1922H   LINE      CODE     ---       #188
      00FF1928H   LINE      CODE     ---       #189
      00FF192DH   LINE      CODE     ---       #191
      ---         BLOCKEND  ---      ---       LVL=0

      00FF1874H   BLOCK     CODE     ---       LVL=0
      00FF1874H   LINE      CODE     ---       #194
      00FF1874H   LINE      CODE     ---       #196
      00FF1877H   LINE      CODE     ---       #197
      00FF187DH   LINE      CODE     ---       #198
      00FF1883H   LINE      CODE     ---       #199
      00FF1889H   LINE      CODE     ---       #201
      ---         BLOCKEND  ---      ---       LVL=0

      00FF1975H   BLOCK     CODE     ---       LVL=0
      00FF1975H   LINE      CODE     ---       #204
      00FF1975H   LINE      CODE     ---       #206
      00FF1978H   LINE      CODE     ---       #207
      00FF197EH   LINE      CODE     ---       #208
      00FF1984H   LINE      CODE     ---       #209
      00FF1989H   LINE      CODE     ---       #211
      ---         BLOCKEND  ---      ---       LVL=0

      00FF18BCH   BLOCK     CODE     ---       LVL=0
      00FF18BCH   LINE      CODE     ---       #214
      00FF18BCH   LINE      CODE     ---       #216
      00FF18BFH   LINE      CODE     ---       #217
      00FF18C5H   LINE      CODE     ---       #218
      00FF18CBH   LINE      CODE     ---       #219
      00FF18D1H   LINE      CODE     ---       #221
      ---         BLOCKEND  ---      ---       LVL=0

      00FF198CH   BLOCK     CODE     ---       LVL=0
      00FF198CH   LINE      CODE     ---       #224
      00FF198CH   LINE      CODE     ---       #226
      00FF198FH   LINE      CODE     ---       #227
L251 LINKER/LOCATER V4.66.93.0                                                        07/09/2022  13:55:25  PAGE 34


      00FF1995H   LINE      CODE     ---       #228
      00FF199BH   LINE      CODE     ---       #229
      00FF19A0H   LINE      CODE     ---       #231
      ---         BLOCKEND  ---      ---       LVL=0

      00FF188CH   BLOCK     CODE     ---       LVL=0
      00FF188CH   LINE      CODE     ---       #234
      00FF188CH   LINE      CODE     ---       #236
      00FF188FH   LINE      CODE     ---       #237
      00FF1895H   LINE      CODE     ---       #238
      00FF189BH   LINE      CODE     ---       #239
      00FF18A1H   LINE      CODE     ---       #241
      ---         BLOCKEND  ---      ---       LVL=0

      00FF1844H   BLOCK     CODE     ---       LVL=0
      00FF1844H   LINE      CODE     ---       #244
      00FF1844H   LINE      CODE     ---       #246
      00FF1847H   LINE      CODE     ---       #247
      00FF184DH   LINE      CODE     ---       #248
      00FF1853H   LINE      CODE     ---       #249
      00FF1859H   LINE      CODE     ---       #251
      ---         BLOCKEND  ---      ---       LVL=0

      00FF1930H   BLOCK     CODE     ---       LVL=0
      00FF1930H   LINE      CODE     ---       #254
      00FF1930H   LINE      CODE     ---       #256
      00FF1933H   LINE      CODE     ---       #257
      00FF1939H   LINE      CODE     ---       #258
      00FF193FH   LINE      CODE     ---       #259
      00FF1944H   LINE      CODE     ---       #261
      ---         BLOCKEND  ---      ---       LVL=0

      00FF17FCH   BLOCK     CODE     ---       LVL=0
      00FF17FCH   LINE      CODE     ---       #264
      00FF17FCH   LINE      CODE     ---       #266
      00FF17FFH   LINE      CODE     ---       #267
      00FF1805H   LINE      CODE     ---       #268
      00FF180BH   LINE      CODE     ---       #269
      00FF1811H   LINE      CODE     ---       #271
      ---         BLOCKEND  ---      ---       LVL=0

      00FF005EH   BLOCK     CODE     ---       LVL=0
      R15         REGSYM    ---      BYTE      line
      00FF005EH   LINE      CODE     ---       #274
      00FF0062H   LINE      CODE     ---       #276
      00FF0065H   LINE      CODE     ---       #277
      00FF006BH   LINE      CODE     ---       #278
      00FF0071H   LINE      CODE     ---       #279
      00FF0077H   LINE      CODE     ---       #280
      00FF007DH   LINE      CODE     ---       #282
      00FF0080H   LINE      CODE     ---       #283
      ---         BLOCKEND  ---      ---       LVL=0

      00FF18EBH   BLOCK     CODE     ---       LVL=0
      00FF18EBH   LINE      CODE     ---       #285
      00FF18EBH   LINE      CODE     ---       #287
      00FF18EEH   LINE      CODE     ---       #288
      00FF18F4H   LINE      CODE     ---       #289
      00FF18FAH   LINE      CODE     ---       #290
      00FF18FFH   LINE      CODE     ---       #292
      ---         BLOCKEND  ---      ---       LVL=0

      00FF1814H   BLOCK     CODE     ---       LVL=0
      00FF1814H   LINE      CODE     ---       #295
      00FF1814H   LINE      CODE     ---       #297
L251 LINKER/LOCATER V4.66.93.0                                                        07/09/2022  13:55:25  PAGE 35


      00FF1817H   LINE      CODE     ---       #298
      00FF181DH   LINE      CODE     ---       #299
      00FF1823H   LINE      CODE     ---       #300
      00FF1829H   LINE      CODE     ---       #302
      ---         BLOCKEND  ---      ---       LVL=0

      00FF16DCH   BLOCK     CODE     ---       LVL=0
      R15         REGSYM    ---      BYTE      line
      00FF16DCH   LINE      CODE     ---       #305
      00FF16E0H   LINE      CODE     ---       #307
      00FF16E3H   LINE      CODE     ---       #308
      00FF16E9H   LINE      CODE     ---       #309
      00FF16EFH   LINE      CODE     ---       #310
      00FF16F5H   LINE      CODE     ---       #312
      00FF16F8H   LINE      CODE     ---       #313
      ---         BLOCKEND  ---      ---       LVL=0

      00FF19F6H   BLOCK     CODE     ---       LVL=0
      00FF19F6H   LINE      CODE     ---       #315
      00FF19F6H   LINE      CODE     ---       #317
      00FF19F9H   LINE      CODE     ---       #318
      00FF19FFH   LINE      CODE     ---       #319
      00FF1A05H   LINE      CODE     ---       #321
      ---         BLOCKEND  ---      ---       LVL=0

      00FF0BB3H   BLOCK     CODE     ---       LVL=0
      REG=3       REGSYM    ---      ---       dat
      0000001AH   SYMBOL    EDATA    WORD      size
      00FF0BBBH   BLOCK     CODE     NEAR LAB  LVL=1
      0000001CH   SYMBOL    EDATA    BYTE      cnt
      0000001DH   SYMBOL    EDATA    WORD      addr
      ---         BLOCKEND  ---      ---       LVL=1
      00FF0BB3H   LINE      CODE     ---       #324
      00FF0BBBH   LINE      CODE     ---       #325
      00FF0BBBH   LINE      CODE     ---       #329
      00FF0BC1H   LINE      CODE     ---       #330
      00FF0BC3H   LINE      CODE     ---       #332
      00FF0BC9H   LINE      CODE     ---       #333
      00FF0BD3H   LINE      CODE     ---       #334
      00FF0BD7H   LINE      CODE     ---       #336
      00FF0BDAH   LINE      CODE     ---       #337
      00FF0BE8H   LINE      CODE     ---       #338
      00FF0BEEH   LINE      CODE     ---       #339
      00FF0BFDH   LINE      CODE     ---       #340
      00FF0C14H   LINE      CODE     ---       #342
      00FF0C17H   LINE      CODE     ---       #344
      00FF0C1FH   LINE      CODE     ---       #345
      00FF0C2DH   LINE      CODE     ---       #346
      00FF0C37H   LINE      CODE     ---       #347
      00FF0C3FH   LINE      CODE     ---       #348
      ---         BLOCKEND  ---      ---       LVL=0

      00FF130EH   BLOCK     CODE     ---       LVL=0
      00000098H   SYMBOL    EDATA    BYTE      x
      00000099H   SYMBOL    EDATA    BYTE      y
      REG=3       REGSYM    ---      ---       str
      00FF130EH   LINE      CODE     ---       #350
      00FF131AH   LINE      CODE     ---       #352
      00FF1324H   LINE      CODE     ---       #354
      00FF1327H   LINE      CODE     ---       #355
      00FF132DH   LINE      CODE     ---       #356
      00FF1333H   LINE      CODE     ---       #357
      00FF133BH   LINE      CODE     ---       #358
      00FF1343H   LINE      CODE     ---       #360
      00FF1346H   LINE      CODE     ---       #361
L251 LINKER/LOCATER V4.66.93.0                                                        07/09/2022  13:55:25  PAGE 36


      ---         BLOCKEND  ---      ---       LVL=0

      00FF10BAH   BLOCK     CODE     ---       LVL=0
      R12         REGSYM    ---      BYTE      x
      R13         REGSYM    ---      BYTE      y
      R14         REGSYM    ---      BYTE      cx
      R15         REGSYM    ---      BYTE      cy
      REG=7       REGSYM    ---      ---       dat
      00FF10BAH   LINE      CODE     ---       #363
      00FF10C6H   LINE      CODE     ---       #365
      00FF10DAH   LINE      CODE     ---       #367
      00FF10DDH   LINE      CODE     ---       #368
      00FF10E3H   LINE      CODE     ---       #369
      00FF10E9H   LINE      CODE     ---       #370
      00FF10EFH   LINE      CODE     ---       #371
      00FF10F5H   LINE      CODE     ---       #372
      00FF10FBH   LINE      CODE     ---       #373
      00FF1101H   LINE      CODE     ---       #375
      00FF1104H   LINE      CODE     ---       #376
      ---         BLOCKEND  ---      ---       LVL=0

      00FF1769H   BLOCK     CODE     ---       LVL=0
      00FF1769H   LINE      CODE     ---       #378
      00FF1769H   LINE      CODE     ---       #380
      00FF176FH   LINE      CODE     ---       #381
      00FF1775H   LINE      CODE     ---       #382
      00FF177BH   LINE      CODE     ---       #383
      00FF1781H   LINE      CODE     ---       #384
      ---         BLOCKEND  ---      ---       LVL=0

      00FF18D4H   BLOCK     CODE     ---       LVL=0
      00FF18D4H   LINE      CODE     ---       #386
      00FF18D4H   LINE      CODE     ---       #388
      00FF18D7H   LINE      CODE     ---       #389
      00FF18DDH   LINE      CODE     ---       #390
      00FF18E3H   LINE      CODE     ---       #391
      00FF18E8H   LINE      CODE     ---       #393
      ---         BLOCKEND  ---      ---       LVL=0

      00FF17E4H   BLOCK     CODE     ---       LVL=0
      00FF17E4H   LINE      CODE     ---       #396
      00FF17E4H   LINE      CODE     ---       #398
      00FF17E7H   LINE      CODE     ---       #399
      00FF17EDH   LINE      CODE     ---       #400
      00FF17F3H   LINE      CODE     ---       #401
      00FF17F9H   LINE      CODE     ---       #403
      ---         BLOCKEND  ---      ---       LVL=0

      00FF195EH   BLOCK     CODE     ---       LVL=0
      00FF195EH   LINE      CODE     ---       #406
      00FF195EH   LINE      CODE     ---       #408
      00FF1961H   LINE      CODE     ---       #409
      00FF1967H   LINE      CODE     ---       #410
      00FF196DH   LINE      CODE     ---       #411
      00FF1972H   LINE      CODE     ---       #413
      ---         BLOCKEND  ---      ---       LVL=0

      00FF185CH   BLOCK     CODE     ---       LVL=0
      00FF185CH   LINE      CODE     ---       #416
      00FF185CH   LINE      CODE     ---       #418
      00FF185FH   LINE      CODE     ---       #419
      00FF1865H   LINE      CODE     ---       #420
      00FF186BH   LINE      CODE     ---       #421
      00FF1871H   LINE      CODE     ---       #423
      ---         BLOCKEND  ---      ---       LVL=0
L251 LINKER/LOCATER V4.66.93.0                                                        07/09/2022  13:55:25  PAGE 37



      00FF1947H   BLOCK     CODE     ---       LVL=0
      00FF1947H   LINE      CODE     ---       #426
      00FF1947H   LINE      CODE     ---       #428
      00FF194AH   LINE      CODE     ---       #429
      00FF1950H   LINE      CODE     ---       #430
      00FF1956H   LINE      CODE     ---       #431
      00FF195BH   LINE      CODE     ---       #433
      ---         BLOCKEND  ---      ---       LVL=0

      00FF182CH   BLOCK     CODE     ---       LVL=0
      00FF182CH   LINE      CODE     ---       #436
      00FF182CH   LINE      CODE     ---       #438
      00FF182FH   LINE      CODE     ---       #439
      00FF1835H   LINE      CODE     ---       #440
      00FF183BH   LINE      CODE     ---       #441
      00FF1841H   LINE      CODE     ---       #443
      ---         BLOCKEND  ---      ---       LVL=0

      00FF1A08H   BLOCK     CODE     ---       LVL=0
      00FF1A08H   LINE      CODE     ---       #446
      00FF1A08H   LINE      CODE     ---       #448
      00FF1A0BH   LINE      CODE     ---       #449
      00FF1A11H   LINE      CODE     ---       #450
      00FF1A17H   LINE      CODE     ---       #452
      ---         BLOCKEND  ---      ---       LVL=0

      00FF16BDH   BLOCK     CODE     ---       LVL=0
      R15         REGSYM    ---      BYTE      bContrast
      00FF16BDH   LINE      CODE     ---       #455
      00FF16C1H   LINE      CODE     ---       #457
      00FF16C4H   LINE      CODE     ---       #458
      00FF16CAH   LINE      CODE     ---       #459
      00FF16D0H   LINE      CODE     ---       #460
      00FF16D6H   LINE      CODE     ---       #462
      00FF16D9H   LINE      CODE     ---       #463
      ---         BLOCKEND  ---      ---       LVL=0

      00FF169EH   BLOCK     CODE     ---       LVL=0
      R15         REGSYM    ---      BYTE      bMode
      00FF169EH   LINE      CODE     ---       #465
      00FF16A2H   LINE      CODE     ---       #467
      00FF16A5H   LINE      CODE     ---       #468
      00FF16ABH   LINE      CODE     ---       #469
      00FF16B1H   LINE      CODE     ---       #470
      00FF16B7H   LINE      CODE     ---       #472
      00FF16BAH   LINE      CODE     ---       #473
      ---         BLOCKEND  ---      ---       LVL=0

      00FF142BH   BLOCK     CODE     ---       LVL=0
      R12         REGSYM    ---      BYTE      bPageStart
      R13         REGSYM    ---      BYTE      bPageEnd
      WR14        REGSYM    ---      WORD      nInterval
      00FF142BH   LINE      CODE     ---       #475
      00FF1431H   LINE      CODE     ---       #477
      00FF1434H   LINE      CODE     ---       #478
      00FF143AH   LINE      CODE     ---       #479
      00FF1440H   LINE      CODE     ---       #480
      00FF1445H   LINE      CODE     ---       #481
      00FF144BH   LINE      CODE     ---       #482
      00FF1451H   LINE      CODE     ---       #483
      00FF145CH   LINE      CODE     ---       #485
      00FF145FH   LINE      CODE     ---       #486
      ---         BLOCKEND  ---      ---       LVL=0

L251 LINKER/LOCATER V4.66.93.0                                                        07/09/2022  13:55:25  PAGE 38


      00FF13BBH   BLOCK     CODE     ---       LVL=0
      R12         REGSYM    ---      BYTE      bPageStart
      R13         REGSYM    ---      BYTE      bPageEnd
      WR14        REGSYM    ---      WORD      nInterval
      00FF13BBH   LINE      CODE     ---       #488
      00FF13C1H   LINE      CODE     ---       #490
      00FF13C4H   LINE      CODE     ---       #491
      00FF13CAH   LINE      CODE     ---       #492
      00FF13D0H   LINE      CODE     ---       #493
      00FF13D6H   LINE      CODE     ---       #494
      00FF13DCH   LINE      CODE     ---       #495
      00FF13E2H   LINE      CODE     ---       #496
      00FF13EDH   LINE      CODE     ---       #498
      00FF13F0H   LINE      CODE     ---       #499
      ---         BLOCKEND  ---      ---       LVL=0

      00FF13F3H   BLOCK     CODE     ---       LVL=0
      R12         REGSYM    ---      BYTE      bPageStart
      R13         REGSYM    ---      BYTE      bPageEnd
      WR14        REGSYM    ---      WORD      nInterval
      00FF13F3H   LINE      CODE     ---       #501
      00FF13F9H   LINE      CODE     ---       #503
      00FF13FCH   LINE      CODE     ---       #504
      00FF1402H   LINE      CODE     ---       #505
      00FF1408H   LINE      CODE     ---       #506
      00FF140EH   LINE      CODE     ---       #507
      00FF1414H   LINE      CODE     ---       #508
      00FF141AH   LINE      CODE     ---       #509
      00FF1425H   LINE      CODE     ---       #511
      00FF1428H   LINE      CODE     ---       #512
      ---         BLOCKEND  ---      ---       LVL=0

      00FF17CCH   BLOCK     CODE     ---       LVL=0
      00FF17CCH   LINE      CODE     ---       #514
      00FF17CCH   LINE      CODE     ---       #516
      00FF17CFH   LINE      CODE     ---       #517
      00FF17D5H   LINE      CODE     ---       #518
      00FF17DBH   LINE      CODE     ---       #519
      00FF17E1H   LINE      CODE     ---       #521
      ---         BLOCKEND  ---      ---       LVL=0

      00FF1902H   BLOCK     CODE     ---       LVL=0
      00FF1902H   LINE      CODE     ---       #524
      00FF1902H   LINE      CODE     ---       #526
      00FF1905H   LINE      CODE     ---       #527
      00FF190BH   LINE      CODE     ---       #528
      00FF1911H   LINE      CODE     ---       #529
      00FF1916H   LINE      CODE     ---       #531
      ---         BLOCKEND  ---      ---       LVL=0

      00FF0B24H   BLOCK     CODE     ---       LVL=0
      REG=3       REGSYM    ---      ---       dat
      00000087H   SYMBOL    EDATA    WORD      size
      00FF0B2CH   BLOCK     CODE     NEAR LAB  LVL=1
      00000089H   SYMBOL    EDATA    BYTE      cnt
      0000008AH   SYMBOL    EDATA    WORD      addr
      ---         BLOCKEND  ---      ---       LVL=1
      00FF0B24H   LINE      CODE     ---       #534
      00FF0B2CH   LINE      CODE     ---       #535
      00FF0B2CH   LINE      CODE     ---       #539
      00FF0B32H   LINE      CODE     ---       #540
      00FF0B34H   LINE      CODE     ---       #542
      00FF0B3AH   LINE      CODE     ---       #543
      00FF0B44H   LINE      CODE     ---       #544
      00FF0B48H   LINE      CODE     ---       #546
L251 LINKER/LOCATER V4.66.93.0                                                        07/09/2022  13:55:25  PAGE 39


      00FF0B4BH   LINE      CODE     ---       #547
      00FF0B59H   LINE      CODE     ---       #548
      00FF0B5FH   LINE      CODE     ---       #549
      00FF0B6EH   LINE      CODE     ---       #550
      00FF0B85H   LINE      CODE     ---       #552
      00FF0B88H   LINE      CODE     ---       #554
      00FF0B90H   LINE      CODE     ---       #555
      00FF0B9EH   LINE      CODE     ---       #556
      00FF0BA8H   LINE      CODE     ---       #557
      00FF0BB0H   LINE      CODE     ---       #558
      ---         BLOCKEND  ---      ---       LVL=0

      00FF1219H   BLOCK     CODE     ---       LVL=0
      R12         REGSYM    ---      BYTE      x
      R13         REGSYM    ---      BYTE      y
      R14         REGSYM    ---      BYTE      cx
      R15         REGSYM    ---      BYTE      cy
      REG=7       REGSYM    ---      ---       dat
      00FF1219H   LINE      CODE     ---       #560
      00FF1223H   LINE      CODE     ---       #562
      00FF122AH   LINE      CODE     ---       #564
      00FF122DH   LINE      CODE     ---       #565
      00FF1233H   LINE      CODE     ---       #566
      00FF1239H   LINE      CODE     ---       #567
      00FF123FH   LINE      CODE     ---       #568
      00FF1245H   LINE      CODE     ---       #569
      00FF124BH   LINE      CODE     ---       #570
      00FF1251H   LINE      CODE     ---       #572
      00FF1254H   LINE      CODE     ---       #573
      ---         BLOCKEND  ---      ---       LVL=0

      ---         MODULE    ---      ---       usb_desc
      00FF0D59H   PUBLIC    CODE     ---       PRODUCTDESC
      00FF0D73H   PUBLIC    CODE     ---       LANGIDDESC
      00FF0D77H   PUBLIC    CODE     ---       DEVICEDESC
      00FF0D89H   PUBLIC    CODE     ---       HIDREPORTDESC
      00FF0DA4H   PUBLIC    CODE     ---       CONFIGDESC
      00FF0DCDH   PUBLIC    CODE     ---       PACKET0
      00FF0DCFH   PUBLIC    CODE     ---       PACKET1
      00FF0DD1H   PUBLIC    CODE     ---       MANUFACTDESC
      000000D0H   SFRSYM    DATA     BYTE      PSW
      0000009DH   SFRSYM    DATA     BYTE      IRCBAND
      00000097H   SFRSYM    DATA     BYTE      AUXR2
      000000EFH   SFRSYM    DATA     BYTE      AUXINTIF
      000000FDH   SFRSYM    DATA     BYTE      S4CON
      000000ACH   SFRSYM    DATA     BYTE      S3CON
      0000009AH   SFRSYM    DATA     BYTE      S2CON
      000000B7H   SFRSYM    DATA     BYTE      IPH
      000000CDH   SFRSYM    DATA     BYTE      SPSTAT
      000000DDH   SFRSYM    DATA     BYTE      T4T3M
      000000C1H   SFRSYM    DATA     BYTE      WDT_CONTR
      000000DFH   SFRSYM    DATA     BYTE      IP3
      000000F4H   SFRSYM    DATA     BYTE      USBCON
      000000B5H   SFRSYM    DATA     BYTE      IP2
      000000FFH   SFRSYM    DATA     BYTE      RSTCFG
      000000F9H   SFRSYM    DATA     BYTE      LINICR
      0000008EH   SFRSYM    DATA     BYTE      AUXR
      000000AFH   SFRSYM    DATA     BYTE      IE2
      00000088H   SFRSYM    DATA     BYTE      TCON
      00000098H   SFRSYM    DATA     BYTE      SCON
      000000F1H   SFRSYM    DATA     BYTE      CANICR
      00000087H   SFRSYM    DATA     BYTE      PCON
      000000BCH   SFRSYM    DATA     BYTE      ADC_CONTR
      000000E7H   SFRSYM    DATA     BYTE      CMPCR2
      000000E6H   SFRSYM    DATA     BYTE      CMPCR1
L251 LINKER/LOCATER V4.66.93.0                                                        07/09/2022  13:55:25  PAGE 40


      000000B8H   SFRSYM    DATA     BYTE      IP
      0000008FH   SFRSYM    DATA     BYTE      INTCLKO
      000000EEH   SFRSYM    DATA     BYTE      IP3H
      000000B6H   SFRSYM    DATA     BYTE      IP2H
      000000A8H   SFRSYM    DATA     BYTE      IE
      000000BBH   SFRSYM    DATA     BYTE      P_SW3
      000000BAH   SFRSYM    DATA     BYTE      P_SW2
      000000A2H   SFRSYM    DATA     BYTE      P_SW1
      000000CEH   SFRSYM    DATA     BYTE      SPCTL
      000000F8H   SFRSYM    DATA     BYTE      P7
      000000E8H   SFRSYM    DATA     BYTE      P6
      000000C8H   SFRSYM    DATA     BYTE      P5
      000000C0H   SFRSYM    DATA     BYTE      P4
      000000B0H   SFRSYM    DATA     BYTE      P3
      000000A0H   SFRSYM    DATA     BYTE      P2
      00000090H   SFRSYM    DATA     BYTE      P1
      00000080H   SFRSYM    DATA     BYTE      P0

      ---         MODULE    ---      ---       VSPRINTF
      00000088H   PUBLIC    EDATA    ---       ?VSPRINTF?BYTE
      00FF00CEH   PUBLIC    CODE     NEAR LAB  VSPRINTF

      ---         MODULE    ---      ---       ?C?PRNFMT
      00FF0117H   PUBLIC    CODE     ---       ?C?PRNFMT

      ---         MODULE    ---      ---       ?C?FPCONVERT
      00FF0534H   PUBLIC    CODE     ---       ?C?FPCONVERT
      00FF05ECH   PUBLIC    CODE     ---       ?C?FPROUND

      ---         MODULE    ---      ---       ?C?FPMUL
      00FF062FH   PUBLIC    CODE     ---       ?C?FPMUL

      ---         MODULE    ---      ---       ?C?FPDIV
      00FF06CFH   PUBLIC    CODE     ---       ?C?FPDIV

      ---         MODULE    ---      ---       ?C?FTNPWR
      00FF0780H   PUBLIC    CODE     ---       ?C?FTNPWR

      ---         MODULE    ---      ---       ?C?FPGETOPN
      00FF07B7H   PUBLIC    CODE     ---       ?C?FPGETOPN2
      00FF07F4H   PUBLIC    CODE     ---       ?C?FPNANRESULT
      00FF07FCH   PUBLIC    CODE     ---       ?C?FPOVERFLOW
      00FF07D0H   PUBLIC    CODE     ---       ?C?FPRESULT
      00FF07E6H   PUBLIC    CODE     ---       ?C?FPRESULT2
      00FF07F9H   PUBLIC    CODE     ---       ?C?FPUNDERFLOW

      ---         MODULE    ---      ---       ?C_START
      00FF0000H   PUBLIC    CODE     ---       ?C?STARTUP
      00FF0000H   PUBLIC    CODE     ---       ?C_STARTUP

      ---         MODULE    ---      ---       ?C?INITEDATA
      00FF11AFH   PUBLIC    CODE     ---       ?C?INITEDATA

      ---         MODULE    ---      ---       ?C?LMUL
      00FF0808H   PUBLIC    CODE     ---       ?C?LMUL

      ---         MODULE    ---      ---       STRCMP?_
      00FF173AH   PUBLIC    CODE     NEAR LAB  STRCMP?_

      ---         MODULE    ---      ---       STRLEN
      00FF1A8DH   PUBLIC    CODE     ---       strlen?_

      ---         MODULE    ---      ---       memcpy
      00FF1679H   PUBLIC    CODE     ---       memcpy?_

L251 LINKER/LOCATER V4.66.93.0                                                        07/09/2022  13:55:25  PAGE 41


      ---         MODULE    ---      ---       ?C?INITEDATA_END
      00FF1AC3H   PUBLIC    HCONST   WORD      ?C?INITEDATA_END

Program Size: data=8.4 edata+hdata=401 xdata=192 const=39 code=6823
L251 RUN COMPLETE.  0 WARNING(S),  0 ERROR(S)
