L251 LINKER/LOCATER V4.66.93.0                                                          07/09/2022  13:57:45  PAGE 1


L251 LINKER/LOCATER V4.66.93.0, INVOKED BY:
C:\KEIL_V5\C251\BIN\L251.EXE main.obj, ..\COMM\stc_usb_hid_32g.LIB TO ADC CASE DISABLEWARNING (57) CLASSES (EDATA (0X0-0
>> XFFF), HDATA (0X0-0XFFF))


CPU MODE:     251 SOURCE MODE
INTR FRAME:   2 BYTES SAVED ON INTERRUPT
MEMORY MODEL: XSMALL WITH FLOATING POINT ARITHMETIC


INPUT MODULES INCLUDED:
  main.obj (main)
         COMMENT TYPE 0: C251 V5.60.0
  ..\COMM\stc_usb_hid_32g.LIB (usb)
         COMMENT TYPE 0: C251 V5.60.0
  ..\COMM\stc_usb_hid_32g.LIB (usb_req_class)
         COMMENT TYPE 0: C251 V5.60.0
  ..\COMM\stc_usb_hid_32g.LIB (usb_req_std)
         COMMENT TYPE 0: C251 V5.60.0
  ..\COMM\stc_usb_hid_32g.LIB (usb_req_vendor)
         COMMENT TYPE 0: C251 V5.60.0
  ..\COMM\stc_usb_hid_32g.LIB (util)
         COMMENT TYPE 0: C251 V5.60.0
  ..\COMM\stc_usb_hid_32g.LIB (usb_desc)
         COMMENT TYPE 0: C251 V5.60.0
  C:\KEIL_V5\C251\LIB\C2SFPXS.LIB (PRINTF)
         COMMENT TYPE 0: A251 V4.69.6.0
  C:\KEIL_V5\C251\LIB\C2SFPXS.LIB (VSPRINTF)
         COMMENT TYPE 0: A251 V4.69.6.0
  C:\KEIL_V5\C251\LIB\C2SFPXS.LIB (?C?PRNFMT)
         COMMENT TYPE 0: A251 V4.69.6.0
  C:\KEIL_V5\C251\LIB\C2SFPXS.LIB (?C?FPCONVERT)
         COMMENT TYPE 0: A251 V4.69.6.0
  C:\KEIL_V5\C251\LIB\C2SFPXS.LIB (?C?FPMUL)
         COMMENT TYPE 0: A251 V4.69.6.0
  C:\KEIL_V5\C251\LIB\C2SFPXS.LIB (?C?FPDIV)
         COMMENT TYPE 0: A251 V4.69.6.0
  C:\KEIL_V5\C251\LIB\C2SFPXS.LIB (?C?FTNPWR)
         COMMENT TYPE 0: A251 V4.69.6.0
  C:\KEIL_V5\C251\LIB\C2SFPXS.LIB (?C?FPGETOPN)
         COMMENT TYPE 0: A251 V4.69.6.0
  C:\KEIL_V5\C251\LIB\C2SXS.LIB (?C_START)
         COMMENT TYPE 0: A251 V4.69.6.0
  C:\KEIL_V5\C251\LIB\C2SXS.LIB (?C?INITEDATA)
         COMMENT TYPE 0: A251 V4.69.6.0
  C:\KEIL_V5\C251\LIB\C2SXS.LIB (?C?LMUL)
         COMMENT TYPE 0: A251 V4.69.6.0
  C:\KEIL_V5\C251\LIB\C2SXS.LIB (STRCMP?_)
         COMMENT TYPE 0: A251 V4.69.6.0
  C:\KEIL_V5\C251\LIB\C2SXS.LIB (STRLEN)
         COMMENT TYPE 0: C251 V5.58.7
  C:\KEIL_V5\C251\LIB\C2SXS.LIB (memcpy)
         COMMENT TYPE 0: C251 V5.58.7
  C:\KEIL_V5\C251\LIB\C2SXS.LIB (?C?INITEDATA_END)
         COMMENT TYPE 0: A251 V4.69.6.0


ACTIVE MEMORY CLASSES OF MODULE:  ADC (main)

BASE        START       END         USED      MEMORY CLASS
==========================================================
000000H     000000H     000FFFH     0001B9H   EDATA
000000H     000000H     000FFFH               HDATA
000000H     FF0000H     FFFFFFH     00005DH   HCONST
FF0000H     FF0000H     FFFFFFH     001BA1H   CODE
000020H.0   000020H.0   00002FH.7   000000H.4 BIT
L251 LINKER/LOCATER V4.66.93.0                                                        07/09/2022  13:57:45  PAGE 2


010000H     010000H     01FFFFH     0000C0H   XDATA
FF0000H     FF0000H     FFFFFFH     000004H   CONST
000000H     000000H     00007FH     000008H   DATA


MEMORY MAP OF MODULE:  ADC (main)


START     STOP      LENGTH    ALIGN  RELOC    MEMORY CLASS   SEGMENT NAME
=========================================================================
000000H   000007H   000008H   ---    AT..     DATA           "REG BANK 0"
000008H   000019H   000012H   BYTE   UNIT     EDATA          ?ED?USB
00001AH   00001EH   000005H   BYTE   UNIT     EDATA          ?ED?LCD12864_SETBUFFER?UTIL
00001FH   00001FH   000001H   BYTE   UNIT     EDATA          ?ED?USB_REQ_CLASS
000020H.0 000020H.2 000000H.3 BIT    UNIT     BIT            ?BI?USB
000020H.3 000020H.3 000000H.1 BIT    UNIT     BIT            ?BI?MAIN
000020H.4 000020H   000000H.4 ---    ---      **GAP**
000021H   00004CH   00002CH   BYTE   UNIT     EDATA          ?ED?SEG7_SHOWSTRING?UTIL
00004DH   000078H   00002CH   BYTE   UNIT     EDATA          ?ED?PRINTF_HID?UTIL
000079H   0000A4H   00002CH   BYTE   UNIT     EDATA          _EDATA_GROUP_
0000A5H   0000B2H   00000EH   BYTE   UNIT     EDATA          ?ED?MAIN
0000B3H   0000B7H   000005H   BYTE   UNIT     EDATA          ?ED?OLED12864_SETBUFFER?UTIL
0000B8H   0000BBH   000004H   BYTE   UNIT     EDATA          ?ED?SEG7_SHOWLONG?UTIL
0000BCH   0000BFH   000004H   BYTE   UNIT     EDATA          ?ED?VSPRINTF
0000C0H   0000C1H   000002H   BYTE   UNIT     EDATA          ?ED?LCD12864_SHOWSTRING?UTIL
0000C2H   0001C1H   000100H   BYTE   UNIT     EDATA          ?STACK
0001C2H   00FFFFH   00FE3EH   ---    ---      **GAP**
010000H   0100BFH   0000C0H   BYTE   INSEG    XDATA          ?XD?USB
0100C0H   FEFFFFH   FDFF40H   ---    ---      **GAP**
FF0000H   FF0002H   000003H   ---    OFFS..   CODE           ?CO?start251?4
FF0003H   FF0005H   000003H   BYTE   INSEG    CODE           ?PR?USB_GET_PROTOCOL?USB_REQ_CLASS
FF0006H   FF0008H   000003H   BYTE   INSEG    CODE           ?PR?USB_SET_PROTOCOL?USB_REQ_CLASS
FF0009H   FF0009H   000001H   BYTE   INSEG    CODE           ?PR?USB_SUSPEND?USB
FF000AH   FF000AH   000001H   BYTE   INSEG    CODE           ?PR?USB_RESUME?USB
FF000BH   FF000DH   000003H   ---    OFFS..   CODE           ?PR?IV?1
FF000EH   FF00BAH   0000ADH   BYTE   INSEG    CODE           ?PR?MAIN?MAIN
FF00BBH   FF00C8H   00000EH   BYTE   INSEG    CODE           ?PR?TIMER0_INIT?MAIN
FF00C9H   FF00CAH   000002H   ---    ---      **GAP**
FF00CBH   FF00CDH   000003H   ---    OFFS..   CODE           ?PR?IV?25
FF00CEH   FF0844H   000777H   BYTE   UNIT     CODE           ?C?LIB_CODE
FF0845H   FF0943H   0000FFH   BYTE   INSEG    CODE           ?PR?USB_GET_STATUS?USB_REQ_STD
FF0944H   FF0A1FH   0000DCH   BYTE   INSEG    CODE           ?PR?USB_GET_DESCRIPTOR?USB_REQ_STD
FF0A20H   FF0ABAH   00009BH   BYTE   INSEG    CODE           ?PR?USB_CLEAR_FEATURE?USB_REQ_STD
FF0ABBH   FF0B4FH   000095H   BYTE   INSEG    CODE           ?PR?USB_SET_FEATURE?USB_REQ_STD
FF0B50H   FF0BDEH   00008FH   BYTE   INSEG    CODE           ?PR?OLED12864_SETBUFFER?UTIL
FF0BDFH   FF0C6DH   00008FH   BYTE   INSEG    CODE           ?PR?LCD12864_SETBUFFER?UTIL
FF0C6EH   FF0CFAH   00008DH   BYTE   INSEG    CODE           ?PR?USB_SET_CONFIGURATION?USB_REQ_STD
FF0CFBH   FF0D84H   00008AH   BYTE   INSEG    CODE           ?PR?USB_SETUP?USB
FF0D85H   FF0E04H   000080H   BYTE   UNIT     CODE           ?CO?USB_DESC
FF0E05H   FF0E80H   00007CH   BYTE   INSEG    CODE           ?PR?USB_OUT_EP1?USB
FF0E81H   FF0EFAH   00007AH   BYTE   INSEG    CODE           ?PR?USB_ISR?USB
FF0EFBH   FF0F61H   000067H   BYTE   INSEG    CODE           ?PR?USB_CTRL_IN?USB
FF0F62H   FF0FBDH   00005CH   BYTE   INSEG    CODE           ?PR?USB_REQ_STD?USB_REQ_STD
FF0FBEH   FF1013H   000056H   BYTE   INSEG    CODE           ?PR?USB_CTRL_OUT?USB
FF1014H   FF1067H   000054H   BYTE   INSEG    CODE           ?PR?USB_GET_CONFIGURATION?USB_REQ_STD
FF1068H   FF10B8H   000051H   BYTE   INSEG    CODE           ?PR?ADC_CONVERT?MAIN
FF10B9H   FF1105H   00004DH   BYTE   INSEG    CODE           ?PR?LCD12864_SHOWPICTURE?UTIL
FF1106H   FF1150H   00004BH   BYTE   INSEG    CODE           ?PR?USB_INIT?USB
FF1151H   FF119AH   00004AH   BYTE   INSEG    CODE           ?PR?USB_SET_ADDRESS?USB_REQ_STD
FF119BH   FF11DFH   000045H   BYTE   INSEG    CODE           ?PR?SEG7_SHOWSTRING?UTIL
FF11E0H   FF11F2H   000013H   BYTE   UNIT     CODE           ?C_C51STARTUP
FF11F3H   FF121BH   000029H   BYTE   UNIT     CODE           ?C_C51STARTUP?2
FF121CH   FF121EH   000003H   BYTE   UNIT     CODE           ?C_C51STARTUP?3
FF121FH   FF125CH   00003EH   BYTE   INSEG    CODE           ?PR?USB_GET_INTERFACE?USB_REQ_STD
FF125DH   FF129AH   00003EH   BYTE   INSEG    CODE           ?PR?OLED12864_SHOWPICTURE?UTIL
L251 LINKER/LOCATER V4.66.93.0                                                        07/09/2022  13:57:45  PAGE 3


FF129BH   FF12D8H   00003EH   BYTE   INSEG    CODE           ?PR?LED40_SENDDATA?UTIL
FF12D9H   FF1316H   00003EH   BYTE   INSEG    CODE           ?PR?LED64_SENDDATA?UTIL
FF1317H   FF1353H   00003DH   BYTE   INSEG    CODE           ?PR?KEYRESETSCAN?MAIN
FF1354H   FF138EH   00003BH   BYTE   INSEG    CODE           ?PR?SEG7_SHOWLONG?UTIL
FF138FH   FF13C9H   00003BH   BYTE   INSEG    CODE           ?PR?LCD12864_SHOWSTRING?UTIL
FF13CAH   FF1403H   00003AH   BYTE   INSEG    CODE           ?PR?USB_READ_FIFO?_?USB
FF1404H   FF143BH   000038H   BYTE   INSEG    CODE           ?PR?USB_RESET?USB
FF143CH   FF1473H   000038H   BYTE   INSEG    CODE           ?PR?OLED12864_SCROLLRIGHT?UTIL
FF1474H   FF14ABH   000038H   BYTE   INSEG    CODE           ?PR?OLED12864_SCROLLUP?UTIL
FF14ACH   FF14E2H   000037H   BYTE   INSEG    CODE           ?PR?OLED12864_SCROLLLEFT?UTIL
FF14E3H   FF1518H   000036H   BYTE   INSEG    CODE           ?PR?TIMER0_INT?MAIN
FF1519H   FF154DH   000035H   BYTE   INSEG    CODE           ?PR?REVERSE2?UTIL
FF154EH   FF1580H   000033H   BYTE   INSEG    CODE           ?PR?SEG7_SHOWCODE?UTIL
FF1581H   FF15B1H   000031H   BYTE   INSEG    CODE           ?PR?SEG7_SHOWFLOAT?UTIL
FF15B2H   FF15E0H   00002FH   BYTE   INSEG    CODE           ?PR?PRINTF_HID?UTIL
FF15E1H   FF160EH   00002EH   BYTE   INSEG    CODE           ?PR?USB_REQ_CLASS?USB_REQ_CLASS
FF160FH   FF163BH   00002DH   BYTE   INSEG    CODE           ?PR?GET_ADC12BITRESULT?MAIN
FF163CH   FF1668H   00002DH   BYTE   INSEG    CODE           ?PR?USB_IN_EP1?USB
FF1669H   FF1692H   00002AH   BYTE   INSEG    CODE           ?PR?USB_GET_REPORT?USB_REQ_CLASS
FF1693H   FF16BCH   00002AH   BYTE   INSEG    CODE           ?PR?USB_SET_REPORT?USB_REQ_CLASS
FF16BDH   FF16E5H   000029H   BYTE   INSEG    CODE           ?PR?USB_IN?USB
FF16E6H   FF170EH   000029H   BYTE   INSEG    CODE           ?PR?USB_WRITE_FIFO?_?USB
FF170FH   FF1736H   000028H   BYTE   INSEG    CODE           ?PR?USB_SET_INTERFACE?USB_REQ_STD
FF1737H   FF175CH   000026H   BYTE   INSEG    CODE           ?PR?USB_GET_IDLE?USB_REQ_CLASS
FF175DH   FF1781H   000025H   BYTE   INSEG    CODE           ?PR?LCD12864_SCROLLUP?UTIL
FF1782H   FF17A6H   000025H   BYTE   INSEG    CODE           ?PR?MEMCPY?_?MEMCPY
FF17A7H   FF17C5H   00001FH   BYTE   INSEG    CODE           ?PR?OLED12864_SETADDRESSMODE?UTIL
FF17C6H   FF17E4H   00001FH   BYTE   INSEG    CODE           ?PR?OLED12864_SETCONTRAST?UTIL
FF17E5H   FF1803H   00001FH   BYTE   INSEG    CODE           ?PR?LCD12864_REVERSELINE?UTIL
FF1804H   FF1821H   00001EH   BYTE   INSEG    CODE           ?PR?USB_SET_IDLE?USB_REQ_CLASS
FF1822H   FF183EH   00001DH   BYTE   INSEG    CODE           ?PR?SLEEP_US?UTIL
FF183FH   FF1858H   00001AH   BYTE   UNIT     CODE           ?PR?STRCMP?_
FF1859H   FF1871H   000019H   BYTE   INSEG    CODE           ?PR?USB_BULK_INTR_OUT?USB
FF1872H   FF188AH   000019H   BYTE   INSEG    CODE           ?PR?OLED12864_SETHEADER?UTIL
FF188BH   FF18A3H   000019H   BYTE   INSEG    CODE           ?PR?LCD12864_SETHEADER?UTIL
FF18A4H   FF18BCH   000019H   BYTE   INSEG    CODE           ?PR?SEG7_SETHEADER?UTIL
FF18BDH   FF18D4H   000018H   BYTE   INSEG    CODE           ?PR?USB_OUT_DONE?USB
FF18D5H   FF18ECH   000018H   BYTE   INSEG    CODE           ?PR?OLED12864_SCROLLSTART?UTIL
FF18EDH   FF1904H   000018H   BYTE   INSEG    CODE           ?PR?OLED12864_DISPLAYON?UTIL
FF1905H   FF191CH   000018H   BYTE   INSEG    CODE           ?PR?LCD12864_SCROLLRIGHT?UTIL
FF191DH   FF1934H   000018H   BYTE   INSEG    CODE           ?PR?LCD12864_AUTOWRAPON?UTIL
FF1935H   FF194CH   000018H   BYTE   INSEG    CODE           ?PR?OLED12864_VERTICALMIRROR?UTIL
FF194DH   FF1964H   000018H   BYTE   INSEG    CODE           ?PR?LCD12864_CURSORRETURNHOME?UTIL
FF1965H   FF197CH   000018H   BYTE   INSEG    CODE           ?PR?OLED12864_DISPLAYENTIRE?UTIL
FF197DH   FF1994H   000018H   BYTE   INSEG    CODE           ?PR?LCD12864_DISPLAYON?UTIL
FF1995H   FF19ACH   000018H   BYTE   INSEG    CODE           ?PR?LCD12864_CURSORMOVERIGHT?UTIL
FF19ADH   FF19C4H   000018H   BYTE   INSEG    CODE           ?PR?SLEEP_MS?UTIL
FF19C5H   FF19DCH   000018H   BYTE   INSEG    CODE           ?PR?LCD12864_CURSORON?UTIL
FF19DDH   FF19F3H   000017H   BYTE   INSEG    CODE           ?PR?OLED12864_DISPLAYOFF?UTIL
FF19F4H   FF1A0AH   000017H   BYTE   INSEG    CODE           ?PR?LCD12864_AUTOWRAPOFF?UTIL
FF1A0BH   FF1A21H   000017H   BYTE   INSEG    CODE           ?PR?OLED12864_SCROLLSTOP?UTIL
FF1A22H   FF1A38H   000017H   BYTE   INSEG    CODE           ?PR?LCD12864_DISPLAYOFF?UTIL
FF1A39H   FF1A4FH   000017H   BYTE   INSEG    CODE           ?PR?LCD12864_SCROLLLEFT?UTIL
FF1A50H   FF1A66H   000017H   BYTE   INSEG    CODE           ?PR?OLED12864_HORIZONTALMIRROR?UTIL
FF1A67H   FF1A7DH   000017H   BYTE   INSEG    CODE           ?PR?OLED12864_DISPLAYCONTENT?UTIL
FF1A7EH   FF1A94H   000017H   BYTE   INSEG    CODE           ?PR?LCD12864_CURSOROFF?UTIL
FF1A95H   FF1AABH   000017H   BYTE   INSEG    CODE           ?PR?LCD12864_CURSORMOVELEFT?UTIL
FF1AACH   FF1AC1H   000016H   BYTE   INSEG    CODE           ?PR?DELAY_MS?MAIN
FF1AC2H   FF1AD6H   000015H   BYTE   INSEG    CODE           ?PR?UARTINIT?MAIN
FF1AD7H   FF1AEBH   000015H   BYTE   INSEG    CODE           ?PR?USB_BULK_INTR_IN?USB
FF1AECH   FF1B00H   000015H   BYTE   INSEG    CODE           ?PR?USB_READ_REG?USB
FF1B01H   FF1B13H   000013H   BYTE   INSEG    CODE           ?PR?USB_WRITE_REG?USB
FF1B14H   FF1B25H   000012H   BYTE   INSEG    CODE           ?PR?LCD12864_DISPLAYCLEAR?UTIL
FF1B26H   FF1B37H   000012H   BYTE   INSEG    CODE           ?PR?OLED12864_DISPLAYREVERSE?UTIL
FF1B38H   FF1B48H   000011H   BYTE   INSEG    CODE           ?PR?USB_SETUP_IN?USB
L251 LINKER/LOCATER V4.66.93.0                                                        07/09/2022  13:57:45  PAGE 4


FF1B49H   FF1B56H   00000EH   BYTE   INSEG    CODE           ?PR?UARTPUTC?MAIN
FF1B57H   FF1B64H   00000EH   BYTE   INSEG    CODE           ?PR?USB_SETUP_OUT?USB
FF1B65H   FF1B72H   00000EH   BYTE   INSEG    CODE           ?PR?USB_SETUP_STALL?USB
FF1B73H   FF1B80H   00000EH   BYTE   INSEG    CODE           ?PR?STRLEN?_?STRLEN
FF1B81H   FF1B8DH   00000DH   BYTE   INSEG    CODE           ?PR?USB_SETUP_STATUS?USB
FF1B8EH   FF1B99H   00000CH   BYTE   INSEG    CODE           ?PR?PUTCHAR?MAIN
FF1B9AH   FF1B9CH   000003H   BYTE   INSEG    CODE           ?PR?USB_SET_DESCRIPTOR?USB_REQ_STD
FF1B9DH   FF1B9FH   000003H   BYTE   INSEG    CODE           ?PR?USB_SYNCH_FRAME?USB_REQ_STD
FF1BA0H   FF1BA2H   000003H   BYTE   INSEG    CODE           ?PR?USB_REQ_VENDOR?USB_REQ_VENDOR
FF1BA3H   FF1BA6H   000004H   BYTE   UNIT     CONST          ?CO?PRINTF
FF1BA7H   FF1BE9H   000043H   BYTE   UNIT     HCONST         ?HC?MAIN
FF1BEAH   FF1C03H   00001AH   BYTE   UNIT     HCONST         ?C_INITEDATA



OVERLAY MAP OF MODULE:   ADC (main)


FUNCTION/MODULE                        EDATA_GROUP
--> CALLED FUNCTION/MODULE             START  STOP
==================================================
timer0_int/main                        ----- -----
  +--> usb_OUT_done/usb
  +--> KeyResetScan/main

usb_OUT_done/usb                       ----- -----
  +--> usb_write_reg/usb

usb_write_reg/usb                      ----- -----

KeyResetScan/main                      ----- -----
  +--> delay_ms/main

delay_ms/main                          ----- -----

*** NEW ROOT *************************

usb_isr/usb                            ----- -----
  +--> usb_read_reg/usb
  +--> usb_resume/usb
  +--> usb_reset/usb
  +--> usb_setup/usb
  +--> usb_in_ep1/usb
  +--> usb_out_ep1/usb
  +--> usb_suspend/usb

usb_read_reg/usb                       ----- -----

usb_resume/usb                         ----- -----

usb_reset/usb                          ----- -----
  +--> usb_write_reg/usb

usb_setup/usb                          ----- -----
  +--> usb_write_reg/usb
  +--> usb_read_reg/usb
  +--> usb_read_fifo?_/usb
  +--> reverse2/util
  +--> usb_req_std/usb_req_std
  +--> usb_req_class/usb_req_class
  +--> usb_req_vendor/usb_req_vendor
  +--> usb_setup_stall/usb
  +--> usb_ctrl_in/usb
  +--> usb_ctrl_out/usb

L251 LINKER/LOCATER V4.66.93.0                                                        07/09/2022  13:57:45  PAGE 5


usb_read_fifo?_/usb                    ----- -----
  +--> usb_read_reg/usb

reverse2/util                          0079H 007CH

usb_req_std/usb_req_std                ----- -----
  +--> usb_get_status/usb_req_std
  +--> usb_clear_feature/usb_req_std
  +--> usb_set_feature/usb_req_std
  +--> usb_set_address/usb_req_std
  +--> usb_get_descriptor/usb_req_std
  +--> usb_set_descriptor/usb_req_std
  +--> usb_get_configuration/usb_req_std
  +--> usb_set_configuration/usb_req_std
  +--> usb_get_interface/usb_req_std
  +--> usb_set_interface/usb_req_std
  +--> usb_synch_frame/usb_req_std
  +--> usb_setup_stall/usb

usb_get_status/usb_req_std             ----- -----
  +--> usb_setup_stall/usb
  +--> usb_setup_in/usb

usb_setup_stall/usb                    ----- -----
  +--> usb_write_reg/usb

usb_setup_in/usb                       ----- -----
  +--> usb_write_reg/usb
  +--> usb_ctrl_in/usb

usb_ctrl_in/usb                        ----- -----
  +--> usb_write_reg/usb
  +--> usb_read_reg/usb
  +--> usb_write_fifo?_/usb

usb_write_fifo?_/usb                   ----- -----
  +--> usb_write_reg/usb

usb_clear_feature/usb_req_std          ----- -----
  +--> usb_write_reg/usb
  +--> usb_setup_stall/usb
  +--> usb_setup_status/usb

usb_setup_status/usb                   ----- -----
  +--> usb_write_reg/usb

usb_set_feature/usb_req_std            ----- -----
  +--> usb_write_reg/usb
  +--> usb_setup_stall/usb
  +--> usb_setup_status/usb

usb_set_address/usb_req_std            ----- -----
  +--> usb_setup_stall/usb
  +--> usb_write_reg/usb
  +--> usb_setup_status/usb

usb_get_descriptor/usb_req_std         ----- -----
  +--> usb_setup_stall/usb
  +--> usb_setup_in/usb

usb_set_descriptor/usb_req_std         ----- -----
  +--> usb_setup_stall/usb

usb_get_configuration/usb_req_std      ----- -----
  +--> usb_setup_stall/usb
L251 LINKER/LOCATER V4.66.93.0                                                        07/09/2022  13:57:45  PAGE 6


  +--> usb_setup_in/usb

usb_set_configuration/usb_req_std      ----- -----
  +--> usb_setup_stall/usb
  +--> usb_write_reg/usb
  +--> usb_setup_status/usb

usb_get_interface/usb_req_std          ----- -----
  +--> usb_setup_stall/usb
  +--> usb_setup_in/usb

usb_set_interface/usb_req_std          ----- -----
  +--> usb_setup_stall/usb
  +--> usb_setup_status/usb

usb_synch_frame/usb_req_std            ----- -----
  +--> usb_setup_stall/usb

usb_req_class/usb_req_class            ----- -----
  +--> usb_get_report/usb_req_class
  +--> usb_set_report/usb_req_class
  +--> usb_get_idle/usb_req_class
  +--> usb_set_idle/usb_req_class
  +--> usb_get_protocol/usb_req_class
  +--> usb_set_protocol/usb_req_class
  +--> usb_setup_stall/usb

usb_get_report/usb_req_class           ----- -----
  +--> usb_setup_stall/usb
  +--> usb_setup_in/usb

usb_set_report/usb_req_class           ----- -----
  +--> usb_setup_stall/usb
  +--> usb_setup_out/usb

usb_setup_out/usb                      ----- -----
  +--> usb_write_reg/usb

usb_get_idle/usb_req_class             ----- -----
  +--> usb_setup_stall/usb
  +--> usb_setup_in/usb

usb_set_idle/usb_req_class             ----- -----
  +--> usb_setup_stall/usb
  +--> usb_setup_status/usb

usb_get_protocol/usb_req_class         ----- -----
  +--> usb_setup_stall/usb

usb_set_protocol/usb_req_class         ----- -----
  +--> usb_setup_stall/usb

usb_req_vendor/usb_req_vendor          ----- -----
  +--> usb_setup_stall/usb

usb_ctrl_out/usb                       ----- -----
  +--> usb_write_reg/usb
  +--> usb_read_reg/usb
  +--> usb_read_fifo?_/usb

usb_in_ep1/usb                         ----- -----
  +--> usb_write_reg/usb
  +--> usb_read_reg/usb

usb_out_ep1/usb                        ----- -----
L251 LINKER/LOCATER V4.66.93.0                                                        07/09/2022  13:57:45  PAGE 7


  +--> usb_write_reg/usb
  +--> usb_read_reg/usb
  +--> usb_bulk_intr_out/usb
  +--> usb_read_fifo?_/usb
  +--> STRCMP?_/STRCMP?_
  +--> sleep_ms/util

usb_bulk_intr_out/usb                  ----- -----
  +--> usb_read_fifo?_/usb
  +--> usb_write_reg/usb

STRCMP?_/STRCMP?_                      ----- -----

sleep_ms/util                          ----- -----
  +--> sleep_us/util

sleep_us/util                          ----- -----

usb_suspend/usb                        ----- -----

*** NEW ROOT *************************

?C_C51STARTUP                          ----- -----

*** NEW ROOT *************************

?C_C51STARTUP?3                        ----- -----
  +--> main/main

main/main                              ----- -----
  +--> usb_init/usb
  +--> Timer0_Init/main
  +--> UartInit/main
  +--> PRINTF/PRINTF
  +--> delay_ms/main
  +--> ADC_convert/main

usb_init/usb                           ----- -----
  +--> usb_write_reg/usb

Timer0_Init/main                       ----- -----

UartInit/main                          ----- -----

PRINTF/PRINTF                          007DH 00A4H
  +--> OUT/PRINTF

OUT/PRINTF                             ----- -----
  +--> PUTCH/PRINTF

PUTCH/PRINTF                           ----- -----
  +--> putchar/main
  +--> OUT/PRINTF

putchar/main                           ----- -----
  +--> UartPutc/main

UartPutc/main                          ----- -----

ADC_convert/main                       ----- -----
  +--> Get_ADC12bitResult/main
  +--> PRINTF/PRINTF

Get_ADC12bitResult/main                ----- -----

L251 LINKER/LOCATER V4.66.93.0                                                        07/09/2022  13:57:45  PAGE 8


*** NEW ROOT *************************

?C_C51STARTUP?2                        ----- -----



PUBLIC SYMBOLS OF MODULE:  ADC (main)


      VALUE       CLASS    TYPE      PUBLIC SYMBOL NAME
      =================================================
      000000FFH   NUMBER   ---       ?C?CODESEG
      00FF0560H   CODE     ---       ?C?FPCONVERT
      00FF06FBH   CODE     ---       ?C?FPDIV
      00FF07E3H   CODE     ---       ?C?FPGETOPN2
      00FF065BH   CODE     ---       ?C?FPMUL
      00FF0820H   CODE     ---       ?C?FPNANRESULT
      00FF0828H   CODE     ---       ?C?FPOVERFLOW
      00FF07FCH   CODE     ---       ?C?FPRESULT
      00FF0812H   CODE     ---       ?C?FPRESULT2
      00FF0618H   CODE     ---       ?C?FPROUND
      00FF0825H   CODE     ---       ?C?FPUNDERFLOW
      00FF07ACH   CODE     ---       ?C?FTNPWR
      00FF11F3H   CODE     ---       ?C?INITEDATA
      00FF1C02H   HCONST   WORD      ?C?INITEDATA_END
      00FF0834H   CODE     ---       ?C?LMUL
      00FF0143H   CODE     ---       ?C?PRNFMT
      00FF0000H   CODE     ---       ?C?STARTUP
      00000001H   NUMBER   ---       ?C?XDATASEG
      00FF0000H   CODE     ---       ?C_STARTUP
      000000A5H   EDATA    ---       ?printf?BYTE
      00000075H   EDATA    BYTE      ?printf_hid?BYTE
      00000049H   EDATA    BYTE      ?SEG7_ShowString?BYTE
      000000B4H   EDATA    ---       ?vsprintf?BYTE
*SFR* 000000BCH   DATA     BYTE      ADC_CONTR
      00FF1068H   CODE     ---       ADC_convert
*SFR* 000000BCH.5 DATA     BIT       ADC_FLAG
*SFR* 000000BDH   DATA     BYTE      ADC_RES
*SFR* 000000BEH   DATA     BYTE      ADC_RESL
*SFR* 000000BCH.6 DATA     BIT       ADC_START
*SFR* 000000DEH   DATA     BYTE      ADCCFG
*SFR* 000000EFH   DATA     BYTE      AUXINTIF
*SFR* 0000008EH   DATA     BYTE      AUXR
*SFR* 00000097H   DATA     BYTE      AUXR2
      0000001FH   EDATA    BYTE      bHidIdle
      00000020H.1 BIT      BIT       bUsbFeatureReady
      00000020H.2 BIT      BIT       bUsbInBusy
      00000020H.0 BIT      BIT       bUsbOutReady
*SFR* 000000F1H   DATA     BYTE      CANICR
*SFR* 000000EAH   DATA     BYTE      CKCON
*SFR* 000000E6H   DATA     BYTE      CMPCR1
*SFR* 000000E7H   DATA     BYTE      CMPCR2
      00FF0DD0H   CODE     ---       CONFIGDESC
      00FF1AACH   CODE     ---       delay_ms
      00FF0DA3H   CODE     ---       DEVICEDESC
      00000010H   EDATA    BYTE      DeviceState
*SFR* 000000A8H.7 DATA     BIT       EA
*SFR* 000000BAH.7 DATA     BIT       EAXFR
      00000011H   EDATA    ---       Ep0State
*SFR* 000000A8H.1 DATA     BIT       ET0
*SFR* 000000AFH.7 DATA     BIT       EUSB
      00FF160FH   CODE     ---       Get_ADC12bitResult
      00FF0DB5H   CODE     ---       HIDREPORTDESC
*SFR* 000000C7H   DATA     BYTE      IAP_CONTR
*SFR* 000000A8H   DATA     BYTE      IE
L251 LINKER/LOCATER V4.66.93.0                                                        07/09/2022  13:57:45  PAGE 9


*SFR* 000000AFH   DATA     BYTE      IE2
      00000018H   EDATA    BYTE      InEpState
*SFR* 0000008FH   DATA     BYTE      INTCLKO
*SFR* 000000B8H   DATA     BYTE      IP
*SFR* 000000B5H   DATA     BYTE      IP2
*SFR* 000000B6H   DATA     BYTE      IP2H
*SFR* 000000DFH   DATA     BYTE      IP3
*SFR* 000000EEH   DATA     BYTE      IP3H
*SFR* 000000B7H   DATA     BYTE      IPH
*SFR* 0000009DH   DATA     BYTE      IRCBAND
      000000A9H   EDATA    WORD      Key_cnt
      00000020H.3 BIT      BIT       Key_Flag
      00FF1317H   CODE     ---       KeyResetScan
      00FF0D9FH   CODE     ---       LANGIDDESC
      00FF19F4H   CODE     ---       LCD12864_AutoWrapOff
      00FF191DH   CODE     ---       LCD12864_AutoWrapOn
      00FF1A95H   CODE     ---       LCD12864_CursorMoveLeft
      00FF1995H   CODE     ---       LCD12864_CursorMoveRight
      00FF1A7EH   CODE     ---       LCD12864_CursorOff
      00FF19C5H   CODE     ---       LCD12864_CursorOn
      00FF194DH   CODE     ---       LCD12864_CursorReturnHome
      00FF1B14H   CODE     ---       LCD12864_DisplayClear
      00FF1A22H   CODE     ---       LCD12864_DisplayOff
      00FF197DH   CODE     ---       LCD12864_DisplayOn
      00FF17E5H   CODE     ---       LCD12864_ReverseLine
      00FF1A39H   CODE     ---       LCD12864_ScrollLeft
      00FF1905H   CODE     ---       LCD12864_ScrollRight
      00FF175DH   CODE     ---       LCD12864_ScrollUp
      00FF10B9H   CODE     ---       LCD12864_ShowPicture
      00FF138FH   CODE     ---       LCD12864_ShowString
      00FF129BH   CODE     ---       LED40_SendData
      00FF12D9H   CODE     ---       LED64_SendData
*SFR* 000000F9H   DATA     BYTE      LINICR
      00FF000EH   CODE     ---       main
      00FF0DFDH   CODE     ---       MANUFACTDESC
      00FF1782H   CODE     ---       memcpy?_
      00FF1A67H   CODE     ---       OLED12864_DisplayContent
      00FF1965H   CODE     ---       OLED12864_DisplayEntire
      00FF19DDH   CODE     ---       OLED12864_DisplayOff
      00FF18EDH   CODE     ---       OLED12864_DisplayOn
      00FF1B26H   CODE     ---       OLED12864_DisplayReverse
      00FF1A50H   CODE     ---       OLED12864_HorizontalMirror
      00FF14ACH   CODE     ---       OLED12864_ScrollLeft
      00FF143CH   CODE     ---       OLED12864_ScrollRight
      00FF18D5H   CODE     ---       OLED12864_ScrollStart
      00FF1A0BH   CODE     ---       OLED12864_ScrollStop
      00FF1474H   CODE     ---       OLED12864_ScrollUp
      00FF17A7H   CODE     ---       OLED12864_SetAddressMode
      00FF17C6H   CODE     ---       OLED12864_SetContrast
      00FF125DH   CODE     ---       OLED12864_ShowPicture
      00FF1935H   CODE     ---       OLED12864_VerticalMirror
      00000019H   EDATA    BYTE      OutEpState
*SFR* 00000080H   DATA     BYTE      P0
*SFR* 00000094H   DATA     BYTE      P0M0
*SFR* 00000093H   DATA     BYTE      P0M1
*SFR* 00000090H   DATA     BYTE      P1
*SFR* 00000092H   DATA     BYTE      P1M0
*SFR* 00000091H   DATA     BYTE      P1M1
*SFR* 000000A0H   DATA     BYTE      P2
*SFR* 00000096H   DATA     BYTE      P2M0
*SFR* 00000095H   DATA     BYTE      P2M1
*SFR* 000000B0H   DATA     BYTE      P3
*SFR* 000000B0H.2 DATA     BIT       P32
*SFR* 000000B2H   DATA     BYTE      P3M0
*SFR* 000000B1H   DATA     BYTE      P3M1
L251 LINKER/LOCATER V4.66.93.0                                                        07/09/2022  13:57:45  PAGE 10


*SFR* 000000C0H   DATA     BYTE      P4
*SFR* 000000B4H   DATA     BYTE      P4M0
*SFR* 000000B3H   DATA     BYTE      P4M1
*SFR* 000000C8H   DATA     BYTE      P5
*SFR* 000000CAH   DATA     BYTE      P5M0
*SFR* 000000C9H   DATA     BYTE      P5M1
*SFR* 000000E8H   DATA     BYTE      P6
*SFR* 000000CCH   DATA     BYTE      P6M0
*SFR* 000000CBH   DATA     BYTE      P6M1
*SFR* 000000F8H   DATA     BYTE      P7
*SFR* 000000E2H   DATA     BYTE      P7M0
*SFR* 000000E1H   DATA     BYTE      P7M1
*SFR* 000000A2H   DATA     BYTE      P_SW1
*SFR* 000000BAH   DATA     BYTE      P_SW2
*SFR* 000000BBH   DATA     BYTE      P_SW3
      00FF0DF9H   CODE     ---       PACKET0
      00FF0DFBH   CODE     ---       PACKET1
*SFR* 00000087H   DATA     BYTE      PCON
      00FF00CEH   CODE     NEAR LAB  printf
      00FF15B2H   CODE     ---       printf_hid
      00FF0D85H   CODE     ---       PRODUCTDESC
*SFR* 000000D0H   DATA     BYTE      PSW
      00FF1B8EH   CODE     ---       putchar
      00FF1519H   CODE     ---       reverse2
*SFR* 000000FFH   DATA     BYTE      RSTCFG
*SFR* 000000BAH.0 DATA     BIT       S2_S
*SFR* 0000009BH   DATA     BYTE      S2BUF
*SFR* 0000009AH   DATA     BYTE      S2CON
*SFR* 0000009AH.1 DATA     BIT       S2TI
*SFR* 000000ACH   DATA     BYTE      S3CON
*SFR* 000000FDH   DATA     BYTE      S4CON
*SFR* 00000098H   DATA     BYTE      SCON
      00FF154EH   CODE     ---       SEG7_ShowCode
      00FF1581H   CODE     ---       SEG7_ShowFloat
      00FF1354H   CODE     ---       SEG7_ShowLong
      00FF119BH   CODE     ---       SEG7_ShowString
      00000008H   EDATA    ---       Setup
      00FF19ADH   CODE     ---       sleep_ms
      00FF1822H   CODE     ---       sleep_us
*SFR* 000000CEH   DATA     BYTE      SPCTL
*SFR* 000000CDH   DATA     BYTE      SPSTAT
      00FF1843H   CODE     NEAR LAB  strcmp?_
      00FF1B73H   CODE     ---       strlen?_
*SFR* 000000D6H   DATA     BYTE      T2H
*SFR* 000000D7H   DATA     BYTE      T2L
*SFR* 000000DDH   DATA     BYTE      T4T3M
*SFR* 00000088H   DATA     BYTE      TCON
*SFR* 0000008CH   DATA     BYTE      TH0
      00FF00BBH   CODE     ---       Timer0_Init
      00FF14E3H   CODE     ---       timer0_int
*SFR* 0000008AH   DATA     BYTE      TL0
*SFR* 00000089H   DATA     BYTE      TMOD
*SFR* 00000088H.4 DATA     BIT       TR0
      00FF1AC2H   CODE     ---       UartInit
      00FF1B49H   CODE     ---       UartPutc
      00FF1AD7H   CODE     ---       usb_bulk_intr_in
      00FF1859H   CODE     ---       usb_bulk_intr_out
      00FF0A20H   CODE     ---       usb_clear_feature
      00FF0EFBH   CODE     ---       usb_ctrl_in
      00FF0FBEH   CODE     ---       usb_ctrl_out
      00FF1014H   CODE     ---       usb_get_configuration
      00FF0944H   CODE     ---       usb_get_descriptor
      00FF1737H   CODE     ---       usb_get_idle
      00FF121FH   CODE     ---       usb_get_interface
      00FF0003H   CODE     ---       usb_get_protocol
L251 LINKER/LOCATER V4.66.93.0                                                        07/09/2022  13:57:45  PAGE 11


      00FF1669H   CODE     ---       usb_get_report
      00FF0845H   CODE     ---       usb_get_status
      00FF16BDH   CODE     ---       usb_IN
      00FF163CH   CODE     ---       usb_in_ep1
      00FF1106H   CODE     ---       usb_init
      00FF0E81H   CODE     ---       usb_isr
      00FF18BDH   CODE     ---       usb_OUT_done
      00FF0E05H   CODE     ---       usb_out_ep1
      00FF13CAH   CODE     ---       usb_read_fifo?_
      00FF1AECH   CODE     ---       usb_read_reg
      00FF15E1H   CODE     ---       usb_req_class
      00FF0F62H   CODE     ---       usb_req_std
      00FF1BA0H   CODE     ---       usb_req_vendor
      00FF1404H   CODE     ---       usb_reset
      00FF000AH   CODE     ---       usb_resume
      00FF1151H   CODE     ---       usb_set_address
      00FF0C6EH   CODE     ---       usb_set_configuration
      00FF1B9AH   CODE     ---       usb_set_descriptor
      00FF0ABBH   CODE     ---       usb_set_feature
      00FF1804H   CODE     ---       usb_set_idle
      00FF170FH   CODE     ---       usb_set_interface
      00FF0006H   CODE     ---       usb_set_protocol
      00FF1693H   CODE     ---       usb_set_report
      00FF0CFBH   CODE     ---       usb_setup
      00FF1B38H   CODE     ---       usb_setup_in
      00FF1B57H   CODE     ---       usb_setup_out
      00FF1B65H   CODE     ---       usb_setup_stall
      00FF1B81H   CODE     ---       usb_setup_status
      00FF0009H   CODE     ---       usb_suspend
      00FF1B9DH   CODE     ---       usb_synch_frame
      00FF16E6H   CODE     ---       usb_write_fifo?_
      00FF1B01H   CODE     ---       usb_write_reg
*SFR* 000000FCH   DATA     BYTE      USBADR
*SFR* 000000DCH   DATA     BYTE      USBCLK
*SFR* 000000F4H   DATA     BYTE      USBCON
*SFR* 000000ECH   DATA     BYTE      USBDAT
      00010080H   XDATA    ---       UsbFeatureBuffer
      00010000H   XDATA    ---       UsbInBuffer
      00010040H   XDATA    ---       UsbOutBuffer
      000000AFH   EDATA    ---       USER_DEVICEDESC
      000000ABH   EDATA    ---       USER_PRODUCTDESC
      000000A5H   EDATA    ---       USER_STCISPCMD
      00FF00FAH   CODE     NEAR LAB  vsprintf
*SFR* 000000C1H   DATA     BYTE      WDT_CONTR
*SFR* 000000E9H   DATA     BYTE      WTST



SYMBOL TABLE OF MODULE:  ADC (main)

      VALUE       REP       CLASS    TYPE      SYMBOL NAME
      ====================================================
      ---         MODULE    ---      ---       main
      00FF14E3H   PUBLIC    CODE     ---       timer0_int
      00FF000EH   PUBLIC    CODE     ---       main
      00FF00BBH   PUBLIC    CODE     ---       Timer0_Init
      00FF1068H   PUBLIC    CODE     ---       ADC_convert
      00FF1AC2H   PUBLIC    CODE     ---       UartInit
      00FF1317H   PUBLIC    CODE     ---       KeyResetScan
      00FF1B49H   PUBLIC    CODE     ---       UartPutc
      00FF1AACH   PUBLIC    CODE     ---       delay_ms
      00FF160FH   PUBLIC    CODE     ---       Get_ADC12bitResult
      00FF1B8EH   PUBLIC    CODE     ---       putchar
      00000020H.3 PUBLIC    BIT      BIT       Key_Flag
      000000A5H   PUBLIC    EDATA    ---       USER_STCISPCMD
L251 LINKER/LOCATER V4.66.93.0                                                        07/09/2022  13:57:45  PAGE 12


      000000A9H   PUBLIC    EDATA    WORD      Key_cnt
      000000ABH   PUBLIC    EDATA    ---       USER_PRODUCTDESC
      000000AFH   PUBLIC    EDATA    ---       USER_DEVICEDESC
      00000094H   SFRSYM    DATA     BYTE      P0M0
      000000D0H   SFRSYM    DATA     BYTE      PSW
      000000BAH.7 SFRSYM    DATA     BIT       EAXFR
      0000009DH   SFRSYM    DATA     BYTE      IRCBAND
      00000097H   SFRSYM    DATA     BYTE      AUXR2
      000000EAH   SFRSYM    DATA     BYTE      CKCON
      000000EFH   SFRSYM    DATA     BYTE      AUXINTIF
      000000FDH   SFRSYM    DATA     BYTE      S4CON
      000000ACH   SFRSYM    DATA     BYTE      S3CON
      0000009AH   SFRSYM    DATA     BYTE      S2CON
      0000009BH   SFRSYM    DATA     BYTE      S2BUF
      000000B7H   SFRSYM    DATA     BYTE      IPH
      000000CDH   SFRSYM    DATA     BYTE      SPSTAT
      000000BEH   SFRSYM    DATA     BYTE      ADC_RESL
      000000DDH   SFRSYM    DATA     BYTE      T4T3M
      000000C1H   SFRSYM    DATA     BYTE      WDT_CONTR
      00000088H.4 SFRSYM    DATA     BIT       TR0
      000000E9H   SFRSYM    DATA     BYTE      WTST
      000000D7H   SFRSYM    DATA     BYTE      T2L
      0000008AH   SFRSYM    DATA     BYTE      TL0
      000000D6H   SFRSYM    DATA     BYTE      T2H
      0000008CH   SFRSYM    DATA     BYTE      TH0
      000000DFH   SFRSYM    DATA     BYTE      IP3
      000000F4H   SFRSYM    DATA     BYTE      USBCON
      000000B5H   SFRSYM    DATA     BYTE      IP2
      000000FFH   SFRSYM    DATA     BYTE      RSTCFG
      000000A8H.1 SFRSYM    DATA     BIT       ET0
      000000DCH   SFRSYM    DATA     BYTE      USBCLK
      000000BCH.5 SFRSYM    DATA     BIT       ADC_FLAG
      000000C7H   SFRSYM    DATA     BYTE      IAP_CONTR
      000000F9H   SFRSYM    DATA     BYTE      LINICR
      0000008EH   SFRSYM    DATA     BYTE      AUXR
      000000AFH   SFRSYM    DATA     BYTE      IE2
      000000BCH.6 SFRSYM    DATA     BIT       ADC_START
      000000BAH.0 SFRSYM    DATA     BIT       S2_S
      00000088H   SFRSYM    DATA     BYTE      TCON
      00000089H   SFRSYM    DATA     BYTE      TMOD
      000000B0H.2 SFRSYM    DATA     BIT       P32
      00000098H   SFRSYM    DATA     BYTE      SCON
      000000F1H   SFRSYM    DATA     BYTE      CANICR
      00000087H   SFRSYM    DATA     BYTE      PCON
      000000BCH   SFRSYM    DATA     BYTE      ADC_CONTR
      000000AFH.7 SFRSYM    DATA     BIT       EUSB
      000000E7H   SFRSYM    DATA     BYTE      CMPCR2
      000000E6H   SFRSYM    DATA     BYTE      CMPCR1
      0000009AH.1 SFRSYM    DATA     BIT       S2TI
      000000DEH   SFRSYM    DATA     BYTE      ADCCFG
      000000B8H   SFRSYM    DATA     BYTE      IP
      0000008FH   SFRSYM    DATA     BYTE      INTCLKO
      000000EEH   SFRSYM    DATA     BYTE      IP3H
      000000B6H   SFRSYM    DATA     BYTE      IP2H
      000000BDH   SFRSYM    DATA     BYTE      ADC_RES
      000000A8H   SFRSYM    DATA     BYTE      IE
      000000BBH   SFRSYM    DATA     BYTE      P_SW3
      000000BAH   SFRSYM    DATA     BYTE      P_SW2
      000000A2H   SFRSYM    DATA     BYTE      P_SW1
      000000CEH   SFRSYM    DATA     BYTE      SPCTL
      000000F8H   SFRSYM    DATA     BYTE      P7
      000000A8H.7 SFRSYM    DATA     BIT       EA
      000000E1H   SFRSYM    DATA     BYTE      P7M1
      000000E8H   SFRSYM    DATA     BYTE      P6
      000000C8H   SFRSYM    DATA     BYTE      P5
L251 LINKER/LOCATER V4.66.93.0                                                        07/09/2022  13:57:45  PAGE 13


      000000CBH   SFRSYM    DATA     BYTE      P6M1
      000000E2H   SFRSYM    DATA     BYTE      P7M0
      000000C0H   SFRSYM    DATA     BYTE      P4
      000000C9H   SFRSYM    DATA     BYTE      P5M1
      000000CCH   SFRSYM    DATA     BYTE      P6M0
      000000B0H   SFRSYM    DATA     BYTE      P3
      000000B3H   SFRSYM    DATA     BYTE      P4M1
      000000CAH   SFRSYM    DATA     BYTE      P5M0
      000000A0H   SFRSYM    DATA     BYTE      P2
      000000B1H   SFRSYM    DATA     BYTE      P3M1
      000000B4H   SFRSYM    DATA     BYTE      P4M0
      00000090H   SFRSYM    DATA     BYTE      P1
      00000095H   SFRSYM    DATA     BYTE      P2M1
      000000B2H   SFRSYM    DATA     BYTE      P3M0
      00000080H   SFRSYM    DATA     BYTE      P0
      00000091H   SFRSYM    DATA     BYTE      P1M1
      00000096H   SFRSYM    DATA     BYTE      P2M0
      00000092H   SFRSYM    DATA     BYTE      P1M0
      00000093H   SFRSYM    DATA     BYTE      P0M1

      00FF1AC2H   BLOCK     CODE     ---       LVL=0
      00FF1AC2H   LINE      CODE     ---       #67
      00FF1AC2H   LINE      CODE     ---       #69
      00FF1AC5H   LINE      CODE     ---       #70
      00FF1ACDH   LINE      CODE     ---       #71
      00FF1AD0H   LINE      CODE     ---       #72
      00FF1AD3H   LINE      CODE     ---       #73
      00FF1AD6H   LINE      CODE     ---       #74
      ---         BLOCKEND  ---      ---       LVL=0

      00FF1B49H   BLOCK     CODE     ---       LVL=0
      R11         REGSYM    ---      BYTE      dat
      00FF1B49H   LINE      CODE     ---       #76
      00FF1B49H   LINE      CODE     ---       #78
      00FF1B4CH   LINE      CODE     ---       #79
      00FF1B53H   LINE      CODE     ---       #80
      00FF1B56H   LINE      CODE     ---       #81
      ---         BLOCKEND  ---      ---       LVL=0

      00FF1B8EH   BLOCK     CODE     ---       LVL=0
      R15         REGSYM    ---      CHAR      c
      00FF1B8EH   LINE      CODE     ---       #83
      00FF1B92H   LINE      CODE     ---       #85
      00FF1B95H   LINE      CODE     ---       #86
      00FF1B97H   LINE      CODE     ---       #87
      ---         BLOCKEND  ---      ---       LVL=0

      00FF000EH   BLOCK     CODE     ---       LVL=0
      R15         REGSYM    ---      BYTE      i
      00FF000EH   LINE      CODE     ---       #90
      00FF000EH   LINE      CODE     ---       #91
      00FF000EH   LINE      CODE     ---       #94
      00FF0011H   LINE      CODE     ---       #95
      00FF0014H   LINE      CODE     ---       #96
      00FF0017H   LINE      CODE     ---       #98
      00FF001DH   LINE      CODE     ---       #99
      00FF0023H   LINE      CODE     ---       #100
      00FF0029H   LINE      CODE     ---       #101
      00FF002FH   LINE      CODE     ---       #102
      00FF0035H   LINE      CODE     ---       #103
      00FF003BH   LINE      CODE     ---       #104
      00FF0041H   LINE      CODE     ---       #105
      00FF0047H   LINE      CODE     ---       #108
      00FF004AH   LINE      CODE     ---       #109
      00FF004DH   LINE      CODE     ---       #110
L251 LINKER/LOCATER V4.66.93.0                                                        07/09/2022  13:57:45  PAGE 14


      00FF005AH   LINE      CODE     ---       #111
      00FF0068H   LINE      CODE     ---       #112
      00FF006BH   LINE      CODE     ---       #114
      00FF006EH   LINE      CODE     ---       #116
      00FF007BH   LINE      CODE     ---       #117
      00FF007EH   LINE      CODE     ---       #119
      00FF0081H   LINE      CODE     ---       #121
      00FF0084H   LINE      CODE     ---       #122
      00FF0087H   LINE      CODE     ---       #123
      00FF0089H   LINE      CODE     ---       #124
      00FF0094H   LINE      CODE     ---       #126
      00FF0094H   LINE      CODE     ---       #128
      00FF0096H   LINE      CODE     ---       #130
      00FF009BH   LINE      CODE     ---       #133
      00FF00A0H   LINE      CODE     ---       #134
      00FF00A7H   LINE      CODE     ---       #136
      00FF00B2H   LINE      CODE     ---       #137
      00FF00B9H   LINE      CODE     ---       #139
      ---         BLOCKEND  ---      ---       LVL=0

      00FF160FH   BLOCK     CODE     ---       LVL=0
      R10         REGSYM    ---      BYTE      channel
      00FF160FH   LINE      CODE     ---       #150
      00FF1611H   LINE      CODE     ---       #152
      00FF1614H   LINE      CODE     ---       #153
      00FF1617H   LINE      CODE     ---       #155
      00FF161FH   LINE      CODE     ---       #156
      00FF1622H   LINE      CODE     ---       #157
      00FF1623H   LINE      CODE     ---       #158
      00FF1624H   LINE      CODE     ---       #159
      00FF1625H   LINE      CODE     ---       #160
      00FF162CH   LINE      CODE     ---       #161
      00FF162FH   LINE      CODE     ---       #162
      00FF163BH   LINE      CODE     ---       #163
      ---         BLOCKEND  ---      ---       LVL=0

      00FF1068H   BLOCK     CODE     ---       LVL=0
      R15         REGSYM    ---      BYTE      chn
      00FF106CH   BLOCK     CODE     NEAR LAB  LVL=1
      WR12        REGSYM    ---      WORD      j
      R14         REGSYM    ---      BYTE      k
      ---         BLOCKEND  ---      ---       LVL=1
      00FF1068H   LINE      CODE     ---       #170
      00FF106CH   LINE      CODE     ---       #171
      00FF106CH   LINE      CODE     ---       #175
      00FF106FH   LINE      CODE     ---       #176
      00FF1074H   LINE      CODE     ---       #177
      00FF1086H   LINE      CODE     ---       #178
      00FF108EH   LINE      CODE     ---       #180
      00FF10A1H   LINE      CODE     ---       #183
      00FF10B6H   LINE      CODE     ---       #184
      00FF10B6H   LINE      CODE     ---       #185
      ---         BLOCKEND  ---      ---       LVL=0

      00FF1AACH   BLOCK     CODE     ---       LVL=0
      R10         REGSYM    ---      BYTE      ms
      00FF1AAEH   BLOCK     CODE     NEAR LAB  LVL=1
      WR8         REGSYM    ---      WORD      i
      ---         BLOCKEND  ---      ---       LVL=1
      00FF1AACH   LINE      CODE     ---       #196
      00FF1AAEH   LINE      CODE     ---       #197
      00FF1AAEH   LINE      CODE     ---       #199
      00FF1AAEH   LINE      CODE     ---       #201
      00FF1AB2H   LINE      CODE     ---       #202
      00FF1ABAH   LINE      CODE     ---       #203
L251 LINKER/LOCATER V4.66.93.0                                                        07/09/2022  13:57:45  PAGE 15


      00FF1AC1H   LINE      CODE     ---       #204
      ---         BLOCKEND  ---      ---       LVL=0

      00FF00BBH   BLOCK     CODE     ---       LVL=0
      00FF00BBH   LINE      CODE     ---       #215
      00FF00BBH   LINE      CODE     ---       #218
      00FF00BEH   LINE      CODE     ---       #219
      00FF00C1H   LINE      CODE     ---       #220
      00FF00C4H   LINE      CODE     ---       #221
      00FF00C6H   LINE      CODE     ---       #222
      00FF00C8H   LINE      CODE     ---       #223
      ---         BLOCKEND  ---      ---       LVL=0

      00FF1317H   BLOCK     CODE     ---       LVL=0
      00FF1317H   LINE      CODE     ---       #234
      00FF1317H   LINE      CODE     ---       #236
      00FF131AH   LINE      CODE     ---       #238
      00FF131DH   LINE      CODE     ---       #240
      00FF1327H   LINE      CODE     ---       #241
      00FF132DH   LINE      CODE     ---       #243
      00FF132FH   LINE      CODE     ---       #245
      00FF1332H   LINE      CODE     ---       #246
      00FF1335H   LINE      CODE     ---       #247
      00FF1341H   LINE      CODE     ---       #249
      00FF1346H   LINE      CODE     ---       #250
      00FF1349H   LINE      CODE     ---       #251
      00FF134BH   LINE      CODE     ---       #257
      00FF1351H   LINE      CODE     ---       #258
      00FF1353H   LINE      CODE     ---       #259
      00FF1353H   LINE      CODE     ---       #260
      ---         BLOCKEND  ---      ---       LVL=0

      00FF14E3H   BLOCK     CODE     ---       LVL=0
      00FF14E3H   LINE      CODE     ---       #271
      00FF14F9H   LINE      CODE     ---       #273
      00FF14FCH   LINE      CODE     ---       #278
      00FF14FFH   LINE      CODE     ---       #279
      00FF14FFH   LINE      CODE     ---       #281
      00FF1502H   LINE      CODE     ---       #282
      ---         BLOCKEND  ---      ---       LVL=0

      ---         MODULE    ---      ---       usb
      00FF1B38H   PUBLIC    CODE     ---       usb_setup_in
      00FF1B57H   PUBLIC    CODE     ---       usb_setup_out
      00FF0EFBH   PUBLIC    CODE     ---       usb_ctrl_in
      00FF0FBEH   PUBLIC    CODE     ---       usb_ctrl_out
      00FF18BDH   PUBLIC    CODE     ---       usb_OUT_done
      00FF0009H   PUBLIC    CODE     ---       usb_suspend
      00FF1AD7H   PUBLIC    CODE     ---       usb_bulk_intr_in
      00FF1859H   PUBLIC    CODE     ---       usb_bulk_intr_out
      00FF000AH   PUBLIC    CODE     ---       usb_resume
      00FF16BDH   PUBLIC    CODE     ---       usb_IN
      00FF13CAH   PUBLIC    CODE     ---       usb_read_fifo?_
      00FF1404H   PUBLIC    CODE     ---       usb_reset
      00FF0CFBH   PUBLIC    CODE     ---       usb_setup
      00FF16E6H   PUBLIC    CODE     ---       usb_write_fifo?_
      00FF1106H   PUBLIC    CODE     ---       usb_init
      00FF1B65H   PUBLIC    CODE     ---       usb_setup_stall
      00FF1B81H   PUBLIC    CODE     ---       usb_setup_status
      00FF1AECH   PUBLIC    CODE     ---       usb_read_reg
      00FF163CH   PUBLIC    CODE     ---       usb_in_ep1
      00FF0E05H   PUBLIC    CODE     ---       usb_out_ep1
      00FF1B01H   PUBLIC    CODE     ---       usb_write_reg
      00FF0E81H   PUBLIC    CODE     ---       usb_isr
      00000008H   PUBLIC    EDATA    ---       Setup
L251 LINKER/LOCATER V4.66.93.0                                                        07/09/2022  13:57:45  PAGE 16


      00000010H   PUBLIC    EDATA    BYTE      DeviceState
      00000011H   PUBLIC    EDATA    ---       Ep0State
      00000018H   PUBLIC    EDATA    BYTE      InEpState
      00000019H   PUBLIC    EDATA    BYTE      OutEpState
      00000020H.0 PUBLIC    BIT      BIT       bUsbOutReady
      00000020H.1 PUBLIC    BIT      BIT       bUsbFeatureReady
      00000020H.2 PUBLIC    BIT      BIT       bUsbInBusy
      00010000H   PUBLIC    XDATA    ---       UsbInBuffer
      00010040H   PUBLIC    XDATA    ---       UsbOutBuffer
      00010080H   PUBLIC    XDATA    ---       UsbFeatureBuffer
      000000D0H   SFRSYM    DATA     BYTE      PSW
      0000009DH   SFRSYM    DATA     BYTE      IRCBAND
      00000097H   SFRSYM    DATA     BYTE      AUXR2
      000000EFH   SFRSYM    DATA     BYTE      AUXINTIF
      000000FDH   SFRSYM    DATA     BYTE      S4CON
      000000ACH   SFRSYM    DATA     BYTE      S3CON
      0000009AH   SFRSYM    DATA     BYTE      S2CON
      000000B7H   SFRSYM    DATA     BYTE      IPH
      000000CDH   SFRSYM    DATA     BYTE      SPSTAT
      000000DDH   SFRSYM    DATA     BYTE      T4T3M
      000000C1H   SFRSYM    DATA     BYTE      WDT_CONTR
      000000DFH   SFRSYM    DATA     BYTE      IP3
      000000F4H   SFRSYM    DATA     BYTE      USBCON
      000000B5H   SFRSYM    DATA     BYTE      IP2
      000000FFH   SFRSYM    DATA     BYTE      RSTCFG
      000000DCH   SFRSYM    DATA     BYTE      USBCLK
      000000ECH   SFRSYM    DATA     BYTE      USBDAT
      000000C7H   SFRSYM    DATA     BYTE      IAP_CONTR
      000000F9H   SFRSYM    DATA     BYTE      LINICR
      000000FCH   SFRSYM    DATA     BYTE      USBADR
      0000008EH   SFRSYM    DATA     BYTE      AUXR
      000000AFH   SFRSYM    DATA     BYTE      IE2
      00000088H   SFRSYM    DATA     BYTE      TCON
      00000098H   SFRSYM    DATA     BYTE      SCON
      000000F1H   SFRSYM    DATA     BYTE      CANICR
      00000087H   SFRSYM    DATA     BYTE      PCON
      000000BCH   SFRSYM    DATA     BYTE      ADC_CONTR
      000000AFH.7 SFRSYM    DATA     BIT       EUSB
      000000E7H   SFRSYM    DATA     BYTE      CMPCR2
      000000E6H   SFRSYM    DATA     BYTE      CMPCR1
      000000B8H   SFRSYM    DATA     BYTE      IP
      0000008FH   SFRSYM    DATA     BYTE      INTCLKO
      000000EEH   SFRSYM    DATA     BYTE      IP3H
      000000B6H   SFRSYM    DATA     BYTE      IP2H
      000000A8H   SFRSYM    DATA     BYTE      IE
      000000BBH   SFRSYM    DATA     BYTE      P_SW3
      000000BAH   SFRSYM    DATA     BYTE      P_SW2
      000000A2H   SFRSYM    DATA     BYTE      P_SW1
      000000CEH   SFRSYM    DATA     BYTE      SPCTL
      000000F8H   SFRSYM    DATA     BYTE      P7
      000000E8H   SFRSYM    DATA     BYTE      P6
      000000C8H   SFRSYM    DATA     BYTE      P5
      000000C0H   SFRSYM    DATA     BYTE      P4
      000000B0H   SFRSYM    DATA     BYTE      P3
      000000A0H   SFRSYM    DATA     BYTE      P2
      00000090H   SFRSYM    DATA     BYTE      P1
      00000080H   SFRSYM    DATA     BYTE      P0

      00FF1106H   BLOCK     CODE     ---       LVL=0
      00FF1106H   LINE      CODE     ---       #22
      00FF1106H   LINE      CODE     ---       #24
      00FF1109H   LINE      CODE     ---       #25
      00FF110CH   LINE      CODE     ---       #27
      00FF1112H   LINE      CODE     ---       #28
      00FF111AH   LINE      CODE     ---       #29
L251 LINKER/LOCATER V4.66.93.0                                                        07/09/2022  13:57:45  PAGE 17


      00FF1122H   LINE      CODE     ---       #30
      00FF112AH   LINE      CODE     ---       #31
      00FF1132H   LINE      CODE     ---       #32
      00FF113AH   LINE      CODE     ---       #34
      00FF1140H   LINE      CODE     ---       #35
      00FF1145H   LINE      CODE     ---       #36
      00FF1149H   LINE      CODE     ---       #37
      00FF114DH   LINE      CODE     ---       #39
      00FF1150H   LINE      CODE     ---       #40
      ---         BLOCKEND  ---      ---       LVL=0

      00FF1AECH   BLOCK     CODE     ---       LVL=0
      R10         REGSYM    ---      BYTE      addr
      00FF1AEEH   BLOCK     CODE     NEAR LAB  LVL=1
      R11         REGSYM    ---      BYTE      dat
      ---         BLOCKEND  ---      ---       LVL=1
      00FF1AECH   LINE      CODE     ---       #42
      00FF1AEEH   LINE      CODE     ---       #43
      00FF1AEEH   LINE      CODE     ---       #46
      00FF1AF3H   LINE      CODE     ---       #47
      00FF1AF9H   LINE      CODE     ---       #48
      00FF1AFEH   LINE      CODE     ---       #49
      00FF1B00H   LINE      CODE     ---       #51
      00FF1B00H   LINE      CODE     ---       #52
      ---         BLOCKEND  ---      ---       LVL=0

      00FF1B01H   BLOCK     CODE     ---       LVL=0
      R7          REGSYM    ---      BYTE      addr
      R10         REGSYM    ---      BYTE      dat
      00FF1B01H   LINE      CODE     ---       #54
      00FF1B05H   LINE      CODE     ---       #56
      00FF1B0AH   LINE      CODE     ---       #57
      00FF1B10H   LINE      CODE     ---       #58
      00FF1B13H   LINE      CODE     ---       #59
      ---         BLOCKEND  ---      ---       LVL=0

      00FF13CAH   BLOCK     CODE     ---       LVL=0
      FFFFFFFEH   STKSYM    ---      BYTE      fifo
      REG=3       REGSYM    ---      ---       pdat
      00FF13D2H   BLOCK     CODE     NEAR LAB  LVL=1
      00000000H   STKSYM    ---      BYTE      cnt
      FFFFFFFFH   STKSYM    ---      BYTE      ret
      ---         BLOCKEND  ---      ---       LVL=1
      00FF13CAH   LINE      CODE     ---       #61
      00FF13D2H   LINE      CODE     ---       #62
      00FF13D2H   LINE      CODE     ---       #66
      00FF13DEH   LINE      CODE     ---       #67
      00FF13E0H   LINE      CODE     ---       #69
      00FF13ECH   LINE      CODE     ---       #70
      00FF13F9H   LINE      CODE     ---       #72
      00FF13FDH   LINE      CODE     ---       #73
      ---         BLOCKEND  ---      ---       LVL=0

      00FF16E6H   BLOCK     CODE     ---       LVL=0
      00000000H   STKSYM    ---      BYTE      fifo
      REG=3       REGSYM    ---      ---       pdat
      FFFFFFFFH   STKSYM    ---      BYTE      cnt
      00FF16E6H   LINE      CODE     ---       #75
      00FF16EEH   LINE      CODE     ---       #77
      00FF16F0H   LINE      CODE     ---       #79
      00FF16FBH   LINE      CODE     ---       #80
      00FF170AH   LINE      CODE     ---       #81
      ---         BLOCKEND  ---      ---       LVL=0

      00FF0E81H   BLOCK     CODE     ---       LVL=0
L251 LINKER/LOCATER V4.66.93.0                                                        07/09/2022  13:57:45  PAGE 18


      00FF0E9BH   BLOCK     CODE     NEAR LAB  LVL=1
      R15         REGSYM    ---      BYTE      intrusb
      R13         REGSYM    ---      BYTE      intrin
      R14         REGSYM    ---      BYTE      introut
      ---         BLOCKEND  ---      ---       LVL=1
      00FF0E81H   LINE      CODE     ---       #83
      00FF0E9BH   LINE      CODE     ---       #84
      00FF0E9BH   LINE      CODE     ---       #89
      00FF0EA2H   LINE      CODE     ---       #90
      00FF0EA9H   LINE      CODE     ---       #91
      00FF0EB0H   LINE      CODE     ---       #93
      00FF0EB8H   LINE      CODE     ---       #94
      00FF0EC0H   LINE      CODE     ---       #96
      00FF0EC8H   LINE      CODE     ---       #99
      00FF0ED0H   LINE      CODE     ---       #115
      00FF0ED8H   LINE      CODE     ---       #130
      00FF0EE0H   LINE      CODE     ---       #131
      ---         BLOCKEND  ---      ---       LVL=0

      00FF000AH   BLOCK     CODE     ---       LVL=0
      00FF000AH   LINE      CODE     ---       #133
      00FF000AH   LINE      CODE     ---       #135
      ---         BLOCKEND  ---      ---       LVL=0

      00FF1404H   BLOCK     CODE     ---       LVL=0
      00FF1404H   LINE      CODE     ---       #137
      00FF1404H   LINE      CODE     ---       #139
      00FF140AH   LINE      CODE     ---       #140
      00FF1410H   LINE      CODE     ---       #141
      00FF1415H   LINE      CODE     ---       #144
      00FF141DH   LINE      CODE     ---       #145
      00FF1425H   LINE      CODE     ---       #164
      00FF142DH   LINE      CODE     ---       #165
      00FF1435H   LINE      CODE     ---       #183
      ---         BLOCKEND  ---      ---       LVL=0

      00FF0009H   BLOCK     CODE     ---       LVL=0
      00FF0009H   LINE      CODE     ---       #186
      00FF0009H   LINE      CODE     ---       #188
      ---         BLOCKEND  ---      ---       LVL=0

      00FF0CFBH   BLOCK     CODE     ---       LVL=0
      00FF0CFDH   BLOCK     CODE     NEAR LAB  LVL=1
      R15         REGSYM    ---      BYTE      csr
      ---         BLOCKEND  ---      ---       LVL=1
      00FF0CFBH   LINE      CODE     ---       #190
      00FF0CFDH   LINE      CODE     ---       #191
      00FF0CFDH   LINE      CODE     ---       #194
      00FF0D04H   LINE      CODE     ---       #195
      00FF0D0BH   LINE      CODE     ---       #197
      00FF0D0EH   LINE      CODE     ---       #199
      00FF0D18H   LINE      CODE     ---       #200
      00FF0D1DH   LINE      CODE     ---       #201
      00FF0D1DH   LINE      CODE     ---       #202
      00FF0D22H   LINE      CODE     ---       #204
      00FF0D2CH   LINE      CODE     ---       #205
      00FF0D2CH   LINE      CODE     ---       #207
      00FF0D3BH   LINE      CODE     ---       #209
      00FF0D3BH   LINE      CODE     ---       #210
      00FF0D40H   LINE      CODE     ---       #212
      00FF0D49H   LINE      CODE     ---       #213
      00FF0D54H   LINE      CODE     ---       #214
      00FF0D66H   LINE      CODE     ---       #216
      00FF0D66H   LINE      CODE     ---       #217
      00FF0D69H   LINE      CODE     ---       #218
L251 LINKER/LOCATER V4.66.93.0                                                        07/09/2022  13:57:45  PAGE 19


      00FF0D6BH   LINE      CODE     ---       #219
      00FF0D6BH   LINE      CODE     ---       #220
      00FF0D6EH   LINE      CODE     ---       #221
      00FF0D70H   LINE      CODE     ---       #222
      00FF0D70H   LINE      CODE     ---       #223
      00FF0D73H   LINE      CODE     ---       #224
      00FF0D75H   LINE      CODE     ---       #225
      00FF0D75H   LINE      CODE     ---       #226
      00FF0D78H   LINE      CODE     ---       #227
      00FF0D7AH   LINE      CODE     ---       #228
      00FF0D7AH   LINE      CODE     ---       #229
      00FF0D7AH   LINE      CODE     ---       #230
      00FF0D7AH   LINE      CODE     ---       #231
      00FF0D7AH   LINE      CODE     ---       #232
      00FF0D7DH   LINE      CODE     ---       #233
      00FF0D7FH   LINE      CODE     ---       #234
      00FF0D7FH   LINE      CODE     ---       #235
      00FF0D82H   LINE      CODE     ---       #236
      00FF0D82H   LINE      CODE     ---       #237
      00FF0D82H   LINE      CODE     ---       #238
      ---         BLOCKEND  ---      ---       LVL=0

      00FF1B65H   BLOCK     CODE     ---       LVL=0
      00FF1B65H   LINE      CODE     ---       #240
      00FF1B65H   LINE      CODE     ---       #242
      00FF1B6BH   LINE      CODE     ---       #243
      ---         BLOCKEND  ---      ---       LVL=0

      00FF1B38H   BLOCK     CODE     ---       LVL=0
      00FF1B38H   LINE      CODE     ---       #246
      00FF1B38H   LINE      CODE     ---       #248
      00FF1B3EH   LINE      CODE     ---       #249
      00FF1B46H   LINE      CODE     ---       #250
      ---         BLOCKEND  ---      ---       LVL=0

      00FF1B57H   BLOCK     CODE     ---       LVL=0
      00FF1B57H   LINE      CODE     ---       #253
      00FF1B57H   LINE      CODE     ---       #255
      00FF1B5DH   LINE      CODE     ---       #256
      ---         BLOCKEND  ---      ---       LVL=0

      00FF1B81H   BLOCK     CODE     ---       LVL=0
      00FF1B81H   LINE      CODE     ---       #259
      00FF1B81H   LINE      CODE     ---       #261
      00FF1B86H   LINE      CODE     ---       #262
      ---         BLOCKEND  ---      ---       LVL=0

      00FF0EFBH   BLOCK     CODE     ---       LVL=0
      00FF0EFDH   BLOCK     CODE     NEAR LAB  LVL=1
      R11         REGSYM    ---      BYTE      csr
      R15         REGSYM    ---      BYTE      cnt
      ---         BLOCKEND  ---      ---       LVL=1
      00FF0EFBH   LINE      CODE     ---       #265
      00FF0EFDH   LINE      CODE     ---       #266
      00FF0EFDH   LINE      CODE     ---       #270
      00FF0F04H   LINE      CODE     ---       #271
      00FF0F09H   LINE      CODE     ---       #272
      00FF0F0CH   LINE      CODE     ---       #274
      00FF0F1DH   LINE      CODE     ---       #275
      00FF0F28H   LINE      CODE     ---       #276
      00FF0F34H   LINE      CODE     ---       #277
      00FF0F40H   LINE      CODE     ---       #278
      00FF0F48H   LINE      CODE     ---       #280
      00FF0F50H   LINE      CODE     ---       #281
      00FF0F55H   LINE      CODE     ---       #282
L251 LINKER/LOCATER V4.66.93.0                                                        07/09/2022  13:57:45  PAGE 20


      00FF0F57H   LINE      CODE     ---       #285
      00FF0F5FH   LINE      CODE     ---       #286
      00FF0F5FH   LINE      CODE     ---       #287
      ---         BLOCKEND  ---      ---       LVL=0

      00FF0FBEH   BLOCK     CODE     ---       LVL=0
      R11         REGSYM    ---      BYTE      csr
      R7          REGSYM    ---      BYTE      cnt
      00FF0FBEH   LINE      CODE     ---       #289
      00FF0FBEH   LINE      CODE     ---       #290
      00FF0FBEH   LINE      CODE     ---       #294
      00FF0FC5H   LINE      CODE     ---       #295
      00FF0FCAH   LINE      CODE     ---       #296
      00FF0FCDH   LINE      CODE     ---       #298
      00FF0FD6H   LINE      CODE     ---       #299
      00FF0FE2H   LINE      CODE     ---       #300
      00FF0FECH   LINE      CODE     ---       #301
      00FF0FF4H   LINE      CODE     ---       #303
      00FF0FFCH   LINE      CODE     ---       #304
      00FF1001H   LINE      CODE     ---       #306
      00FF1008H   LINE      CODE     ---       #307
      00FF100AH   LINE      CODE     ---       #308
      00FF100BH   LINE      CODE     ---       #311
      00FF1013H   LINE      CODE     ---       #312
      00FF1013H   LINE      CODE     ---       #313
      ---         BLOCKEND  ---      ---       LVL=0

      00FF1AD7H   BLOCK     CODE     ---       LVL=0
      REG=0       REGSYM    ---      ---       pData
      R7          REGSYM    ---      BYTE      bSize
      R10         REGSYM    ---      BYTE      ep
      00FF1AD7H   LINE      CODE     ---       #315
      00FF1ADBH   LINE      CODE     ---       #317
      00FF1AE4H   LINE      CODE     ---       #318
      ---         BLOCKEND  ---      ---       LVL=0

      00FF1859H   BLOCK     CODE     ---       LVL=0
      REG=0       REGSYM    ---      ---       pData
      R7          REGSYM    ---      BYTE      ep
      00FF185BH   BLOCK     CODE     NEAR LAB  LVL=1
      R15         REGSYM    ---      BYTE      cnt
      ---         BLOCKEND  ---      ---       LVL=1
      00FF1859H   LINE      CODE     ---       #321
      00FF185BH   LINE      CODE     ---       #322
      00FF185BH   LINE      CODE     ---       #325
      00FF1866H   LINE      CODE     ---       #326
      00FF186DH   LINE      CODE     ---       #328
      00FF186FH   LINE      CODE     ---       #329
      ---         BLOCKEND  ---      ---       LVL=0

      00FF163CH   BLOCK     CODE     ---       LVL=0
      00FF163EH   BLOCK     CODE     NEAR LAB  LVL=1
      R15         REGSYM    ---      BYTE      csr
      ---         BLOCKEND  ---      ---       LVL=1
      00FF163CH   LINE      CODE     ---       #332
      00FF163EH   LINE      CODE     ---       #333
      00FF163EH   LINE      CODE     ---       #336
      00FF1646H   LINE      CODE     ---       #337
      00FF164DH   LINE      CODE     ---       #338
      00FF1650H   LINE      CODE     ---       #340
      00FF1658H   LINE      CODE     ---       #341
      00FF1658H   LINE      CODE     ---       #342
      00FF165DH   LINE      CODE     ---       #344
      00FF1664H   LINE      CODE     ---       #345
      00FF1664H   LINE      CODE     ---       #346
L251 LINKER/LOCATER V4.66.93.0                                                        07/09/2022  13:57:45  PAGE 21


      00FF1666H   LINE      CODE     ---       #347
      ---         BLOCKEND  ---      ---       LVL=0

      00FF0E05H   BLOCK     CODE     ---       LVL=0
      00FF0E07H   BLOCK     CODE     NEAR LAB  LVL=1
      R15         REGSYM    ---      BYTE      csr
      ---         BLOCKEND  ---      ---       LVL=1
      00FF0E05H   LINE      CODE     ---       #423
      00FF0E07H   LINE      CODE     ---       #424
      00FF0E07H   LINE      CODE     ---       #427
      00FF0E0FH   LINE      CODE     ---       #428
      00FF0E16H   LINE      CODE     ---       #429
      00FF0E19H   LINE      CODE     ---       #431
      00FF0E21H   LINE      CODE     ---       #432
      00FF0E21H   LINE      CODE     ---       #433
      00FF0E26H   LINE      CODE     ---       #435
      00FF0E33H   LINE      CODE     ---       #436
      00FF0E40H   LINE      CODE     ---       #438
      00FF0E4AH   LINE      CODE     ---       #440
      00FF0E57H   LINE      CODE     ---       #442
      00FF0E5EH   LINE      CODE     ---       #444
      00FF0E61H   LINE      CODE     ---       #445
      00FF0E64H   LINE      CODE     ---       #446
      00FF0E70H   LINE      CODE     ---       #448
      00FF0E77H   LINE      CODE     ---       #450
      00FF0E7AH   LINE      CODE     ---       #451
      00FF0E7CH   LINE      CODE     ---       #452
      00FF0E7CH   LINE      CODE     ---       #455
      00FF0E7EH   LINE      CODE     ---       #457
      ---         BLOCKEND  ---      ---       LVL=0

      00FF16BDH   BLOCK     CODE     ---       LVL=0
      00FF16BDH   LINE      CODE     ---       #534
      00FF16BDH   LINE      CODE     ---       #536
      00FF16C0H   LINE      CODE     ---       #538
      00FF16C8H   LINE      CODE     ---       #539
      00FF16D0H   LINE      CODE     ---       #540
      00FF16E0H   LINE      CODE     ---       #541
      00FF16E2H   LINE      CODE     ---       #543
      00FF16E5H   LINE      CODE     ---       #544
      ---         BLOCKEND  ---      ---       LVL=0

      00FF18BDH   BLOCK     CODE     ---       LVL=0
      00FF18BDH   LINE      CODE     ---       #546
      00FF18BDH   LINE      CODE     ---       #548
      00FF18C0H   LINE      CODE     ---       #550
      00FF18C8H   LINE      CODE     ---       #551
      00FF18CFH   LINE      CODE     ---       #552
      00FF18D1H   LINE      CODE     ---       #554
      00FF18D4H   LINE      CODE     ---       #555
      ---         BLOCKEND  ---      ---       LVL=0

      ---         MODULE    ---      ---       usb_req_class
      00FF0003H   PUBLIC    CODE     ---       usb_get_protocol
      00FF0006H   PUBLIC    CODE     ---       usb_set_protocol
      00FF1737H   PUBLIC    CODE     ---       usb_get_idle
      00FF1669H   PUBLIC    CODE     ---       usb_get_report
      00FF15E1H   PUBLIC    CODE     ---       usb_req_class
      00FF1804H   PUBLIC    CODE     ---       usb_set_idle
      00FF1693H   PUBLIC    CODE     ---       usb_set_report
      0000001FH   PUBLIC    EDATA    BYTE      bHidIdle
      000000D0H   SFRSYM    DATA     BYTE      PSW
      0000009DH   SFRSYM    DATA     BYTE      IRCBAND
      00000097H   SFRSYM    DATA     BYTE      AUXR2
      000000EFH   SFRSYM    DATA     BYTE      AUXINTIF
L251 LINKER/LOCATER V4.66.93.0                                                        07/09/2022  13:57:45  PAGE 22


      000000FDH   SFRSYM    DATA     BYTE      S4CON
      000000ACH   SFRSYM    DATA     BYTE      S3CON
      0000009AH   SFRSYM    DATA     BYTE      S2CON
      000000B7H   SFRSYM    DATA     BYTE      IPH
      000000CDH   SFRSYM    DATA     BYTE      SPSTAT
      000000DDH   SFRSYM    DATA     BYTE      T4T3M
      000000C1H   SFRSYM    DATA     BYTE      WDT_CONTR
      000000DFH   SFRSYM    DATA     BYTE      IP3
      000000F4H   SFRSYM    DATA     BYTE      USBCON
      000000B5H   SFRSYM    DATA     BYTE      IP2
      000000FFH   SFRSYM    DATA     BYTE      RSTCFG
      000000F9H   SFRSYM    DATA     BYTE      LINICR
      0000008EH   SFRSYM    DATA     BYTE      AUXR
      000000AFH   SFRSYM    DATA     BYTE      IE2
      00000088H   SFRSYM    DATA     BYTE      TCON
      00000098H   SFRSYM    DATA     BYTE      SCON
      000000F1H   SFRSYM    DATA     BYTE      CANICR
      00000087H   SFRSYM    DATA     BYTE      PCON
      000000BCH   SFRSYM    DATA     BYTE      ADC_CONTR
      000000E7H   SFRSYM    DATA     BYTE      CMPCR2
      000000E6H   SFRSYM    DATA     BYTE      CMPCR1
      000000B8H   SFRSYM    DATA     BYTE      IP
      0000008FH   SFRSYM    DATA     BYTE      INTCLKO
      000000EEH   SFRSYM    DATA     BYTE      IP3H
      000000B6H   SFRSYM    DATA     BYTE      IP2H
      000000A8H   SFRSYM    DATA     BYTE      IE
      000000BBH   SFRSYM    DATA     BYTE      P_SW3
      000000BAH   SFRSYM    DATA     BYTE      P_SW2
      000000A2H   SFRSYM    DATA     BYTE      P_SW1
      000000CEH   SFRSYM    DATA     BYTE      SPCTL
      000000F8H   SFRSYM    DATA     BYTE      P7
      000000E8H   SFRSYM    DATA     BYTE      P6
      000000C8H   SFRSYM    DATA     BYTE      P5
      000000C0H   SFRSYM    DATA     BYTE      P4
      000000B0H   SFRSYM    DATA     BYTE      P3
      000000A0H   SFRSYM    DATA     BYTE      P2
      00000090H   SFRSYM    DATA     BYTE      P1
      00000080H   SFRSYM    DATA     BYTE      P0

      00FF15E1H   BLOCK     CODE     ---       LVL=0
      00FF15E1H   LINE      CODE     ---       #7
      00FF15E1H   LINE      CODE     ---       #9
      00FF15FAH   LINE      CODE     ---       #11
      00FF15FAH   LINE      CODE     ---       #12
      00FF15FDH   LINE      CODE     ---       #13
      00FF15FDH   LINE      CODE     ---       #14
      00FF15FDH   LINE      CODE     ---       #15
      00FF1600H   LINE      CODE     ---       #16
      00FF1600H   LINE      CODE     ---       #17
      00FF1600H   LINE      CODE     ---       #18
      00FF1603H   LINE      CODE     ---       #19
      00FF1603H   LINE      CODE     ---       #20
      00FF1603H   LINE      CODE     ---       #21
      00FF1606H   LINE      CODE     ---       #22
      00FF1606H   LINE      CODE     ---       #23
      00FF1606H   LINE      CODE     ---       #24
      00FF1609H   LINE      CODE     ---       #25
      00FF1609H   LINE      CODE     ---       #26
      00FF1609H   LINE      CODE     ---       #27
      00FF160CH   LINE      CODE     ---       #28
      00FF160CH   LINE      CODE     ---       #29
      00FF160CH   LINE      CODE     ---       #30
      00FF160FH   LINE      CODE     ---       #31
      00FF160FH   LINE      CODE     ---       #32
      00FF160FH   LINE      CODE     ---       #33
L251 LINKER/LOCATER V4.66.93.0                                                        07/09/2022  13:57:45  PAGE 23


      ---         BLOCKEND  ---      ---       LVL=0

      00FF1669H   BLOCK     CODE     ---       LVL=0
      00FF1669H   LINE      CODE     ---       #35
      00FF1669H   LINE      CODE     ---       #37
      00FF1679H   LINE      CODE     ---       #40
      00FF167CH   LINE      CODE     ---       #41
      00FF167CH   LINE      CODE     ---       #42
      00FF167CH   LINE      CODE     ---       #44
      00FF1688H   LINE      CODE     ---       #45
      00FF1690H   LINE      CODE     ---       #47
      00FF1693H   LINE      CODE     ---       #48
      ---         BLOCKEND  ---      ---       LVL=0

      00FF1693H   BLOCK     CODE     ---       LVL=0
      00FF1693H   LINE      CODE     ---       #50
      00FF1693H   LINE      CODE     ---       #52
      00FF16A3H   LINE      CODE     ---       #55
      00FF16A6H   LINE      CODE     ---       #56
      00FF16A6H   LINE      CODE     ---       #57
      00FF16A6H   LINE      CODE     ---       #59
      00FF16B2H   LINE      CODE     ---       #60
      00FF16BAH   LINE      CODE     ---       #62
      00FF16BDH   LINE      CODE     ---       #63
      ---         BLOCKEND  ---      ---       LVL=0

      00FF1737H   BLOCK     CODE     ---       LVL=0
      00FF1737H   LINE      CODE     ---       #65
      00FF1737H   LINE      CODE     ---       #67
      00FF1747H   LINE      CODE     ---       #70
      00FF174AH   LINE      CODE     ---       #71
      00FF174AH   LINE      CODE     ---       #72
      00FF174AH   LINE      CODE     ---       #74
      00FF1752H   LINE      CODE     ---       #75
      00FF175AH   LINE      CODE     ---       #77
      00FF175DH   LINE      CODE     ---       #78
      ---         BLOCKEND  ---      ---       LVL=0

      00FF1804H   BLOCK     CODE     ---       LVL=0
      00FF1804H   LINE      CODE     ---       #80
      00FF1804H   LINE      CODE     ---       #82
      00FF1814H   LINE      CODE     ---       #85
      00FF1817H   LINE      CODE     ---       #86
      00FF1817H   LINE      CODE     ---       #87
      00FF1817H   LINE      CODE     ---       #89
      00FF181FH   LINE      CODE     ---       #91
      00FF1822H   LINE      CODE     ---       #92
      ---         BLOCKEND  ---      ---       LVL=0

      00FF0003H   BLOCK     CODE     ---       LVL=0
      00FF0003H   LINE      CODE     ---       #94
      00FF0003H   LINE      CODE     ---       #96
      ---         BLOCKEND  ---      ---       LVL=0

      00FF0006H   BLOCK     CODE     ---       LVL=0
      00FF0006H   LINE      CODE     ---       #99
      00FF0006H   LINE      CODE     ---       #101
      ---         BLOCKEND  ---      ---       LVL=0

      ---         MODULE    ---      ---       usb_req_std
      00FF121FH   PUBLIC    CODE     ---       usb_get_interface
      00FF0A20H   PUBLIC    CODE     ---       usb_clear_feature
      00FF170FH   PUBLIC    CODE     ---       usb_set_interface
      00FF0944H   PUBLIC    CODE     ---       usb_get_descriptor
      00FF1B9AH   PUBLIC    CODE     ---       usb_set_descriptor
L251 LINKER/LOCATER V4.66.93.0                                                        07/09/2022  13:57:45  PAGE 24


      00FF0F62H   PUBLIC    CODE     ---       usb_req_std
      00FF1B9DH   PUBLIC    CODE     ---       usb_synch_frame
      00FF1151H   PUBLIC    CODE     ---       usb_set_address
      00FF0ABBH   PUBLIC    CODE     ---       usb_set_feature
      00FF1014H   PUBLIC    CODE     ---       usb_get_configuration
      00FF0C6EH   PUBLIC    CODE     ---       usb_set_configuration
      00FF0845H   PUBLIC    CODE     ---       usb_get_status
      000000D0H   SFRSYM    DATA     BYTE      PSW
      0000009DH   SFRSYM    DATA     BYTE      IRCBAND
      00000097H   SFRSYM    DATA     BYTE      AUXR2
      000000EFH   SFRSYM    DATA     BYTE      AUXINTIF
      000000FDH   SFRSYM    DATA     BYTE      S4CON
      000000ACH   SFRSYM    DATA     BYTE      S3CON
      0000009AH   SFRSYM    DATA     BYTE      S2CON
      000000B7H   SFRSYM    DATA     BYTE      IPH
      000000CDH   SFRSYM    DATA     BYTE      SPSTAT
      000000DDH   SFRSYM    DATA     BYTE      T4T3M
      000000C1H   SFRSYM    DATA     BYTE      WDT_CONTR
      000000DFH   SFRSYM    DATA     BYTE      IP3
      000000F4H   SFRSYM    DATA     BYTE      USBCON
      000000B5H   SFRSYM    DATA     BYTE      IP2
      000000FFH   SFRSYM    DATA     BYTE      RSTCFG
      000000F9H   SFRSYM    DATA     BYTE      LINICR
      0000008EH   SFRSYM    DATA     BYTE      AUXR
      000000AFH   SFRSYM    DATA     BYTE      IE2
      00000088H   SFRSYM    DATA     BYTE      TCON
      00000098H   SFRSYM    DATA     BYTE      SCON
      000000F1H   SFRSYM    DATA     BYTE      CANICR
      00000087H   SFRSYM    DATA     BYTE      PCON
      000000BCH   SFRSYM    DATA     BYTE      ADC_CONTR
      000000E7H   SFRSYM    DATA     BYTE      CMPCR2
      000000E6H   SFRSYM    DATA     BYTE      CMPCR1
      000000B8H   SFRSYM    DATA     BYTE      IP
      0000008FH   SFRSYM    DATA     BYTE      INTCLKO
      000000EEH   SFRSYM    DATA     BYTE      IP3H
      000000B6H   SFRSYM    DATA     BYTE      IP2H
      000000A8H   SFRSYM    DATA     BYTE      IE
      000000BBH   SFRSYM    DATA     BYTE      P_SW3
      000000BAH   SFRSYM    DATA     BYTE      P_SW2
      000000A2H   SFRSYM    DATA     BYTE      P_SW1
      000000CEH   SFRSYM    DATA     BYTE      SPCTL
      000000F8H   SFRSYM    DATA     BYTE      P7
      000000E8H   SFRSYM    DATA     BYTE      P6
      000000C8H   SFRSYM    DATA     BYTE      P5
      000000C0H   SFRSYM    DATA     BYTE      P4
      000000B0H   SFRSYM    DATA     BYTE      P3
      000000A0H   SFRSYM    DATA     BYTE      P2
      00000090H   SFRSYM    DATA     BYTE      P1
      00000080H   SFRSYM    DATA     BYTE      P0

      00FF0F62H   BLOCK     CODE     ---       LVL=0
      00FF0F62H   LINE      CODE     ---       #7
      00FF0F62H   LINE      CODE     ---       #9
      00FF0F9AH   LINE      CODE     ---       #11
      00FF0F9AH   LINE      CODE     ---       #12
      00FF0F9DH   LINE      CODE     ---       #13
      00FF0F9DH   LINE      CODE     ---       #14
      00FF0F9DH   LINE      CODE     ---       #15
      00FF0FA0H   LINE      CODE     ---       #16
      00FF0FA0H   LINE      CODE     ---       #17
      00FF0FA0H   LINE      CODE     ---       #18
      00FF0FA3H   LINE      CODE     ---       #19
      00FF0FA3H   LINE      CODE     ---       #20
      00FF0FA3H   LINE      CODE     ---       #21
      00FF0FA6H   LINE      CODE     ---       #22
L251 LINKER/LOCATER V4.66.93.0                                                        07/09/2022  13:57:45  PAGE 25


      00FF0FA6H   LINE      CODE     ---       #23
      00FF0FA6H   LINE      CODE     ---       #24
      00FF0FA9H   LINE      CODE     ---       #25
      00FF0FA9H   LINE      CODE     ---       #26
      00FF0FA9H   LINE      CODE     ---       #27
      00FF0FACH   LINE      CODE     ---       #28
      00FF0FACH   LINE      CODE     ---       #29
      00FF0FACH   LINE      CODE     ---       #30
      00FF0FAFH   LINE      CODE     ---       #31
      00FF0FAFH   LINE      CODE     ---       #32
      00FF0FAFH   LINE      CODE     ---       #33
      00FF0FB2H   LINE      CODE     ---       #34
      00FF0FB2H   LINE      CODE     ---       #35
      00FF0FB2H   LINE      CODE     ---       #36
      00FF0FB5H   LINE      CODE     ---       #37
      00FF0FB5H   LINE      CODE     ---       #38
      00FF0FB5H   LINE      CODE     ---       #39
      00FF0FB8H   LINE      CODE     ---       #40
      00FF0FB8H   LINE      CODE     ---       #41
      00FF0FB8H   LINE      CODE     ---       #42
      00FF0FBBH   LINE      CODE     ---       #43
      00FF0FBBH   LINE      CODE     ---       #44
      00FF0FBBH   LINE      CODE     ---       #45
      00FF0FBEH   LINE      CODE     ---       #46
      00FF0FBEH   LINE      CODE     ---       #47
      00FF0FBEH   LINE      CODE     ---       #48
      ---         BLOCKEND  ---      ---       LVL=0

      00FF0845H   BLOCK     CODE     ---       LVL=0
      00FF0847H   BLOCK     CODE     NEAR LAB  LVL=1
      R10         REGSYM    ---      BYTE      ep
      ---         BLOCKEND  ---      ---       LVL=1
      00FF0845H   LINE      CODE     ---       #50
      00FF0847H   LINE      CODE     ---       #51
      00FF0847H   LINE      CODE     ---       #54
      00FF0868H   LINE      CODE     ---       #59
      00FF0868H   LINE      CODE     ---       #60
      00FF086BH   LINE      CODE     ---       #61
      00FF086BH   LINE      CODE     ---       #63
      00FF087CH   LINE      CODE     ---       #65
      00FF087CH   LINE      CODE     ---       #66
      00FF0888H   LINE      CODE     ---       #69
      00FF0888H   LINE      CODE     ---       #70
      00FF088BH   LINE      CODE     ---       #71
      00FF088BH   LINE      CODE     ---       #74
      00FF088BH   LINE      CODE     ---       #75
      00FF088BH   LINE      CODE     ---       #76
      00FF088BH   LINE      CODE     ---       #77
      00FF088DH   LINE      CODE     ---       #78
      00FF088DH   LINE      CODE     ---       #79
      00FF08A3H   LINE      CODE     ---       #83
      00FF08A3H   LINE      CODE     ---       #84
      00FF08A6H   LINE      CODE     ---       #85
      00FF08A6H   LINE      CODE     ---       #88
      00FF08AEH   LINE      CODE     ---       #89
      00FF08AEH   LINE      CODE     ---       #90
      00FF08AEH   LINE      CODE     ---       #91
      00FF08B0H   LINE      CODE     ---       #92
      00FF08B0H   LINE      CODE     ---       #93
      00FF08BDH   LINE      CODE     ---       #96
      00FF08BDH   LINE      CODE     ---       #97
      00FF08BFH   LINE      CODE     ---       #98
      00FF08BFH   LINE      CODE     ---       #101
      00FF08C8H   LINE      CODE     ---       #102
      00FF08D1H   LINE      CODE     ---       #105
L251 LINKER/LOCATER V4.66.93.0                                                        07/09/2022  13:57:45  PAGE 26


      00FF08D1H   LINE      CODE     ---       #120
      00FF08EAH   LINE      CODE     ---       #122
      00FF08F2H   LINE      CODE     ---       #123
      00FF08F2H   LINE      CODE     ---       #124
      00FF08F4H   LINE      CODE     ---       #127
      00FF08FCH   LINE      CODE     ---       #128
      00FF08FCH   LINE      CODE     ---       #129
      00FF08FCH   LINE      CODE     ---       #130
      00FF08FEH   LINE      CODE     ---       #133
      00FF08FEH   LINE      CODE     ---       #148
      00FF0917H   LINE      CODE     ---       #150
      00FF091FH   LINE      CODE     ---       #151
      00FF091FH   LINE      CODE     ---       #152
      00FF0921H   LINE      CODE     ---       #155
      00FF092DH   LINE      CODE     ---       #156
      00FF0935H   LINE      CODE     ---       #157
      00FF0935H   LINE      CODE     ---       #158
      00FF0937H   LINE      CODE     ---       #160
      00FF0937H   LINE      CODE     ---       #161
      00FF0937H   LINE      CODE     ---       #162
      00FF0939H   LINE      CODE     ---       #163
      00FF0939H   LINE      CODE     ---       #164
      00FF0939H   LINE      CODE     ---       #165
      00FF0939H   LINE      CODE     ---       #166
      00FF0939H   LINE      CODE     ---       #167
      00FF093CH   LINE      CODE     ---       #168
      00FF093EH   LINE      CODE     ---       #169
      00FF093EH   LINE      CODE     ---       #171
      00FF0941H   LINE      CODE     ---       #172
      ---         BLOCKEND  ---      ---       LVL=0

      00FF0A20H   BLOCK     CODE     ---       LVL=0
      R7          REGSYM    ---      BYTE      ep
      00FF0A20H   LINE      CODE     ---       #174
      00FF0A20H   LINE      CODE     ---       #175
      00FF0A20H   LINE      CODE     ---       #178
      00FF0A4BH   LINE      CODE     ---       #185
      00FF0A4BH   LINE      CODE     ---       #186
      00FF0A4DH   LINE      CODE     ---       #187
      00FF0A4DH   LINE      CODE     ---       #189
      00FF0A56H   LINE      CODE     ---       #190
      00FF0A5FH   LINE      CODE     ---       #193
      00FF0A5FH   LINE      CODE     ---       #208
      00FF0A79H   LINE      CODE     ---       #209
      00FF0A7EH   LINE      CODE     ---       #210
      00FF0A83H   LINE      CODE     ---       #211
      00FF0A83H   LINE      CODE     ---       #212
      00FF0A85H   LINE      CODE     ---       #215
      00FF0A85H   LINE      CODE     ---       #230
      00FF0A9FH   LINE      CODE     ---       #231
      00FF0AA4H   LINE      CODE     ---       #232
      00FF0AACH   LINE      CODE     ---       #233
      00FF0AB3H   LINE      CODE     ---       #234
      00FF0AB5H   LINE      CODE     ---       #236
      00FF0AB5H   LINE      CODE     ---       #237
      00FF0AB8H   LINE      CODE     ---       #238
      00FF0AB8H   LINE      CODE     ---       #239
      00FF0AB8H   LINE      CODE     ---       #241
      00FF0ABBH   LINE      CODE     ---       #242
      ---         BLOCKEND  ---      ---       LVL=0

      00FF0ABBH   BLOCK     CODE     ---       LVL=0
      R7          REGSYM    ---      BYTE      ep
      00FF0ABBH   LINE      CODE     ---       #244
      00FF0ABBH   LINE      CODE     ---       #245
L251 LINKER/LOCATER V4.66.93.0                                                        07/09/2022  13:57:45  PAGE 27


      00FF0ABBH   LINE      CODE     ---       #248
      00FF0AE6H   LINE      CODE     ---       #255
      00FF0AE6H   LINE      CODE     ---       #256
      00FF0AE8H   LINE      CODE     ---       #257
      00FF0AE8H   LINE      CODE     ---       #259
      00FF0AF1H   LINE      CODE     ---       #260
      00FF0AFAH   LINE      CODE     ---       #263
      00FF0AFAH   LINE      CODE     ---       #278
      00FF0B11H   LINE      CODE     ---       #279
      00FF0B16H   LINE      CODE     ---       #280
      00FF0B1BH   LINE      CODE     ---       #281
      00FF0B1BH   LINE      CODE     ---       #282
      00FF0B1DH   LINE      CODE     ---       #285
      00FF0B1DH   LINE      CODE     ---       #300
      00FF0B34H   LINE      CODE     ---       #301
      00FF0B39H   LINE      CODE     ---       #302
      00FF0B41H   LINE      CODE     ---       #303
      00FF0B48H   LINE      CODE     ---       #304
      00FF0B4AH   LINE      CODE     ---       #306
      00FF0B4AH   LINE      CODE     ---       #307
      00FF0B4DH   LINE      CODE     ---       #308
      00FF0B4DH   LINE      CODE     ---       #309
      00FF0B4DH   LINE      CODE     ---       #311
      00FF0B50H   LINE      CODE     ---       #312
      ---         BLOCKEND  ---      ---       LVL=0

      00FF1151H   BLOCK     CODE     ---       LVL=0
      00FF1153H   BLOCK     CODE     NEAR LAB  LVL=1
      R15         REGSYM    ---      BYTE      addr
      ---         BLOCKEND  ---      ---       LVL=1
      00FF1151H   LINE      CODE     ---       #314
      00FF1153H   LINE      CODE     ---       #315
      00FF1153H   LINE      CODE     ---       #318
      00FF117CH   LINE      CODE     ---       #325
      00FF117FH   LINE      CODE     ---       #326
      00FF1181H   LINE      CODE     ---       #327
      00FF1181H   LINE      CODE     ---       #329
      00FF1181H   LINE      CODE     ---       #330
      00FF1187H   LINE      CODE     ---       #331
      00FF118BH   LINE      CODE     ---       #333
      00FF118DH   LINE      CODE     ---       #334
      00FF118FH   LINE      CODE     ---       #337
      00FF1195H   LINE      CODE     ---       #338
      00FF1195H   LINE      CODE     ---       #340
      00FF1198H   LINE      CODE     ---       #341
      ---         BLOCKEND  ---      ---       LVL=0

      00FF0944H   BLOCK     CODE     ---       LVL=0
      00FF0944H   LINE      CODE     ---       #343
      00FF0944H   LINE      CODE     ---       #345
      00FF094FH   LINE      CODE     ---       #347
      00FF094FH   LINE      CODE     ---       #348
      00FF0952H   LINE      CODE     ---       #349
      00FF0952H   LINE      CODE     ---       #351
      00FF096BH   LINE      CODE     ---       #353
      00FF096BH   LINE      CODE     ---       #354
      00FF0975H   LINE      CODE     ---       #356
      00FF0975H   LINE      CODE     ---       #357
      00FF0975H   LINE      CODE     ---       #358
      00FF0977H   LINE      CODE     ---       #361
      00FF0983H   LINE      CODE     ---       #362
      00FF0987H   LINE      CODE     ---       #363
      00FF0987H   LINE      CODE     ---       #364
      00FF0989H   LINE      CODE     ---       #365
      00FF0989H   LINE      CODE     ---       #366
L251 LINKER/LOCATER V4.66.93.0                                                        07/09/2022  13:57:45  PAGE 28


      00FF0995H   LINE      CODE     ---       #367
      00FF0999H   LINE      CODE     ---       #368
      00FF099BH   LINE      CODE     ---       #369
      00FF099BH   LINE      CODE     ---       #370
      00FF09A9H   LINE      CODE     ---       #372
      00FF09A9H   LINE      CODE     ---       #373
      00FF09B5H   LINE      CODE     ---       #374
      00FF09B9H   LINE      CODE     ---       #375
      00FF09BBH   LINE      CODE     ---       #376
      00FF09BBH   LINE      CODE     ---       #377
      00FF09C7H   LINE      CODE     ---       #378
      00FF09CBH   LINE      CODE     ---       #379
      00FF09CDH   LINE      CODE     ---       #380
      00FF09CDH   LINE      CODE     ---       #381
      00FF09D7H   LINE      CODE     ---       #383
      00FF09DBH   LINE      CODE     ---       #384
      00FF09E0H   LINE      CODE     ---       #385
      00FF09E2H   LINE      CODE     ---       #388
      00FF09EEH   LINE      CODE     ---       #389
      00FF09F2H   LINE      CODE     ---       #390
      00FF09F2H   LINE      CODE     ---       #391
      00FF09F4H   LINE      CODE     ---       #392
      00FF09F4H   LINE      CODE     ---       #393
      00FF09F4H   LINE      CODE     ---       #394
      00FF09F6H   LINE      CODE     ---       #395
      00FF09F6H   LINE      CODE     ---       #396
      00FF09F6H   LINE      CODE     ---       #397
      00FF09F6H   LINE      CODE     ---       #398
      00FF0A02H   LINE      CODE     ---       #399
      00FF0A0AH   LINE      CODE     ---       #400
      00FF0A0CH   LINE      CODE     ---       #401
      00FF0A0CH   LINE      CODE     ---       #402
      00FF0A0FH   LINE      CODE     ---       #403
      00FF0A0FH   LINE      CODE     ---       #404
      00FF0A0FH   LINE      CODE     ---       #406
      00FF0A19H   LINE      CODE     ---       #408
      00FF0A1DH   LINE      CODE     ---       #409
      00FF0A1DH   LINE      CODE     ---       #411
      00FF0A20H   LINE      CODE     ---       #412
      ---         BLOCKEND  ---      ---       LVL=0

      00FF1B9AH   BLOCK     CODE     ---       LVL=0
      00FF1B9AH   LINE      CODE     ---       #414
      00FF1B9AH   LINE      CODE     ---       #416
      ---         BLOCKEND  ---      ---       LVL=0

      00FF1014H   BLOCK     CODE     ---       LVL=0
      00FF1014H   LINE      CODE     ---       #419
      00FF1014H   LINE      CODE     ---       #421
      00FF103DH   LINE      CODE     ---       #428
      00FF1040H   LINE      CODE     ---       #429
      00FF1040H   LINE      CODE     ---       #430
      00FF1040H   LINE      CODE     ---       #432
      00FF1047H   LINE      CODE     ---       #434
      00FF104FH   LINE      CODE     ---       #435
      00FF104FH   LINE      CODE     ---       #436
      00FF1051H   LINE      CODE     ---       #439
      00FF105DH   LINE      CODE     ---       #440
      00FF1065H   LINE      CODE     ---       #441
      00FF1065H   LINE      CODE     ---       #443
      00FF1068H   LINE      CODE     ---       #444
      ---         BLOCKEND  ---      ---       LVL=0

      00FF0C6EH   BLOCK     CODE     ---       LVL=0
      00FF0C6EH   LINE      CODE     ---       #446
L251 LINKER/LOCATER V4.66.93.0                                                        07/09/2022  13:57:45  PAGE 29


      00FF0C6EH   LINE      CODE     ---       #448
      00FF0C97H   LINE      CODE     ---       #455
      00FF0C9AH   LINE      CODE     ---       #456
      00FF0C9AH   LINE      CODE     ---       #457
      00FF0C9AH   LINE      CODE     ---       #459
      00FF0CA1H   LINE      CODE     ---       #461
      00FF0CA7H   LINE      CODE     ---       #462
      00FF0CACH   LINE      CODE     ---       #463
      00FF0CB0H   LINE      CODE     ---       #465
      00FF0CB8H   LINE      CODE     ---       #466
      00FF0CC0H   LINE      CODE     ---       #467
      00FF0CC8H   LINE      CODE     ---       #490
      00FF0CD0H   LINE      CODE     ---       #491
      00FF0CD7H   LINE      CODE     ---       #492
      00FF0CDFH   LINE      CODE     ---       #514
      00FF0CE6H   LINE      CODE     ---       #515
      00FF0CE8H   LINE      CODE     ---       #518
      00FF0CEEH   LINE      CODE     ---       #519
      00FF0CF4H   LINE      CODE     ---       #520
      00FF0CF8H   LINE      CODE     ---       #521
      00FF0CF8H   LINE      CODE     ---       #523
      00FF0CFBH   LINE      CODE     ---       #524
      ---         BLOCKEND  ---      ---       LVL=0

      00FF121FH   BLOCK     CODE     ---       LVL=0
      00FF121FH   LINE      CODE     ---       #526
      00FF121FH   LINE      CODE     ---       #528
      00FF1243H   LINE      CODE     ---       #534
      00FF1246H   LINE      CODE     ---       #535
      00FF1246H   LINE      CODE     ---       #536
      00FF1246H   LINE      CODE     ---       #538
      00FF1252H   LINE      CODE     ---       #539
      00FF125AH   LINE      CODE     ---       #541
      00FF125DH   LINE      CODE     ---       #542
      ---         BLOCKEND  ---      ---       LVL=0

      00FF170FH   BLOCK     CODE     ---       LVL=0
      00FF170FH   LINE      CODE     ---       #544
      00FF170FH   LINE      CODE     ---       #546
      00FF1731H   LINE      CODE     ---       #552
      00FF1734H   LINE      CODE     ---       #553
      00FF1734H   LINE      CODE     ---       #554
      00FF1734H   LINE      CODE     ---       #556
      00FF1737H   LINE      CODE     ---       #557
      ---         BLOCKEND  ---      ---       LVL=0

      00FF1B9DH   BLOCK     CODE     ---       LVL=0
      00FF1B9DH   LINE      CODE     ---       #559
      00FF1B9DH   LINE      CODE     ---       #561
      ---         BLOCKEND  ---      ---       LVL=0

      ---         MODULE    ---      ---       usb_req_vendor
      00FF1BA0H   PUBLIC    CODE     ---       usb_req_vendor
      000000D0H   SFRSYM    DATA     BYTE      PSW
      0000009DH   SFRSYM    DATA     BYTE      IRCBAND
      00000097H   SFRSYM    DATA     BYTE      AUXR2
      000000EFH   SFRSYM    DATA     BYTE      AUXINTIF
      000000FDH   SFRSYM    DATA     BYTE      S4CON
      000000ACH   SFRSYM    DATA     BYTE      S3CON
      0000009AH   SFRSYM    DATA     BYTE      S2CON
      000000B7H   SFRSYM    DATA     BYTE      IPH
      000000CDH   SFRSYM    DATA     BYTE      SPSTAT
      000000DDH   SFRSYM    DATA     BYTE      T4T3M
      000000C1H   SFRSYM    DATA     BYTE      WDT_CONTR
      000000DFH   SFRSYM    DATA     BYTE      IP3
L251 LINKER/LOCATER V4.66.93.0                                                        07/09/2022  13:57:45  PAGE 30


      000000F4H   SFRSYM    DATA     BYTE      USBCON
      000000B5H   SFRSYM    DATA     BYTE      IP2
      000000FFH   SFRSYM    DATA     BYTE      RSTCFG
      000000F9H   SFRSYM    DATA     BYTE      LINICR
      0000008EH   SFRSYM    DATA     BYTE      AUXR
      000000AFH   SFRSYM    DATA     BYTE      IE2
      00000088H   SFRSYM    DATA     BYTE      TCON
      00000098H   SFRSYM    DATA     BYTE      SCON
      000000F1H   SFRSYM    DATA     BYTE      CANICR
      00000087H   SFRSYM    DATA     BYTE      PCON
      000000BCH   SFRSYM    DATA     BYTE      ADC_CONTR
      000000E7H   SFRSYM    DATA     BYTE      CMPCR2
      000000E6H   SFRSYM    DATA     BYTE      CMPCR1
      000000B8H   SFRSYM    DATA     BYTE      IP
      0000008FH   SFRSYM    DATA     BYTE      INTCLKO
      000000EEH   SFRSYM    DATA     BYTE      IP3H
      000000B6H   SFRSYM    DATA     BYTE      IP2H
      000000A8H   SFRSYM    DATA     BYTE      IE
      000000BBH   SFRSYM    DATA     BYTE      P_SW3
      000000BAH   SFRSYM    DATA     BYTE      P_SW2
      000000A2H   SFRSYM    DATA     BYTE      P_SW1
      000000CEH   SFRSYM    DATA     BYTE      SPCTL
      000000F8H   SFRSYM    DATA     BYTE      P7
      000000E8H   SFRSYM    DATA     BYTE      P6
      000000C8H   SFRSYM    DATA     BYTE      P5
      000000C0H   SFRSYM    DATA     BYTE      P4
      000000B0H   SFRSYM    DATA     BYTE      P3
      000000A0H   SFRSYM    DATA     BYTE      P2
      00000090H   SFRSYM    DATA     BYTE      P1
      00000080H   SFRSYM    DATA     BYTE      P0

      00FF1BA0H   BLOCK     CODE     ---       LVL=0
      00FF1BA0H   LINE      CODE     ---       #5
      00FF1BA0H   LINE      CODE     ---       #7
      ---         BLOCKEND  ---      ---       LVL=0

      ---         MODULE    ---      ---       util
      00FF1B14H   PUBLIC    CODE     ---       LCD12864_DisplayClear
      00FF143CH   PUBLIC    CODE     ---       OLED12864_ScrollRight
      00FF19DDH   PUBLIC    CODE     ---       OLED12864_DisplayOff
      00FF14ACH   PUBLIC    CODE     ---       OLED12864_ScrollLeft
      00FF17A7H   PUBLIC    CODE     ---       OLED12864_SetAddressMode
      00FF17C6H   PUBLIC    CODE     ---       OLED12864_SetContrast
      00FF19F4H   PUBLIC    CODE     ---       LCD12864_AutoWrapOff
      00FF125DH   PUBLIC    CODE     ---       OLED12864_ShowPicture
      00FF18D5H   PUBLIC    CODE     ---       OLED12864_ScrollStart
      00FF1581H   PUBLIC    CODE     ---       SEG7_ShowFloat
      00FF119BH   PUBLIC    CODE     ---       SEG7_ShowString
      00FF154EH   PUBLIC    CODE     ---       SEG7_ShowCode
      00FF129BH   PUBLIC    CODE     ---       LED40_SendData
      00FF18EDH   PUBLIC    CODE     ---       OLED12864_DisplayOn
      00FF17E5H   PUBLIC    CODE     ---       LCD12864_ReverseLine
      00FF1A0BH   PUBLIC    CODE     ---       OLED12864_ScrollStop
      00FF12D9H   PUBLIC    CODE     ---       LED64_SendData
      00FF15B2H   PUBLIC    CODE     ---       printf_hid
      00FF1354H   PUBLIC    CODE     ---       SEG7_ShowLong
      00FF1905H   PUBLIC    CODE     ---       LCD12864_ScrollRight
      00FF191DH   PUBLIC    CODE     ---       LCD12864_AutoWrapOn
      00FF1A22H   PUBLIC    CODE     ---       LCD12864_DisplayOff
      00FF1519H   PUBLIC    CODE     ---       reverse2
      00FF1A39H   PUBLIC    CODE     ---       LCD12864_ScrollLeft
      00FF1A50H   PUBLIC    CODE     ---       OLED12864_HorizontalMirror
      00FF10B9H   PUBLIC    CODE     ---       LCD12864_ShowPicture
      00FF1474H   PUBLIC    CODE     ---       OLED12864_ScrollUp
      00FF1A67H   PUBLIC    CODE     ---       OLED12864_DisplayContent
L251 LINKER/LOCATER V4.66.93.0                                                        07/09/2022  13:57:45  PAGE 31


      00FF1B26H   PUBLIC    CODE     ---       OLED12864_DisplayReverse
      00FF1935H   PUBLIC    CODE     ---       OLED12864_VerticalMirror
      00FF194DH   PUBLIC    CODE     ---       LCD12864_CursorReturnHome
      00FF1965H   PUBLIC    CODE     ---       OLED12864_DisplayEntire
      00FF197DH   PUBLIC    CODE     ---       LCD12864_DisplayOn
      00FF1995H   PUBLIC    CODE     ---       LCD12864_CursorMoveRight
      00FF138FH   PUBLIC    CODE     ---       LCD12864_ShowString
      00FF1A7EH   PUBLIC    CODE     ---       LCD12864_CursorOff
      00FF19ADH   PUBLIC    CODE     ---       sleep_ms
      00FF1A95H   PUBLIC    CODE     ---       LCD12864_CursorMoveLeft
      00FF1822H   PUBLIC    CODE     ---       sleep_us
      00FF175DH   PUBLIC    CODE     ---       LCD12864_ScrollUp
      00FF19C5H   PUBLIC    CODE     ---       LCD12864_CursorOn
      00000049H   PUBLIC    EDATA    BYTE      ?SEG7_ShowString?BYTE
      00000075H   PUBLIC    EDATA    BYTE      ?printf_hid?BYTE
      000000D0H   SFRSYM    DATA     BYTE      PSW
      0000009DH   SFRSYM    DATA     BYTE      IRCBAND
      00000097H   SFRSYM    DATA     BYTE      AUXR2
      000000EFH   SFRSYM    DATA     BYTE      AUXINTIF
      000000FDH   SFRSYM    DATA     BYTE      S4CON
      000000ACH   SFRSYM    DATA     BYTE      S3CON
      0000009AH   SFRSYM    DATA     BYTE      S2CON
      000000B7H   SFRSYM    DATA     BYTE      IPH
      000000CDH   SFRSYM    DATA     BYTE      SPSTAT
      000000DDH   SFRSYM    DATA     BYTE      T4T3M
      000000C1H   SFRSYM    DATA     BYTE      WDT_CONTR
      000000DFH   SFRSYM    DATA     BYTE      IP3
      000000F4H   SFRSYM    DATA     BYTE      USBCON
      000000B5H   SFRSYM    DATA     BYTE      IP2
      000000FFH   SFRSYM    DATA     BYTE      RSTCFG
      000000F9H   SFRSYM    DATA     BYTE      LINICR
      0000008EH   SFRSYM    DATA     BYTE      AUXR
      000000AFH   SFRSYM    DATA     BYTE      IE2
      00000088H   SFRSYM    DATA     BYTE      TCON
      00000098H   SFRSYM    DATA     BYTE      SCON
      000000F1H   SFRSYM    DATA     BYTE      CANICR
      00000087H   SFRSYM    DATA     BYTE      PCON
      000000BCH   SFRSYM    DATA     BYTE      ADC_CONTR
      000000E7H   SFRSYM    DATA     BYTE      CMPCR2
      000000E6H   SFRSYM    DATA     BYTE      CMPCR1
      000000B8H   SFRSYM    DATA     BYTE      IP
      0000008FH   SFRSYM    DATA     BYTE      INTCLKO
      000000EEH   SFRSYM    DATA     BYTE      IP3H
      000000B6H   SFRSYM    DATA     BYTE      IP2H
      000000A8H   SFRSYM    DATA     BYTE      IE
      000000BBH   SFRSYM    DATA     BYTE      P_SW3
      000000BAH   SFRSYM    DATA     BYTE      P_SW2
      000000A2H   SFRSYM    DATA     BYTE      P_SW1
      000000CEH   SFRSYM    DATA     BYTE      SPCTL
      000000F8H   SFRSYM    DATA     BYTE      P7
      000000E8H   SFRSYM    DATA     BYTE      P6
      000000C8H   SFRSYM    DATA     BYTE      P5
      000000C0H   SFRSYM    DATA     BYTE      P4
      000000B0H   SFRSYM    DATA     BYTE      P3
      000000A0H   SFRSYM    DATA     BYTE      P2
      00000090H   SFRSYM    DATA     BYTE      P1
      00000080H   SFRSYM    DATA     BYTE      P0
      00FF1872H   SYMBOL    CODE     ---       OLED12864_SetHeader
      00FF0B50H   SYMBOL    CODE     ---       OLED12864_SetBuffer
      00FF188BH   SYMBOL    CODE     ---       LCD12864_SetHeader
      00FF0BDFH   SYMBOL    CODE     ---       LCD12864_SetBuffer
      00FF18A4H   SYMBOL    CODE     ---       SEG7_SetHeader

      00FF1519H   BLOCK     CODE     ---       LVL=0
      00000079H   SYMBOL    EDATA    WORD      w
L251 LINKER/LOCATER V4.66.93.0                                                        07/09/2022  13:57:45  PAGE 32


      00FF151DH   BLOCK     CODE     NEAR LAB  LVL=1
      0000007BH   SYMBOL    EDATA    WORD      ret
      ---         BLOCKEND  ---      ---       LVL=1
      00FF1519H   LINE      CODE     ---       #17
      00FF151DH   LINE      CODE     ---       #18
      00FF151DH   LINE      CODE     ---       #21
      00FF1533H   LINE      CODE     ---       #22
      00FF1549H   LINE      CODE     ---       #24
      00FF154DH   LINE      CODE     ---       #25
      ---         BLOCKEND  ---      ---       LVL=0

      00FF1822H   BLOCK     CODE     ---       LVL=0
      WR6         REGSYM    ---      WORD      n
      00FF1822H   LINE      CODE     ---       #27
      00FF1822H   LINE      CODE     ---       #29
      00FF1824H   LINE      CODE     ---       #38
      00FF1825H   LINE      CODE     ---       #39
      00FF1826H   LINE      CODE     ---       #40
      00FF1827H   LINE      CODE     ---       #41
      00FF1828H   LINE      CODE     ---       #43
      00FF1829H   LINE      CODE     ---       #44
      00FF182AH   LINE      CODE     ---       #45
      00FF182BH   LINE      CODE     ---       #46
      00FF182CH   LINE      CODE     ---       #47
      00FF182DH   LINE      CODE     ---       #49
      00FF182EH   LINE      CODE     ---       #50
      00FF182FH   LINE      CODE     ---       #51
      00FF1830H   LINE      CODE     ---       #52
      00FF1831H   LINE      CODE     ---       #53
      00FF1832H   LINE      CODE     ---       #55
      00FF1833H   LINE      CODE     ---       #56
      00FF1834H   LINE      CODE     ---       #57
      00FF1835H   LINE      CODE     ---       #58
      00FF1836H   LINE      CODE     ---       #59
      00FF183EH   LINE      CODE     ---       #60
      ---         BLOCKEND  ---      ---       LVL=0

      00FF19ADH   BLOCK     CODE     ---       LVL=0
      WR14        REGSYM    ---      WORD      n
      00FF19ADH   LINE      CODE     ---       #62
      00FF19B1H   LINE      CODE     ---       #64
      00FF19C2H   LINE      CODE     ---       #66
      ---         BLOCKEND  ---      ---       LVL=0

      00FF18A4H   BLOCK     CODE     ---       LVL=0
      00FF18A4H   LINE      CODE     ---       #68
      00FF18A4H   LINE      CODE     ---       #70
      00FF18AAH   LINE      CODE     ---       #71
      00FF18B0H   LINE      CODE     ---       #72
      00FF18B6H   LINE      CODE     ---       #73
      00FF18BCH   LINE      CODE     ---       #74
      ---         BLOCKEND  ---      ---       LVL=0

      00FF1354H   BLOCK     CODE     ---       LVL=0
      000000B8H   SYMBOL    EDATA    LONG      n
      R15         REGSYM    ---      CHAR      radix
      00FF1354H   LINE      CODE     ---       #76
      00FF135CH   LINE      CODE     ---       #78
      00FF135FH   LINE      CODE     ---       #79
      00FF1365H   LINE      CODE     ---       #80
      00FF136BH   LINE      CODE     ---       #81
      00FF1371H   LINE      CODE     ---       #82
      00FF1376H   LINE      CODE     ---       #83
      00FF1389H   LINE      CODE     ---       #85
      00FF138CH   LINE      CODE     ---       #86
L251 LINKER/LOCATER V4.66.93.0                                                        07/09/2022  13:57:45  PAGE 33


      ---         BLOCKEND  ---      ---       LVL=0

      00FF1581H   BLOCK     CODE     ---       LVL=0
      DR12        REGSYM    ---      FLOAT     f
      00FF1581H   LINE      CODE     ---       #88
      00FF1585H   LINE      CODE     ---       #90
      00FF1588H   LINE      CODE     ---       #91
      00FF158EH   LINE      CODE     ---       #92
      00FF1594H   LINE      CODE     ---       #93
      00FF1599H   LINE      CODE     ---       #94
      00FF159DH   LINE      CODE     ---       #95
      00FF15ACH   LINE      CODE     ---       #97
      00FF15AFH   LINE      CODE     ---       #98
      ---         BLOCKEND  ---      ---       LVL=0

      00FF154EH   BLOCK     CODE     ---       LVL=0
      REG=3       REGSYM    ---      ---       cod
      00FF154EH   LINE      CODE     ---       #100
      00FF1550H   LINE      CODE     ---       #102
      00FF1553H   LINE      CODE     ---       #103
      00FF1559H   LINE      CODE     ---       #104
      00FF155EH   LINE      CODE     ---       #105
      00FF1562H   LINE      CODE     ---       #106
      00FF1566H   LINE      CODE     ---       #107
      00FF157BH   LINE      CODE     ---       #109
      00FF157EH   LINE      CODE     ---       #110
      ---         BLOCKEND  ---      ---       LVL=0

      00FF119BH   BLOCK     CODE     ---       LVL=0
      00000049H   SYMBOL    EDATA    ---       fmt
      00FF11A1H   BLOCK     CODE     NEAR LAB  LVL=1
      REG=1       REGSYM    ---      ---       va
      WR14        REGSYM    ---      INT       ret
      ---         BLOCKEND  ---      ---       LVL=1
      00FF119BH   LINE      CODE     ---       #112
      00FF11A1H   LINE      CODE     ---       #113
      00FF11A1H   LINE      CODE     ---       #117
      00FF11A4H   LINE      CODE     ---       #118
      00FF11AAH   LINE      CODE     ---       #119
      00FF11AFH   LINE      CODE     ---       #120
      00FF11B3H   LINE      CODE     ---       #121
      00FF11B7H   LINE      CODE     ---       #123
      00FF11BFH   LINE      CODE     ---       #124
      00FF11D8H   LINE      CODE     ---       #127
      00FF11DBH   LINE      CODE     ---       #129
      00FF11DDH   LINE      CODE     ---       #130
      ---         BLOCKEND  ---      ---       LVL=0

      00FF15B2H   BLOCK     CODE     ---       LVL=0
      00000075H   SYMBOL    EDATA    ---       fmt
      00FF15B8H   BLOCK     CODE     NEAR LAB  LVL=1
      REG=1       REGSYM    ---      ---       va
      WR14        REGSYM    ---      INT       ret
      ---         BLOCKEND  ---      ---       LVL=1
      00FF15B2H   LINE      CODE     ---       #132
      00FF15B8H   LINE      CODE     ---       #133
      00FF15B8H   LINE      CODE     ---       #137
      00FF15C0H   LINE      CODE     ---       #138
      00FF15D9H   LINE      CODE     ---       #141
      00FF15DCH   LINE      CODE     ---       #143
      00FF15DEH   LINE      CODE     ---       #144
      ---         BLOCKEND  ---      ---       LVL=0

      00FF129BH   BLOCK     CODE     ---       LVL=0
      REG=0       REGSYM    ---      ---       dat
L251 LINKER/LOCATER V4.66.93.0                                                        07/09/2022  13:57:45  PAGE 34


      R10         REGSYM    ---      BYTE      size
      00FF129BH   LINE      CODE     ---       #146
      00FF129DH   LINE      CODE     ---       #148
      00FF12A2H   LINE      CODE     ---       #149
      00FF12A5H   LINE      CODE     ---       #151
      00FF12ABH   LINE      CODE     ---       #152
      00FF12B1H   LINE      CODE     ---       #153
      00FF12B7H   LINE      CODE     ---       #154
      00FF12BDH   LINE      CODE     ---       #155
      00FF12C3H   LINE      CODE     ---       #156
      00FF12D6H   LINE      CODE     ---       #158
      ---         BLOCKEND  ---      ---       LVL=0

      00FF12D9H   BLOCK     CODE     ---       LVL=0
      REG=0       REGSYM    ---      ---       dat
      R10         REGSYM    ---      BYTE      size
      00FF12D9H   LINE      CODE     ---       #161
      00FF12DBH   LINE      CODE     ---       #163
      00FF12E0H   LINE      CODE     ---       #164
      00FF12E3H   LINE      CODE     ---       #166
      00FF12E9H   LINE      CODE     ---       #167
      00FF12EFH   LINE      CODE     ---       #168
      00FF12F5H   LINE      CODE     ---       #169
      00FF12FBH   LINE      CODE     ---       #170
      00FF1301H   LINE      CODE     ---       #171
      00FF1314H   LINE      CODE     ---       #173
      ---         BLOCKEND  ---      ---       LVL=0

      00FF188BH   BLOCK     CODE     ---       LVL=0
      00FF188BH   LINE      CODE     ---       #176
      00FF188BH   LINE      CODE     ---       #178
      00FF1891H   LINE      CODE     ---       #179
      00FF1897H   LINE      CODE     ---       #180
      00FF189DH   LINE      CODE     ---       #181
      00FF18A3H   LINE      CODE     ---       #182
      ---         BLOCKEND  ---      ---       LVL=0

      00FF1A22H   BLOCK     CODE     ---       LVL=0
      00FF1A22H   LINE      CODE     ---       #184
      00FF1A22H   LINE      CODE     ---       #186
      00FF1A25H   LINE      CODE     ---       #187
      00FF1A2BH   LINE      CODE     ---       #188
      00FF1A31H   LINE      CODE     ---       #189
      00FF1A36H   LINE      CODE     ---       #191
      ---         BLOCKEND  ---      ---       LVL=0

      00FF197DH   BLOCK     CODE     ---       LVL=0
      00FF197DH   LINE      CODE     ---       #194
      00FF197DH   LINE      CODE     ---       #196
      00FF1980H   LINE      CODE     ---       #197
      00FF1986H   LINE      CODE     ---       #198
      00FF198CH   LINE      CODE     ---       #199
      00FF1992H   LINE      CODE     ---       #201
      ---         BLOCKEND  ---      ---       LVL=0

      00FF1A7EH   BLOCK     CODE     ---       LVL=0
      00FF1A7EH   LINE      CODE     ---       #204
      00FF1A7EH   LINE      CODE     ---       #206
      00FF1A81H   LINE      CODE     ---       #207
      00FF1A87H   LINE      CODE     ---       #208
      00FF1A8DH   LINE      CODE     ---       #209
      00FF1A92H   LINE      CODE     ---       #211
      ---         BLOCKEND  ---      ---       LVL=0

      00FF19C5H   BLOCK     CODE     ---       LVL=0
L251 LINKER/LOCATER V4.66.93.0                                                        07/09/2022  13:57:45  PAGE 35


      00FF19C5H   LINE      CODE     ---       #214
      00FF19C5H   LINE      CODE     ---       #216
      00FF19C8H   LINE      CODE     ---       #217
      00FF19CEH   LINE      CODE     ---       #218
      00FF19D4H   LINE      CODE     ---       #219
      00FF19DAH   LINE      CODE     ---       #221
      ---         BLOCKEND  ---      ---       LVL=0

      00FF1A95H   BLOCK     CODE     ---       LVL=0
      00FF1A95H   LINE      CODE     ---       #224
      00FF1A95H   LINE      CODE     ---       #226
      00FF1A98H   LINE      CODE     ---       #227
      00FF1A9EH   LINE      CODE     ---       #228
      00FF1AA4H   LINE      CODE     ---       #229
      00FF1AA9H   LINE      CODE     ---       #231
      ---         BLOCKEND  ---      ---       LVL=0

      00FF1995H   BLOCK     CODE     ---       LVL=0
      00FF1995H   LINE      CODE     ---       #234
      00FF1995H   LINE      CODE     ---       #236
      00FF1998H   LINE      CODE     ---       #237
      00FF199EH   LINE      CODE     ---       #238
      00FF19A4H   LINE      CODE     ---       #239
      00FF19AAH   LINE      CODE     ---       #241
      ---         BLOCKEND  ---      ---       LVL=0

      00FF194DH   BLOCK     CODE     ---       LVL=0
      00FF194DH   LINE      CODE     ---       #244
      00FF194DH   LINE      CODE     ---       #246
      00FF1950H   LINE      CODE     ---       #247
      00FF1956H   LINE      CODE     ---       #248
      00FF195CH   LINE      CODE     ---       #249
      00FF1962H   LINE      CODE     ---       #251
      ---         BLOCKEND  ---      ---       LVL=0

      00FF1A39H   BLOCK     CODE     ---       LVL=0
      00FF1A39H   LINE      CODE     ---       #254
      00FF1A39H   LINE      CODE     ---       #256
      00FF1A3CH   LINE      CODE     ---       #257
      00FF1A42H   LINE      CODE     ---       #258
      00FF1A48H   LINE      CODE     ---       #259
      00FF1A4DH   LINE      CODE     ---       #261
      ---         BLOCKEND  ---      ---       LVL=0

      00FF1905H   BLOCK     CODE     ---       LVL=0
      00FF1905H   LINE      CODE     ---       #264
      00FF1905H   LINE      CODE     ---       #266
      00FF1908H   LINE      CODE     ---       #267
      00FF190EH   LINE      CODE     ---       #268
      00FF1914H   LINE      CODE     ---       #269
      00FF191AH   LINE      CODE     ---       #271
      ---         BLOCKEND  ---      ---       LVL=0

      00FF175DH   BLOCK     CODE     ---       LVL=0
      R15         REGSYM    ---      BYTE      line
      00FF175DH   LINE      CODE     ---       #274
      00FF1761H   LINE      CODE     ---       #276
      00FF1764H   LINE      CODE     ---       #277
      00FF176AH   LINE      CODE     ---       #278
      00FF1770H   LINE      CODE     ---       #279
      00FF1776H   LINE      CODE     ---       #280
      00FF177CH   LINE      CODE     ---       #282
      00FF177FH   LINE      CODE     ---       #283
      ---         BLOCKEND  ---      ---       LVL=0

L251 LINKER/LOCATER V4.66.93.0                                                        07/09/2022  13:57:45  PAGE 36


      00FF19F4H   BLOCK     CODE     ---       LVL=0
      00FF19F4H   LINE      CODE     ---       #285
      00FF19F4H   LINE      CODE     ---       #287
      00FF19F7H   LINE      CODE     ---       #288
      00FF19FDH   LINE      CODE     ---       #289
      00FF1A03H   LINE      CODE     ---       #290
      00FF1A08H   LINE      CODE     ---       #292
      ---         BLOCKEND  ---      ---       LVL=0

      00FF191DH   BLOCK     CODE     ---       LVL=0
      00FF191DH   LINE      CODE     ---       #295
      00FF191DH   LINE      CODE     ---       #297
      00FF1920H   LINE      CODE     ---       #298
      00FF1926H   LINE      CODE     ---       #299
      00FF192CH   LINE      CODE     ---       #300
      00FF1932H   LINE      CODE     ---       #302
      ---         BLOCKEND  ---      ---       LVL=0

      00FF17E5H   BLOCK     CODE     ---       LVL=0
      R15         REGSYM    ---      BYTE      line
      00FF17E5H   LINE      CODE     ---       #305
      00FF17E9H   LINE      CODE     ---       #307
      00FF17ECH   LINE      CODE     ---       #308
      00FF17F2H   LINE      CODE     ---       #309
      00FF17F8H   LINE      CODE     ---       #310
      00FF17FEH   LINE      CODE     ---       #312
      00FF1801H   LINE      CODE     ---       #313
      ---         BLOCKEND  ---      ---       LVL=0

      00FF1B14H   BLOCK     CODE     ---       LVL=0
      00FF1B14H   LINE      CODE     ---       #315
      00FF1B14H   LINE      CODE     ---       #317
      00FF1B17H   LINE      CODE     ---       #318
      00FF1B1DH   LINE      CODE     ---       #319
      00FF1B23H   LINE      CODE     ---       #321
      ---         BLOCKEND  ---      ---       LVL=0

      00FF0BDFH   BLOCK     CODE     ---       LVL=0
      REG=3       REGSYM    ---      ---       dat
      0000001AH   SYMBOL    EDATA    WORD      size
      00FF0BE7H   BLOCK     CODE     NEAR LAB  LVL=1
      0000001CH   SYMBOL    EDATA    BYTE      cnt
      0000001DH   SYMBOL    EDATA    WORD      addr
      ---         BLOCKEND  ---      ---       LVL=1
      00FF0BDFH   LINE      CODE     ---       #324
      00FF0BE7H   LINE      CODE     ---       #325
      00FF0BE7H   LINE      CODE     ---       #329
      00FF0BEDH   LINE      CODE     ---       #330
      00FF0BEFH   LINE      CODE     ---       #332
      00FF0BF5H   LINE      CODE     ---       #333
      00FF0BFFH   LINE      CODE     ---       #334
      00FF0C03H   LINE      CODE     ---       #336
      00FF0C06H   LINE      CODE     ---       #337
      00FF0C14H   LINE      CODE     ---       #338
      00FF0C1AH   LINE      CODE     ---       #339
      00FF0C29H   LINE      CODE     ---       #340
      00FF0C40H   LINE      CODE     ---       #342
      00FF0C43H   LINE      CODE     ---       #344
      00FF0C4BH   LINE      CODE     ---       #345
      00FF0C59H   LINE      CODE     ---       #346
      00FF0C63H   LINE      CODE     ---       #347
      00FF0C6BH   LINE      CODE     ---       #348
      ---         BLOCKEND  ---      ---       LVL=0

      00FF138FH   BLOCK     CODE     ---       LVL=0
L251 LINKER/LOCATER V4.66.93.0                                                        07/09/2022  13:57:45  PAGE 37


      000000C0H   SYMBOL    EDATA    BYTE      x
      000000C1H   SYMBOL    EDATA    BYTE      y
      REG=3       REGSYM    ---      ---       str
      00FF138FH   LINE      CODE     ---       #350
      00FF139BH   LINE      CODE     ---       #352
      00FF13A5H   LINE      CODE     ---       #354
      00FF13A8H   LINE      CODE     ---       #355
      00FF13AEH   LINE      CODE     ---       #356
      00FF13B4H   LINE      CODE     ---       #357
      00FF13BCH   LINE      CODE     ---       #358
      00FF13C4H   LINE      CODE     ---       #360
      00FF13C7H   LINE      CODE     ---       #361
      ---         BLOCKEND  ---      ---       LVL=0

      00FF10B9H   BLOCK     CODE     ---       LVL=0
      R12         REGSYM    ---      BYTE      x
      R13         REGSYM    ---      BYTE      y
      R14         REGSYM    ---      BYTE      cx
      R15         REGSYM    ---      BYTE      cy
      REG=7       REGSYM    ---      ---       dat
      00FF10B9H   LINE      CODE     ---       #363
      00FF10C5H   LINE      CODE     ---       #365
      00FF10D9H   LINE      CODE     ---       #367
      00FF10DCH   LINE      CODE     ---       #368
      00FF10E2H   LINE      CODE     ---       #369
      00FF10E8H   LINE      CODE     ---       #370
      00FF10EEH   LINE      CODE     ---       #371
      00FF10F4H   LINE      CODE     ---       #372
      00FF10FAH   LINE      CODE     ---       #373
      00FF1100H   LINE      CODE     ---       #375
      00FF1103H   LINE      CODE     ---       #376
      ---         BLOCKEND  ---      ---       LVL=0

      00FF1872H   BLOCK     CODE     ---       LVL=0
      00FF1872H   LINE      CODE     ---       #378
      00FF1872H   LINE      CODE     ---       #380
      00FF1878H   LINE      CODE     ---       #381
      00FF187EH   LINE      CODE     ---       #382
      00FF1884H   LINE      CODE     ---       #383
      00FF188AH   LINE      CODE     ---       #384
      ---         BLOCKEND  ---      ---       LVL=0

      00FF19DDH   BLOCK     CODE     ---       LVL=0
      00FF19DDH   LINE      CODE     ---       #386
      00FF19DDH   LINE      CODE     ---       #388
      00FF19E0H   LINE      CODE     ---       #389
      00FF19E6H   LINE      CODE     ---       #390
      00FF19ECH   LINE      CODE     ---       #391
      00FF19F1H   LINE      CODE     ---       #393
      ---         BLOCKEND  ---      ---       LVL=0

      00FF18EDH   BLOCK     CODE     ---       LVL=0
      00FF18EDH   LINE      CODE     ---       #396
      00FF18EDH   LINE      CODE     ---       #398
      00FF18F0H   LINE      CODE     ---       #399
      00FF18F6H   LINE      CODE     ---       #400
      00FF18FCH   LINE      CODE     ---       #401
      00FF1902H   LINE      CODE     ---       #403
      ---         BLOCKEND  ---      ---       LVL=0

      00FF1A67H   BLOCK     CODE     ---       LVL=0
      00FF1A67H   LINE      CODE     ---       #406
      00FF1A67H   LINE      CODE     ---       #408
      00FF1A6AH   LINE      CODE     ---       #409
      00FF1A70H   LINE      CODE     ---       #410
L251 LINKER/LOCATER V4.66.93.0                                                        07/09/2022  13:57:45  PAGE 38


      00FF1A76H   LINE      CODE     ---       #411
      00FF1A7BH   LINE      CODE     ---       #413
      ---         BLOCKEND  ---      ---       LVL=0

      00FF1965H   BLOCK     CODE     ---       LVL=0
      00FF1965H   LINE      CODE     ---       #416
      00FF1965H   LINE      CODE     ---       #418
      00FF1968H   LINE      CODE     ---       #419
      00FF196EH   LINE      CODE     ---       #420
      00FF1974H   LINE      CODE     ---       #421
      00FF197AH   LINE      CODE     ---       #423
      ---         BLOCKEND  ---      ---       LVL=0

      00FF1A50H   BLOCK     CODE     ---       LVL=0
      00FF1A50H   LINE      CODE     ---       #426
      00FF1A50H   LINE      CODE     ---       #428
      00FF1A53H   LINE      CODE     ---       #429
      00FF1A59H   LINE      CODE     ---       #430
      00FF1A5FH   LINE      CODE     ---       #431
      00FF1A64H   LINE      CODE     ---       #433
      ---         BLOCKEND  ---      ---       LVL=0

      00FF1935H   BLOCK     CODE     ---       LVL=0
      00FF1935H   LINE      CODE     ---       #436
      00FF1935H   LINE      CODE     ---       #438
      00FF1938H   LINE      CODE     ---       #439
      00FF193EH   LINE      CODE     ---       #440
      00FF1944H   LINE      CODE     ---       #441
      00FF194AH   LINE      CODE     ---       #443
      ---         BLOCKEND  ---      ---       LVL=0

      00FF1B26H   BLOCK     CODE     ---       LVL=0
      00FF1B26H   LINE      CODE     ---       #446
      00FF1B26H   LINE      CODE     ---       #448
      00FF1B29H   LINE      CODE     ---       #449
      00FF1B2FH   LINE      CODE     ---       #450
      00FF1B35H   LINE      CODE     ---       #452
      ---         BLOCKEND  ---      ---       LVL=0

      00FF17C6H   BLOCK     CODE     ---       LVL=0
      R15         REGSYM    ---      BYTE      bContrast
      00FF17C6H   LINE      CODE     ---       #455
      00FF17CAH   LINE      CODE     ---       #457
      00FF17CDH   LINE      CODE     ---       #458
      00FF17D3H   LINE      CODE     ---       #459
      00FF17D9H   LINE      CODE     ---       #460
      00FF17DFH   LINE      CODE     ---       #462
      00FF17E2H   LINE      CODE     ---       #463
      ---         BLOCKEND  ---      ---       LVL=0

      00FF17A7H   BLOCK     CODE     ---       LVL=0
      R15         REGSYM    ---      BYTE      bMode
      00FF17A7H   LINE      CODE     ---       #465
      00FF17ABH   LINE      CODE     ---       #467
      00FF17AEH   LINE      CODE     ---       #468
      00FF17B4H   LINE      CODE     ---       #469
      00FF17BAH   LINE      CODE     ---       #470
      00FF17C0H   LINE      CODE     ---       #472
      00FF17C3H   LINE      CODE     ---       #473
      ---         BLOCKEND  ---      ---       LVL=0

      00FF14ACH   BLOCK     CODE     ---       LVL=0
      R12         REGSYM    ---      BYTE      bPageStart
      R13         REGSYM    ---      BYTE      bPageEnd
      WR14        REGSYM    ---      WORD      nInterval
L251 LINKER/LOCATER V4.66.93.0                                                        07/09/2022  13:57:45  PAGE 39


      00FF14ACH   LINE      CODE     ---       #475
      00FF14B2H   LINE      CODE     ---       #477
      00FF14B5H   LINE      CODE     ---       #478
      00FF14BBH   LINE      CODE     ---       #479
      00FF14C1H   LINE      CODE     ---       #480
      00FF14C6H   LINE      CODE     ---       #481
      00FF14CCH   LINE      CODE     ---       #482
      00FF14D2H   LINE      CODE     ---       #483
      00FF14DDH   LINE      CODE     ---       #485
      00FF14E0H   LINE      CODE     ---       #486
      ---         BLOCKEND  ---      ---       LVL=0

      00FF143CH   BLOCK     CODE     ---       LVL=0
      R12         REGSYM    ---      BYTE      bPageStart
      R13         REGSYM    ---      BYTE      bPageEnd
      WR14        REGSYM    ---      WORD      nInterval
      00FF143CH   LINE      CODE     ---       #488
      00FF1442H   LINE      CODE     ---       #490
      00FF1445H   LINE      CODE     ---       #491
      00FF144BH   LINE      CODE     ---       #492
      00FF1451H   LINE      CODE     ---       #493
      00FF1457H   LINE      CODE     ---       #494
      00FF145DH   LINE      CODE     ---       #495
      00FF1463H   LINE      CODE     ---       #496
      00FF146EH   LINE      CODE     ---       #498
      00FF1471H   LINE      CODE     ---       #499
      ---         BLOCKEND  ---      ---       LVL=0

      00FF1474H   BLOCK     CODE     ---       LVL=0
      R12         REGSYM    ---      BYTE      bPageStart
      R13         REGSYM    ---      BYTE      bPageEnd
      WR14        REGSYM    ---      WORD      nInterval
      00FF1474H   LINE      CODE     ---       #501
      00FF147AH   LINE      CODE     ---       #503
      00FF147DH   LINE      CODE     ---       #504
      00FF1483H   LINE      CODE     ---       #505
      00FF1489H   LINE      CODE     ---       #506
      00FF148FH   LINE      CODE     ---       #507
      00FF1495H   LINE      CODE     ---       #508
      00FF149BH   LINE      CODE     ---       #509
      00FF14A6H   LINE      CODE     ---       #511
      00FF14A9H   LINE      CODE     ---       #512
      ---         BLOCKEND  ---      ---       LVL=0

      00FF18D5H   BLOCK     CODE     ---       LVL=0
      00FF18D5H   LINE      CODE     ---       #514
      00FF18D5H   LINE      CODE     ---       #516
      00FF18D8H   LINE      CODE     ---       #517
      00FF18DEH   LINE      CODE     ---       #518
      00FF18E4H   LINE      CODE     ---       #519
      00FF18EAH   LINE      CODE     ---       #521
      ---         BLOCKEND  ---      ---       LVL=0

      00FF1A0BH   BLOCK     CODE     ---       LVL=0
      00FF1A0BH   LINE      CODE     ---       #524
      00FF1A0BH   LINE      CODE     ---       #526
      00FF1A0EH   LINE      CODE     ---       #527
      00FF1A14H   LINE      CODE     ---       #528
      00FF1A1AH   LINE      CODE     ---       #529
      00FF1A1FH   LINE      CODE     ---       #531
      ---         BLOCKEND  ---      ---       LVL=0

      00FF0B50H   BLOCK     CODE     ---       LVL=0
      REG=3       REGSYM    ---      ---       dat
      000000B3H   SYMBOL    EDATA    WORD      size
L251 LINKER/LOCATER V4.66.93.0                                                        07/09/2022  13:57:45  PAGE 40


      00FF0B58H   BLOCK     CODE     NEAR LAB  LVL=1
      000000B5H   SYMBOL    EDATA    BYTE      cnt
      000000B6H   SYMBOL    EDATA    WORD      addr
      ---         BLOCKEND  ---      ---       LVL=1
      00FF0B50H   LINE      CODE     ---       #534
      00FF0B58H   LINE      CODE     ---       #535
      00FF0B58H   LINE      CODE     ---       #539
      00FF0B5EH   LINE      CODE     ---       #540
      00FF0B60H   LINE      CODE     ---       #542
      00FF0B66H   LINE      CODE     ---       #543
      00FF0B70H   LINE      CODE     ---       #544
      00FF0B74H   LINE      CODE     ---       #546
      00FF0B77H   LINE      CODE     ---       #547
      00FF0B85H   LINE      CODE     ---       #548
      00FF0B8BH   LINE      CODE     ---       #549
      00FF0B9AH   LINE      CODE     ---       #550
      00FF0BB1H   LINE      CODE     ---       #552
      00FF0BB4H   LINE      CODE     ---       #554
      00FF0BBCH   LINE      CODE     ---       #555
      00FF0BCAH   LINE      CODE     ---       #556
      00FF0BD4H   LINE      CODE     ---       #557
      00FF0BDCH   LINE      CODE     ---       #558
      ---         BLOCKEND  ---      ---       LVL=0

      00FF125DH   BLOCK     CODE     ---       LVL=0
      R12         REGSYM    ---      BYTE      x
      R13         REGSYM    ---      BYTE      y
      R14         REGSYM    ---      BYTE      cx
      R15         REGSYM    ---      BYTE      cy
      REG=7       REGSYM    ---      ---       dat
      00FF125DH   LINE      CODE     ---       #560
      00FF1267H   LINE      CODE     ---       #562
      00FF126EH   LINE      CODE     ---       #564
      00FF1271H   LINE      CODE     ---       #565
      00FF1277H   LINE      CODE     ---       #566
      00FF127DH   LINE      CODE     ---       #567
      00FF1283H   LINE      CODE     ---       #568
      00FF1289H   LINE      CODE     ---       #569
      00FF128FH   LINE      CODE     ---       #570
      00FF1295H   LINE      CODE     ---       #572
      00FF1298H   LINE      CODE     ---       #573
      ---         BLOCKEND  ---      ---       LVL=0

      ---         MODULE    ---      ---       usb_desc
      00FF0D85H   PUBLIC    CODE     ---       PRODUCTDESC
      00FF0D9FH   PUBLIC    CODE     ---       LANGIDDESC
      00FF0DA3H   PUBLIC    CODE     ---       DEVICEDESC
      00FF0DB5H   PUBLIC    CODE     ---       HIDREPORTDESC
      00FF0DD0H   PUBLIC    CODE     ---       CONFIGDESC
      00FF0DF9H   PUBLIC    CODE     ---       PACKET0
      00FF0DFBH   PUBLIC    CODE     ---       PACKET1
      00FF0DFDH   PUBLIC    CODE     ---       MANUFACTDESC
      000000D0H   SFRSYM    DATA     BYTE      PSW
      0000009DH   SFRSYM    DATA     BYTE      IRCBAND
      00000097H   SFRSYM    DATA     BYTE      AUXR2
      000000EFH   SFRSYM    DATA     BYTE      AUXINTIF
      000000FDH   SFRSYM    DATA     BYTE      S4CON
      000000ACH   SFRSYM    DATA     BYTE      S3CON
      0000009AH   SFRSYM    DATA     BYTE      S2CON
      000000B7H   SFRSYM    DATA     BYTE      IPH
      000000CDH   SFRSYM    DATA     BYTE      SPSTAT
      000000DDH   SFRSYM    DATA     BYTE      T4T3M
      000000C1H   SFRSYM    DATA     BYTE      WDT_CONTR
      000000DFH   SFRSYM    DATA     BYTE      IP3
      000000F4H   SFRSYM    DATA     BYTE      USBCON
L251 LINKER/LOCATER V4.66.93.0                                                        07/09/2022  13:57:45  PAGE 41


      000000B5H   SFRSYM    DATA     BYTE      IP2
      000000FFH   SFRSYM    DATA     BYTE      RSTCFG
      000000F9H   SFRSYM    DATA     BYTE      LINICR
      0000008EH   SFRSYM    DATA     BYTE      AUXR
      000000AFH   SFRSYM    DATA     BYTE      IE2
      00000088H   SFRSYM    DATA     BYTE      TCON
      00000098H   SFRSYM    DATA     BYTE      SCON
      000000F1H   SFRSYM    DATA     BYTE      CANICR
      00000087H   SFRSYM    DATA     BYTE      PCON
      000000BCH   SFRSYM    DATA     BYTE      ADC_CONTR
      000000E7H   SFRSYM    DATA     BYTE      CMPCR2
      000000E6H   SFRSYM    DATA     BYTE      CMPCR1
      000000B8H   SFRSYM    DATA     BYTE      IP
      0000008FH   SFRSYM    DATA     BYTE      INTCLKO
      000000EEH   SFRSYM    DATA     BYTE      IP3H
      000000B6H   SFRSYM    DATA     BYTE      IP2H
      000000A8H   SFRSYM    DATA     BYTE      IE
      000000BBH   SFRSYM    DATA     BYTE      P_SW3
      000000BAH   SFRSYM    DATA     BYTE      P_SW2
      000000A2H   SFRSYM    DATA     BYTE      P_SW1
      000000CEH   SFRSYM    DATA     BYTE      SPCTL
      000000F8H   SFRSYM    DATA     BYTE      P7
      000000E8H   SFRSYM    DATA     BYTE      P6
      000000C8H   SFRSYM    DATA     BYTE      P5
      000000C0H   SFRSYM    DATA     BYTE      P4
      000000B0H   SFRSYM    DATA     BYTE      P3
      000000A0H   SFRSYM    DATA     BYTE      P2
      00000090H   SFRSYM    DATA     BYTE      P1
      00000080H   SFRSYM    DATA     BYTE      P0

      ---         MODULE    ---      ---       PRINTF
      000000A5H   PUBLIC    EDATA    ---       ?PRINTF?BYTE
      00FF00CEH   PUBLIC    CODE     NEAR LAB  PRINTF

      ---         MODULE    ---      ---       VSPRINTF
      000000B4H   PUBLIC    EDATA    ---       ?VSPRINTF?BYTE
      00FF00FAH   PUBLIC    CODE     NEAR LAB  VSPRINTF

      ---         MODULE    ---      ---       ?C?PRNFMT
      00FF0143H   PUBLIC    CODE     ---       ?C?PRNFMT

      ---         MODULE    ---      ---       ?C?FPCONVERT
      00FF0560H   PUBLIC    CODE     ---       ?C?FPCONVERT
      00FF0618H   PUBLIC    CODE     ---       ?C?FPROUND

      ---         MODULE    ---      ---       ?C?FPMUL
      00FF065BH   PUBLIC    CODE     ---       ?C?FPMUL

      ---         MODULE    ---      ---       ?C?FPDIV
      00FF06FBH   PUBLIC    CODE     ---       ?C?FPDIV

      ---         MODULE    ---      ---       ?C?FTNPWR
      00FF07ACH   PUBLIC    CODE     ---       ?C?FTNPWR

      ---         MODULE    ---      ---       ?C?FPGETOPN
      00FF07E3H   PUBLIC    CODE     ---       ?C?FPGETOPN2
      00FF0820H   PUBLIC    CODE     ---       ?C?FPNANRESULT
      00FF0828H   PUBLIC    CODE     ---       ?C?FPOVERFLOW
      00FF07FCH   PUBLIC    CODE     ---       ?C?FPRESULT
      00FF0812H   PUBLIC    CODE     ---       ?C?FPRESULT2
      00FF0825H   PUBLIC    CODE     ---       ?C?FPUNDERFLOW

      ---         MODULE    ---      ---       ?C_START
      00FF0000H   PUBLIC    CODE     ---       ?C?STARTUP
      00FF0000H   PUBLIC    CODE     ---       ?C_STARTUP
L251 LINKER/LOCATER V4.66.93.0                                                        07/09/2022  13:57:45  PAGE 42



      ---         MODULE    ---      ---       ?C?INITEDATA
      00FF11F3H   PUBLIC    CODE     ---       ?C?INITEDATA

      ---         MODULE    ---      ---       ?C?LMUL
      00FF0834H   PUBLIC    CODE     ---       ?C?LMUL

      ---         MODULE    ---      ---       STRCMP?_
      00FF1843H   PUBLIC    CODE     NEAR LAB  STRCMP?_

      ---         MODULE    ---      ---       STRLEN
      00FF1B73H   PUBLIC    CODE     ---       strlen?_

      ---         MODULE    ---      ---       memcpy
      00FF1782H   PUBLIC    CODE     ---       memcpy?_

      ---         MODULE    ---      ---       ?C?INITEDATA_END
      00FF1C02H   PUBLIC    HCONST   WORD      ?C?INITEDATA_END

Program Size: data=8.4 edata+hdata=441 xdata=192 const=97 code=7073
L251 RUN COMPLETE.  0 WARNING(S),  0 ERROR(S)
