L251 LINKER/LOCATER V4.66.93.0                                                          07/09/2022  14:00:38  PAGE 1


L251 LINKER/LOCATER V4.66.93.0, INVOKED BY:
C:\KEIL_V5\C251\BIN\L251.EXE .\Objects\main.obj, ..\COMM\stc_usb_hid_32g.LIB TO .\Objects\Test PRINT (.\Listings\Test.ma
>> p) CASE DISABLEWARNING (57) CLASSES (EDATA (0X0-0XFFF), HDATA (0X0-0XFFF))


CPU MODE:     251 SOURCE MODE
INTR FRAME:   2 BYTES SAVED ON INTERRUPT
MEMORY MODEL: XSMALL WITH FLOATING POINT ARITHMETIC


INPUT MODULES INCLUDED:
  .\Objects\main.obj (main)
         COMMENT TYPE 0: C251 V5.60.0
  ..\COMM\stc_usb_hid_32g.LIB (usb)
         COMMENT TYPE 0: C251 V5.60.0
  ..\COMM\stc_usb_hid_32g.LIB (usb_req_class)
         COMMENT TYPE 0: C251 V5.60.0
  ..\COMM\stc_usb_hid_32g.LIB (usb_req_std)
         COMMENT TYPE 0: C251 V5.60.0
  ..\COMM\stc_usb_hid_32g.LIB (usb_req_vendor)
         COMMENT TYPE 0: C251 V5.60.0
  ..\COMM\stc_usb_hid_32g.LIB (util)
         COMMENT TYPE 0: C251 V5.60.0
  ..\COMM\stc_usb_hid_32g.LIB (usb_desc)
         COMMENT TYPE 0: C251 V5.60.0
  C:\KEIL_V5\C251\LIB\C2SFPXS.LIB (VSPRINTF)
         COMMENT TYPE 0: A251 V4.69.6.0
  C:\KEIL_V5\C251\LIB\C2SFPXS.LIB (?C?PRNFMT)
         COMMENT TYPE 0: A251 V4.69.6.0
  C:\KEIL_V5\C251\LIB\C2SFPXS.LIB (?C?FPCONVERT)
         COMMENT TYPE 0: A251 V4.69.6.0
  C:\KEIL_V5\C251\LIB\C2SFPXS.LIB (?C?FPMUL)
         COMMENT TYPE 0: A251 V4.69.6.0
  C:\KEIL_V5\C251\LIB\C2SFPXS.LIB (?C?FPDIV)
         COMMENT TYPE 0: A251 V4.69.6.0
  C:\KEIL_V5\C251\LIB\C2SFPXS.LIB (?C?FTNPWR)
         COMMENT TYPE 0: A251 V4.69.6.0
  C:\KEIL_V5\C251\LIB\C2SFPXS.LIB (?C?FPGETOPN)
         COMMENT TYPE 0: A251 V4.69.6.0
  C:\KEIL_V5\C251\LIB\C2SXS.LIB (?C_START)
         COMMENT TYPE 0: A251 V4.69.6.0
  C:\KEIL_V5\C251\LIB\C2SXS.LIB (?C?INITEDATA)
         COMMENT TYPE 0: A251 V4.69.6.0
  C:\KEIL_V5\C251\LIB\C2SXS.LIB (?C?LMUL)
         COMMENT TYPE 0: A251 V4.69.6.0
  C:\KEIL_V5\C251\LIB\C2SXS.LIB (?C?SLDIV)
         COMMENT TYPE 0: A251 V4.69.6.0
  C:\KEIL_V5\C251\LIB\C2SXS.LIB (STRCMP?_)
         COMMENT TYPE 0: A251 V4.69.6.0
  C:\KEIL_V5\C251\LIB\C2SXS.LIB (STRLEN)
         COMMENT TYPE 0: C251 V5.58.7
  C:\KEIL_V5\C251\LIB\C2SXS.LIB (memcpy)
         COMMENT TYPE 0: C251 V5.58.7
  C:\KEIL_V5\C251\LIB\C2SXS.LIB (?C?INITEDATA_END)
         COMMENT TYPE 0: A251 V4.69.6.0
  C:\KEIL_V5\C251\LIB\C2SXS.LIB (?C?ULDIV)
         COMMENT TYPE 0: A251 V4.69.6.0


ACTIVE MEMORY CLASSES OF MODULE:  .\Objects\Test (main)

BASE        START       END         USED      MEMORY CLASS
==========================================================
000000H     000000H     000FFFH     00019CH   EDATA
000000H     000000H     000FFFH               HDATA
000000H     FF0000H     FFFFFFH     000023H   HCONST
L251 LINKER/LOCATER V4.66.93.0                                                        07/09/2022  14:00:38  PAGE 2


FF0000H     FF0000H     FFFFFFH     001DBFH   CODE
000020H.0   000020H.0   00002FH.7   000000H.7 BIT
010000H     010000H     01FFFFH     000140H   XDATA
FF0000H     FF0000H     FFFFFFH     000004H   CONST
000000H     000000H     00007FH     000008H   DATA


MEMORY MAP OF MODULE:  .\Objects\Test (main)


START     STOP      LENGTH    ALIGN  RELOC    MEMORY CLASS   SEGMENT NAME
=========================================================================
000000H   000007H   000008H   ---    AT..     DATA           "REG BANK 0"
000008H   000019H   000012H   BYTE   UNIT     EDATA          ?ED?USB
00001AH   00001EH   000005H   BYTE   UNIT     EDATA          ?ED?LCD12864_SETBUFFER?UTIL
00001FH   00001FH   000001H   BYTE   UNIT     EDATA          ?ED?USB_REQ_CLASS
000020H.0 000020H.3 000000H.4 BIT    UNIT     BIT            ?BI?MAIN
000020H.4 000020H.6 000000H.3 BIT    UNIT     BIT            ?BI?USB
000020H.7 000020H   000000H.1 ---    ---      **GAP**
000021H   00004CH   00002CH   BYTE   UNIT     EDATA          ?ED?SEG7_SHOWSTRING?UTIL
00004DH   000078H   00002CH   BYTE   UNIT     EDATA          ?ED?PRINTF_HID?UTIL
000079H   000091H   000019H   BYTE   UNIT     EDATA          ?ED?MAIN
000092H   000096H   000005H   BYTE   UNIT     EDATA          ?ED?OLED12864_SETBUFFER?UTIL
000097H   00009AH   000004H   BYTE   UNIT     EDATA          ?ED?SEG7_SHOWLONG?UTIL
00009BH   00009EH   000004H   BYTE   UNIT     EDATA          ?ED?VSPRINTF
00009FH   0000A2H   000004H   BYTE   UNIT     EDATA          _EDATA_GROUP_
0000A3H   0000A4H   000002H   BYTE   UNIT     EDATA          ?ED?LCD12864_SHOWSTRING?UTIL
0000A5H   0001A4H   000100H   BYTE   UNIT     EDATA          ?STACK
0001A5H   00FFFFH   00FE5BH   ---    ---      **GAP**
010000H   0100BFH   0000C0H   BYTE   INSEG    XDATA          ?XD?USB
0100C0H   01013FH   000080H   BYTE   INSEG    XDATA          ?XD?MAIN
010140H   FEFFFFH   FDFEC0H   ---    ---      **GAP**
FF0000H   FF0002H   000003H   ---    OFFS..   CODE           ?CO?start251?4
FF0003H   FF0005H   000003H   BYTE   INSEG    CODE           ?PR?USB_GET_PROTOCOL?USB_REQ_CLASS
FF0006H   FF0008H   000003H   BYTE   INSEG    CODE           ?PR?USB_SET_PROTOCOL?USB_REQ_CLASS
FF0009H   FF0009H   000001H   BYTE   INSEG    CODE           ?PR?USB_SUSPEND?USB
FF000AH   FF000AH   000001H   BYTE   INSEG    CODE           ?PR?USB_RESUME?USB
FF000BH   FF000DH   000003H   ---    OFFS..   CODE           ?PR?IV?1
FF000EH   FF0089H   00007CH   BYTE   INSEG    CODE           ?PR?USB_OUT_EP1?USB
FF008AH   FF008AH   000001H   ---    ---      **GAP**
FF008BH   FF008DH   000003H   ---    OFFS..   CODE           ?PR?IV?17
FF008EH   FF0090H   000003H   BYTE   INSEG    CODE           ?PR?USB_SET_DESCRIPTOR?USB_REQ_STD
FF0091H   FF0092H   000002H   ---    ---      **GAP**
FF0093H   FF0095H   000003H   ---    OFFS..   CODE           ?PR?IV?18
FF0096H   FF00CAH   000035H   BYTE   INSEG    CODE           ?PR?REVERSE2?UTIL
FF00CBH   FF00CDH   000003H   ---    OFFS..   CODE           ?PR?IV?25
FF00CEH   FF089FH   0007D2H   BYTE   UNIT     CODE           ?C?LIB_CODE
FF08A0H   FF09A1H   000102H   BYTE   INSEG    CODE           ?PR?MAIN?MAIN
FF09A2H   FF0AA0H   0000FFH   BYTE   INSEG    CODE           ?PR?USB_GET_STATUS?USB_REQ_STD
FF0AA1H   FF0B7CH   0000DCH   BYTE   INSEG    CODE           ?PR?USB_GET_DESCRIPTOR?USB_REQ_STD
FF0B7DH   FF0C17H   00009BH   BYTE   INSEG    CODE           ?PR?USB_CLEAR_FEATURE?USB_REQ_STD
FF0C18H   FF0CACH   000095H   BYTE   INSEG    CODE           ?PR?USB_SET_FEATURE?USB_REQ_STD
FF0CADH   FF0D3BH   00008FH   BYTE   INSEG    CODE           ?PR?OLED12864_SETBUFFER?UTIL
FF0D3CH   FF0DCAH   00008FH   BYTE   INSEG    CODE           ?PR?LCD12864_SETBUFFER?UTIL
FF0DCBH   FF0E57H   00008DH   BYTE   INSEG    CODE           ?PR?USB_SET_CONFIGURATION?USB_REQ_STD
FF0E58H   FF0EE1H   00008AH   BYTE   INSEG    CODE           ?PR?USB_SETUP?USB
FF0EE2H   FF0F61H   000080H   BYTE   UNIT     CODE           ?CO?USB_DESC
FF0F62H   FF0FDBH   00007AH   BYTE   INSEG    CODE           ?PR?USB_ISR?USB
FF0FDCH   FF1042H   000067H   BYTE   INSEG    CODE           ?PR?USB_CTRL_IN?USB
FF1043H   FF109EH   00005CH   BYTE   INSEG    CODE           ?PR?USB_REQ_STD?USB_REQ_STD
FF109FH   FF10F5H   000057H   BYTE   INSEG    CODE           ?PR?TIMER0?MAIN
FF10F6H   FF114BH   000056H   BYTE   INSEG    CODE           ?PR?USB_CTRL_OUT?USB
FF114CH   FF119FH   000054H   BYTE   INSEG    CODE           ?PR?USB_GET_CONFIGURATION?USB_REQ_STD
FF11A0H   FF11F2H   000053H   BYTE   INSEG    CODE           ?PR?UART4_INT?MAIN
FF11F3H   FF123FH   00004DH   BYTE   INSEG    CODE           ?PR?LCD12864_SHOWPICTURE?UTIL
L251 LINKER/LOCATER V4.66.93.0                                                        07/09/2022  14:00:38  PAGE 3


FF1240H   FF128AH   00004BH   BYTE   INSEG    CODE           ?PR?UART3_INT?MAIN
FF128BH   FF12D5H   00004BH   BYTE   INSEG    CODE           ?PR?USB_INIT?USB
FF12D6H   FF131FH   00004AH   BYTE   INSEG    CODE           ?PR?USB_SET_ADDRESS?USB_REQ_STD
FF1320H   FF1364H   000045H   BYTE   INSEG    CODE           ?PR?TESTIO?MAIN
FF1365H   FF13A9H   000045H   BYTE   INSEG    CODE           ?PR?SEG7_SHOWSTRING?UTIL
FF13AAH   FF13BCH   000013H   BYTE   UNIT     CODE           ?C_C51STARTUP
FF13BDH   FF13E5H   000029H   BYTE   UNIT     CODE           ?C_C51STARTUP?2
FF13E6H   FF13E8H   000003H   BYTE   UNIT     CODE           ?C_C51STARTUP?3
FF13E9H   FF1426H   00003EH   BYTE   INSEG    CODE           ?PR?USB_GET_INTERFACE?USB_REQ_STD
FF1427H   FF1464H   00003EH   BYTE   INSEG    CODE           ?PR?OLED12864_SHOWPICTURE?UTIL
FF1465H   FF14A2H   00003EH   BYTE   INSEG    CODE           ?PR?LED40_SENDDATA?UTIL
FF14A3H   FF14E0H   00003EH   BYTE   INSEG    CODE           ?PR?LED64_SENDDATA?UTIL
FF14E1H   FF151DH   00003DH   BYTE   INSEG    CODE           ?PR?KEYRESETSCAN?MAIN
FF151EH   FF1559H   00003CH   BYTE   INSEG    CODE           ?PR?TESTERROR?MAIN
FF155AH   FF1594H   00003BH   BYTE   INSEG    CODE           ?PR?SEG7_SHOWLONG?UTIL
FF1595H   FF15CFH   00003BH   BYTE   INSEG    CODE           ?PR?LCD12864_SHOWSTRING?UTIL
FF15D0H   FF1609H   00003AH   BYTE   INSEG    CODE           ?PR?USB_READ_FIFO?_?USB
FF160AH   FF1642H   000039H   BYTE   INSEG    CODE           ?PR?UART3_CONFIG?MAIN
FF1643H   FF167BH   000039H   BYTE   INSEG    CODE           ?PR?UART4_CONFIG?MAIN
FF167CH   FF16B3H   000038H   BYTE   INSEG    CODE           ?PR?USB_RESET?USB
FF16B4H   FF16EBH   000038H   BYTE   INSEG    CODE           ?PR?OLED12864_SCROLLRIGHT?UTIL
FF16ECH   FF1723H   000038H   BYTE   INSEG    CODE           ?PR?OLED12864_SCROLLUP?UTIL
FF1724H   FF175AH   000037H   BYTE   INSEG    CODE           ?PR?OLED12864_SCROLLLEFT?UTIL
FF175BH   FF178DH   000033H   BYTE   INSEG    CODE           ?PR?SEG7_SHOWCODE?UTIL
FF178EH   FF17BEH   000031H   BYTE   INSEG    CODE           ?PR?SEG7_SHOWFLOAT?UTIL
FF17BFH   FF17EDH   00002FH   BYTE   INSEG    CODE           ?PR?PRINTF_HID?UTIL
FF17EEH   FF181BH   00002EH   BYTE   INSEG    CODE           ?PR?GET_ADC12BITRESULT?MAIN
FF181CH   FF1849H   00002EH   BYTE   INSEG    CODE           ?PR?USB_REQ_CLASS?USB_REQ_CLASS
FF184AH   FF1876H   00002DH   BYTE   INSEG    CODE           ?PR?USB_IN_EP1?USB
FF1877H   FF18A0H   00002AH   BYTE   INSEG    CODE           ?PR?USB_GET_REPORT?USB_REQ_CLASS
FF18A1H   FF18CAH   00002AH   BYTE   INSEG    CODE           ?PR?USB_SET_REPORT?USB_REQ_CLASS
FF18CBH   FF18F3H   000029H   BYTE   INSEG    CODE           ?PR?USB_IN?USB
FF18F4H   FF191CH   000029H   BYTE   INSEG    CODE           ?PR?USB_WRITE_FIFO?_?USB
FF191DH   FF1944H   000028H   BYTE   INSEG    CODE           ?PR?USB_SET_INTERFACE?USB_REQ_STD
FF1945H   FF196AH   000026H   BYTE   INSEG    CODE           ?PR?USB_GET_IDLE?USB_REQ_CLASS
FF196BH   FF198FH   000025H   BYTE   INSEG    CODE           ?PR?LCD12864_SCROLLUP?UTIL
FF1990H   FF19B4H   000025H   BYTE   INSEG    CODE           ?PR?MEMCPY?_?MEMCPY
FF19B5H   FF19D3H   00001FH   BYTE   INSEG    CODE           ?PR?OLED12864_SETADDRESSMODE?UTIL
FF19D4H   FF19F2H   00001FH   BYTE   INSEG    CODE           ?PR?OLED12864_SETCONTRAST?UTIL
FF19F3H   FF1A11H   00001FH   BYTE   INSEG    CODE           ?PR?LCD12864_REVERSELINE?UTIL
FF1A12H   FF1A2FH   00001EH   BYTE   INSEG    CODE           ?PR?USB_SET_IDLE?USB_REQ_CLASS
FF1A30H   FF1A4CH   00001DH   BYTE   INSEG    CODE           ?PR?SLEEP_US?UTIL
FF1A4DH   FF1A66H   00001AH   BYTE   UNIT     CODE           ?PR?STRCMP?_
FF1A67H   FF1A7FH   000019H   BYTE   INSEG    CODE           ?PR?USB_BULK_INTR_OUT?USB
FF1A80H   FF1A98H   000019H   BYTE   INSEG    CODE           ?PR?OLED12864_SETHEADER?UTIL
FF1A99H   FF1AB1H   000019H   BYTE   INSEG    CODE           ?PR?LCD12864_SETHEADER?UTIL
FF1AB2H   FF1ACAH   000019H   BYTE   INSEG    CODE           ?PR?SEG7_SETHEADER?UTIL
FF1ACBH   FF1AE2H   000018H   BYTE   INSEG    CODE           ?PR?SETTIMER2BAUDRAYE?MAIN
FF1AE3H   FF1AFAH   000018H   BYTE   INSEG    CODE           ?PR?USB_OUT_DONE?USB
FF1AFBH   FF1B12H   000018H   BYTE   INSEG    CODE           ?PR?OLED12864_SCROLLSTART?UTIL
FF1B13H   FF1B2AH   000018H   BYTE   INSEG    CODE           ?PR?OLED12864_DISPLAYON?UTIL
FF1B2BH   FF1B42H   000018H   BYTE   INSEG    CODE           ?PR?LCD12864_SCROLLRIGHT?UTIL
FF1B43H   FF1B5AH   000018H   BYTE   INSEG    CODE           ?PR?LCD12864_AUTOWRAPON?UTIL
FF1B5BH   FF1B72H   000018H   BYTE   INSEG    CODE           ?PR?OLED12864_VERTICALMIRROR?UTIL
FF1B73H   FF1B8AH   000018H   BYTE   INSEG    CODE           ?PR?LCD12864_CURSORRETURNHOME?UTIL
FF1B8BH   FF1BA2H   000018H   BYTE   INSEG    CODE           ?PR?OLED12864_DISPLAYENTIRE?UTIL
FF1BA3H   FF1BBAH   000018H   BYTE   INSEG    CODE           ?PR?LCD12864_DISPLAYON?UTIL
FF1BBBH   FF1BD2H   000018H   BYTE   INSEG    CODE           ?PR?LCD12864_CURSORMOVERIGHT?UTIL
FF1BD3H   FF1BEAH   000018H   BYTE   INSEG    CODE           ?PR?SLEEP_MS?UTIL
FF1BEBH   FF1C02H   000018H   BYTE   INSEG    CODE           ?PR?LCD12864_CURSORON?UTIL
FF1C03H   FF1C19H   000017H   BYTE   INSEG    CODE           ?PR?OLED12864_DISPLAYOFF?UTIL
FF1C1AH   FF1C30H   000017H   BYTE   INSEG    CODE           ?PR?LCD12864_AUTOWRAPOFF?UTIL
FF1C31H   FF1C47H   000017H   BYTE   INSEG    CODE           ?PR?OLED12864_SCROLLSTOP?UTIL
FF1C48H   FF1C5EH   000017H   BYTE   INSEG    CODE           ?PR?LCD12864_DISPLAYOFF?UTIL
FF1C5FH   FF1C75H   000017H   BYTE   INSEG    CODE           ?PR?LCD12864_SCROLLLEFT?UTIL
L251 LINKER/LOCATER V4.66.93.0                                                        07/09/2022  14:00:38  PAGE 4


FF1C76H   FF1C8CH   000017H   BYTE   INSEG    CODE           ?PR?OLED12864_HORIZONTALMIRROR?UTIL
FF1C8DH   FF1CA3H   000017H   BYTE   INSEG    CODE           ?PR?OLED12864_DISPLAYCONTENT?UTIL
FF1CA4H   FF1CBAH   000017H   BYTE   INSEG    CODE           ?PR?LCD12864_CURSOROFF?UTIL
FF1CBBH   FF1CD1H   000017H   BYTE   INSEG    CODE           ?PR?LCD12864_CURSORMOVELEFT?UTIL
FF1CD2H   FF1CE7H   000016H   BYTE   INSEG    CODE           ?PR?DELAY_MS?MAIN
FF1CE8H   FF1CFCH   000015H   BYTE   INSEG    CODE           ?PR?USB_BULK_INTR_IN?USB
FF1CFDH   FF1D11H   000015H   BYTE   INSEG    CODE           ?PR?USB_READ_REG?USB
FF1D12H   FF1D25H   000014H   BYTE   INSEG    CODE           ?PR?ADC_INIT?MAIN
FF1D26H   FF1D38H   000013H   BYTE   INSEG    CODE           ?PR?USB_WRITE_REG?USB
FF1D39H   FF1D4AH   000012H   BYTE   INSEG    CODE           ?PR?LCD12864_DISPLAYCLEAR?UTIL
FF1D4BH   FF1D5CH   000012H   BYTE   INSEG    CODE           ?PR?OLED12864_DISPLAYREVERSE?UTIL
FF1D5DH   FF1D6DH   000011H   BYTE   INSEG    CODE           ?PR?USB_SETUP_IN?USB
FF1D6EH   FF1D7BH   00000EH   BYTE   INSEG    CODE           ?PR?TIMER0_INIT?MAIN
FF1D7CH   FF1D89H   00000EH   BYTE   INSEG    CODE           ?PR?USB_SETUP_OUT?USB
FF1D8AH   FF1D97H   00000EH   BYTE   INSEG    CODE           ?PR?USB_SETUP_STALL?USB
FF1D98H   FF1DA5H   00000EH   BYTE   INSEG    CODE           ?PR?STRLEN?_?STRLEN
FF1DA6H   FF1DB2H   00000DH   BYTE   INSEG    CODE           ?PR?USB_SETUP_STATUS?USB
FF1DB3H   FF1DBBH   000009H   BYTE   INSEG    CODE           ?PR?UART4_TXBYTE?MAIN
FF1DBCH   FF1DBEH   000003H   BYTE   INSEG    CODE           ?PR?USB_SYNCH_FRAME?USB_REQ_STD
FF1DBFH   FF1DC1H   000003H   BYTE   INSEG    CODE           ?PR?USB_REQ_VENDOR?USB_REQ_VENDOR
FF1DC2H   FF1DC5H   000004H   BYTE   UNIT     CONST          ?CO?PRINTF
FF1DC6H   FF1DDFH   00001AH   BYTE   UNIT     HCONST         ?C_INITEDATA
FF1DE0H   FF1DE8H   000009H   BYTE   UNIT     HCONST         ?HC?MAIN



OVERLAY MAP OF MODULE:   .\Objects\Test (main)


FUNCTION/MODULE                        EDATA_GROUP
--> CALLED FUNCTION/MODULE             START  STOP
==================================================
UART3_int/main                         ----- -----

*** NEW ROOT *************************

UART4_int/main                         ----- -----

*** NEW ROOT *************************

timer0/main                            ----- -----
  +--> usb_OUT_done/usb
  +--> KeyResetScan/main

usb_OUT_done/usb                       ----- -----
  +--> usb_write_reg/usb

usb_write_reg/usb                      ----- -----

KeyResetScan/main                      ----- -----
  +--> delay_ms/main

delay_ms/main                          ----- -----

*** NEW ROOT *************************

usb_isr/usb                            ----- -----
  +--> usb_read_reg/usb
  +--> usb_resume/usb
  +--> usb_reset/usb
  +--> usb_setup/usb
  +--> usb_in_ep1/usb
  +--> usb_out_ep1/usb
  +--> usb_suspend/usb

L251 LINKER/LOCATER V4.66.93.0                                                        07/09/2022  14:00:38  PAGE 5


usb_read_reg/usb                       ----- -----

usb_resume/usb                         ----- -----

usb_reset/usb                          ----- -----
  +--> usb_write_reg/usb

usb_setup/usb                          ----- -----
  +--> usb_write_reg/usb
  +--> usb_read_reg/usb
  +--> usb_read_fifo?_/usb
  +--> reverse2/util
  +--> usb_req_std/usb_req_std
  +--> usb_req_class/usb_req_class
  +--> usb_req_vendor/usb_req_vendor
  +--> usb_setup_stall/usb
  +--> usb_ctrl_in/usb
  +--> usb_ctrl_out/usb

usb_read_fifo?_/usb                    ----- -----
  +--> usb_read_reg/usb

reverse2/util                          009FH 00A2H

usb_req_std/usb_req_std                ----- -----
  +--> usb_get_status/usb_req_std
  +--> usb_clear_feature/usb_req_std
  +--> usb_set_feature/usb_req_std
  +--> usb_set_address/usb_req_std
  +--> usb_get_descriptor/usb_req_std
  +--> usb_set_descriptor/usb_req_std
  +--> usb_get_configuration/usb_req_std
  +--> usb_set_configuration/usb_req_std
  +--> usb_get_interface/usb_req_std
  +--> usb_set_interface/usb_req_std
  +--> usb_synch_frame/usb_req_std
  +--> usb_setup_stall/usb

usb_get_status/usb_req_std             ----- -----
  +--> usb_setup_stall/usb
  +--> usb_setup_in/usb

usb_setup_stall/usb                    ----- -----
  +--> usb_write_reg/usb

usb_setup_in/usb                       ----- -----
  +--> usb_write_reg/usb
  +--> usb_ctrl_in/usb

usb_ctrl_in/usb                        ----- -----
  +--> usb_write_reg/usb
  +--> usb_read_reg/usb
  +--> usb_write_fifo?_/usb

usb_write_fifo?_/usb                   ----- -----
  +--> usb_write_reg/usb

usb_clear_feature/usb_req_std          ----- -----
  +--> usb_write_reg/usb
  +--> usb_setup_stall/usb
  +--> usb_setup_status/usb

usb_setup_status/usb                   ----- -----
  +--> usb_write_reg/usb

L251 LINKER/LOCATER V4.66.93.0                                                        07/09/2022  14:00:38  PAGE 6


usb_set_feature/usb_req_std            ----- -----
  +--> usb_write_reg/usb
  +--> usb_setup_stall/usb
  +--> usb_setup_status/usb

usb_set_address/usb_req_std            ----- -----
  +--> usb_setup_stall/usb
  +--> usb_write_reg/usb
  +--> usb_setup_status/usb

usb_get_descriptor/usb_req_std         ----- -----
  +--> usb_setup_stall/usb
  +--> usb_setup_in/usb

usb_set_descriptor/usb_req_std         ----- -----
  +--> usb_setup_stall/usb

usb_get_configuration/usb_req_std      ----- -----
  +--> usb_setup_stall/usb
  +--> usb_setup_in/usb

usb_set_configuration/usb_req_std      ----- -----
  +--> usb_setup_stall/usb
  +--> usb_write_reg/usb
  +--> usb_setup_status/usb

usb_get_interface/usb_req_std          ----- -----
  +--> usb_setup_stall/usb
  +--> usb_setup_in/usb

usb_set_interface/usb_req_std          ----- -----
  +--> usb_setup_stall/usb
  +--> usb_setup_status/usb

usb_synch_frame/usb_req_std            ----- -----
  +--> usb_setup_stall/usb

usb_req_class/usb_req_class            ----- -----
  +--> usb_get_report/usb_req_class
  +--> usb_set_report/usb_req_class
  +--> usb_get_idle/usb_req_class
  +--> usb_set_idle/usb_req_class
  +--> usb_get_protocol/usb_req_class
  +--> usb_set_protocol/usb_req_class
  +--> usb_setup_stall/usb

usb_get_report/usb_req_class           ----- -----
  +--> usb_setup_stall/usb
  +--> usb_setup_in/usb

usb_set_report/usb_req_class           ----- -----
  +--> usb_setup_stall/usb
  +--> usb_setup_out/usb

usb_setup_out/usb                      ----- -----
  +--> usb_write_reg/usb

usb_get_idle/usb_req_class             ----- -----
  +--> usb_setup_stall/usb
  +--> usb_setup_in/usb

usb_set_idle/usb_req_class             ----- -----
  +--> usb_setup_stall/usb
  +--> usb_setup_status/usb

L251 LINKER/LOCATER V4.66.93.0                                                        07/09/2022  14:00:38  PAGE 7


usb_get_protocol/usb_req_class         ----- -----
  +--> usb_setup_stall/usb

usb_set_protocol/usb_req_class         ----- -----
  +--> usb_setup_stall/usb

usb_req_vendor/usb_req_vendor          ----- -----
  +--> usb_setup_stall/usb

usb_ctrl_out/usb                       ----- -----
  +--> usb_write_reg/usb
  +--> usb_read_reg/usb
  +--> usb_read_fifo?_/usb

usb_in_ep1/usb                         ----- -----
  +--> usb_write_reg/usb
  +--> usb_read_reg/usb

usb_out_ep1/usb                        ----- -----
  +--> usb_write_reg/usb
  +--> usb_read_reg/usb
  +--> usb_bulk_intr_out/usb
  +--> usb_read_fifo?_/usb
  +--> STRCMP?_/STRCMP?_
  +--> sleep_ms/util

usb_bulk_intr_out/usb                  ----- -----
  +--> usb_read_fifo?_/usb
  +--> usb_write_reg/usb

STRCMP?_/STRCMP?_                      ----- -----

sleep_ms/util                          ----- -----
  +--> sleep_us/util

sleep_us/util                          ----- -----

usb_suspend/usb                        ----- -----

*** NEW ROOT *************************

?C_C51STARTUP                          ----- -----

*** NEW ROOT *************************

?C_C51STARTUP?3                        ----- -----
  +--> main/main

main/main                              ----- -----
  +--> usb_init/usb
  +--> Timer0_Init/main
  +--> ADC_Init/main
  +--> UART3_config/main
  +--> UART4_config/main
  +--> delay_ms/main
  +--> Get_ADC12bitResult/main
  +--> ?C?SLDIV/?C?SLDIV
  +--> TestError/main
  +--> TestIO/main
  +--> UART4_TxByte/main

usb_init/usb                           ----- -----
  +--> usb_write_reg/usb

Timer0_Init/main                       ----- -----
L251 LINKER/LOCATER V4.66.93.0                                                        07/09/2022  14:00:38  PAGE 8



ADC_Init/main                          ----- -----

UART3_config/main                      ----- -----
  +--> SetTimer2Baudraye/main

SetTimer2Baudraye/main                 ----- -----

UART4_config/main                      ----- -----
  +--> SetTimer2Baudraye/main

Get_ADC12bitResult/main                ----- -----

?C?SLDIV/?C?SLDIV                      ----- -----
  +--> ?C?ULIDIV/?C?ULDIV

?C?ULIDIV/?C?ULDIV                     ----- -----

TestError/main                         ----- -----
  +--> delay_ms/main

TestIO/main                            ----- -----
  +--> delay_ms/main

UART4_TxByte/main                      ----- -----

*** NEW ROOT *************************

?C_C51STARTUP?2                        ----- -----



PUBLIC SYMBOLS OF MODULE:  .\Objects\Test (main)


      VALUE       CLASS    TYPE      PUBLIC SYMBOL NAME
      =================================================
      000000FFH   NUMBER   ---       ?C?CODESEG
      00FF0534H   CODE     ---       ?C?FPCONVERT
      00FF06CFH   CODE     ---       ?C?FPDIV
      00FF07B7H   CODE     ---       ?C?FPGETOPN2
      00FF062FH   CODE     ---       ?C?FPMUL
      00FF07F4H   CODE     ---       ?C?FPNANRESULT
      00FF07FCH   CODE     ---       ?C?FPOVERFLOW
      00FF07D0H   CODE     ---       ?C?FPRESULT
      00FF07E6H   CODE     ---       ?C?FPRESULT2
      00FF05ECH   CODE     ---       ?C?FPROUND
      00FF07F9H   CODE     ---       ?C?FPUNDERFLOW
      00FF0780H   CODE     ---       ?C?FTNPWR
      00FF13BDH   CODE     ---       ?C?INITEDATA
      00FF1DDEH   HCONST   WORD      ?C?INITEDATA_END
      00FF0808H   CODE     ---       ?C?LMUL
      00FF0117H   CODE     ---       ?C?PRNFMT
      00FF0819H   CODE     NEAR LAB  ?C?SLDIV
      00FF0000H   CODE     ---       ?C?STARTUP
      00FF084FH   CODE     NEAR LAB  ?C?ULDIV
      00FF084DH   CODE     NEAR LAB  ?C?ULIDIV
      00000001H   NUMBER   ---       ?C?XDATASEG
      00FF0000H   CODE     ---       ?C_STARTUP
      00000075H   EDATA    BYTE      ?printf_hid?BYTE
      00000049H   EDATA    BYTE      ?SEG7_ShowString?BYTE
      00000093H   EDATA    ---       ?vsprintf?BYTE
*SFR* 000000BCH   DATA     BYTE      ADC_CONTR
*SFR* 000000BCH.5 DATA     BIT       ADC_FLAG
      00FF1D12H   CODE     ---       ADC_Init
L251 LINKER/LOCATER V4.66.93.0                                                        07/09/2022  14:00:38  PAGE 9


*SFR* 000000BDH   DATA     BYTE      ADC_RES
*SFR* 000000BEH   DATA     BYTE      ADC_RESL
*SFR* 000000BCH.6 DATA     BIT       ADC_START
*SFR* 000000DEH   DATA     BYTE      ADCCFG
*SFR* 000000EFH   DATA     BYTE      AUXINTIF
*SFR* 0000008EH   DATA     BYTE      AUXR
*SFR* 00000097H   DATA     BYTE      AUXR2
      00000020H.3 BIT      BIT       B_Err_Flag
      00000020H.1 BIT      BIT       B_TX3_Busy
      00000020H.2 BIT      BIT       B_TX4_Busy
      0000007CH   EDATA    WORD      Bandgap
      0000001FH   EDATA    BYTE      bHidIdle
      00000020H.5 BIT      BIT       bUsbFeatureReady
      00000020H.6 BIT      BIT       bUsbInBusy
      00000020H.4 BIT      BIT       bUsbOutReady
*SFR* 000000F1H   DATA     BYTE      CANICR
*SFR* 000000EAH   DATA     BYTE      CKCON
*SFR* 000000E6H   DATA     BYTE      CMPCR1
*SFR* 000000E7H   DATA     BYTE      CMPCR2
      00FF0F2DH   CODE     ---       CONFIGDESC
      00FF1CD2H   CODE     ---       delay_ms
      00FF0F00H   CODE     ---       DEVICEDESC
      00000010H   EDATA    BYTE      DeviceState
*SFR* 000000A8H.7 DATA     BIT       EA
*SFR* 000000BAH.7 DATA     BIT       EAXFR
      00000011H   EDATA    ---       Ep0State
*SFR* 000000AFH.3 DATA     BIT       ES3
*SFR* 000000AFH.4 DATA     BIT       ES4
*SFR* 000000A8H.1 DATA     BIT       ET0
*SFR* 000000AFH.2 DATA     BIT       ET2
*SFR* 000000AFH.7 DATA     BIT       EUSB
      00FF17EEH   CODE     ---       Get_ADC12bitResult
      00FF0F12H   CODE     ---       HIDREPORTDESC
*SFR* 000000C7H   DATA     BYTE      IAP_CONTR
*SFR* 000000A8H   DATA     BYTE      IE
*SFR* 000000AFH   DATA     BYTE      IE2
      00000018H   EDATA    BYTE      InEpState
*SFR* 0000008FH   DATA     BYTE      INTCLKO
*SFR* 000000B8H   DATA     BYTE      IP
*SFR* 000000B5H   DATA     BYTE      IP2
*SFR* 000000B6H   DATA     BYTE      IP2H
*SFR* 000000DFH   DATA     BYTE      IP3
*SFR* 000000EEH   DATA     BYTE      IP3H
*SFR* 000000B7H   DATA     BYTE      IPH
*SFR* 0000009DH   DATA     BYTE      IRCBAND
      00000084H   EDATA    WORD      Key_cnt
      00000020H.0 BIT      BIT       Key_Flag
      00FF14E1H   CODE     ---       KeyResetScan
      00FF0EFCH   CODE     ---       LANGIDDESC
      00FF1C1AH   CODE     ---       LCD12864_AutoWrapOff
      00FF1B43H   CODE     ---       LCD12864_AutoWrapOn
      00FF1CBBH   CODE     ---       LCD12864_CursorMoveLeft
      00FF1BBBH   CODE     ---       LCD12864_CursorMoveRight
      00FF1CA4H   CODE     ---       LCD12864_CursorOff
      00FF1BEBH   CODE     ---       LCD12864_CursorOn
      00FF1B73H   CODE     ---       LCD12864_CursorReturnHome
      00FF1D39H   CODE     ---       LCD12864_DisplayClear
      00FF1C48H   CODE     ---       LCD12864_DisplayOff
      00FF1BA3H   CODE     ---       LCD12864_DisplayOn
      00FF19F3H   CODE     ---       LCD12864_ReverseLine
      00FF1C5FH   CODE     ---       LCD12864_ScrollLeft
      00FF1B2BH   CODE     ---       LCD12864_ScrollRight
      00FF196BH   CODE     ---       LCD12864_ScrollUp
      00FF11F3H   CODE     ---       LCD12864_ShowPicture
      00FF1595H   CODE     ---       LCD12864_ShowString
L251 LINKER/LOCATER V4.66.93.0                                                        07/09/2022  14:00:38  PAGE 10


      00FF1465H   CODE     ---       LED40_SendData
      00FF14A3H   CODE     ---       LED64_SendData
*SFR* 000000F9H   DATA     BYTE      LINICR
      00FF08A0H   CODE     ---       main
      00FF0F5AH   CODE     ---       MANUFACTDESC
      00FF1990H   CODE     ---       memcpy?_
      00FF1C8DH   CODE     ---       OLED12864_DisplayContent
      00FF1B8BH   CODE     ---       OLED12864_DisplayEntire
      00FF1C03H   CODE     ---       OLED12864_DisplayOff
      00FF1B13H   CODE     ---       OLED12864_DisplayOn
      00FF1D4BH   CODE     ---       OLED12864_DisplayReverse
      00FF1C76H   CODE     ---       OLED12864_HorizontalMirror
      00FF1724H   CODE     ---       OLED12864_ScrollLeft
      00FF16B4H   CODE     ---       OLED12864_ScrollRight
      00FF1AFBH   CODE     ---       OLED12864_ScrollStart
      00FF1C31H   CODE     ---       OLED12864_ScrollStop
      00FF16ECH   CODE     ---       OLED12864_ScrollUp
      00FF19B5H   CODE     ---       OLED12864_SetAddressMode
      00FF19D4H   CODE     ---       OLED12864_SetContrast
      00FF1427H   CODE     ---       OLED12864_ShowPicture
      00FF1B5BH   CODE     ---       OLED12864_VerticalMirror
      00000019H   EDATA    BYTE      OutEpState
*SFR* 00000080H   DATA     BYTE      P0
*SFR* 00000094H   DATA     BYTE      P0M0
*SFR* 00000093H   DATA     BYTE      P0M1
*SFR* 00000090H   DATA     BYTE      P1
*SFR* 00000092H   DATA     BYTE      P1M0
*SFR* 00000091H   DATA     BYTE      P1M1
*SFR* 000000A0H   DATA     BYTE      P2
*SFR* 00000096H   DATA     BYTE      P2M0
*SFR* 00000095H   DATA     BYTE      P2M1
*SFR* 000000B0H   DATA     BYTE      P3
*SFR* 000000B0H.2 DATA     BIT       P32
*SFR* 000000B2H   DATA     BYTE      P3M0
*SFR* 000000B1H   DATA     BYTE      P3M1
*SFR* 000000C0H   DATA     BYTE      P4
*SFR* 000000C0H.5 DATA     BIT       P45
*SFR* 000000C0H.6 DATA     BIT       P46
*SFR* 000000C0H.7 DATA     BIT       P47
*SFR* 000000B4H   DATA     BYTE      P4M0
*SFR* 000000B3H   DATA     BYTE      P4M1
*SFR* 000000C8H   DATA     BYTE      P5
*SFR* 000000C8H.2 DATA     BIT       P52
*SFR* 000000C8H.4 DATA     BIT       P54
*SFR* 000000CAH   DATA     BYTE      P5M0
*SFR* 000000C9H   DATA     BYTE      P5M1
*SFR* 000000E8H   DATA     BYTE      P6
*SFR* 000000CCH   DATA     BYTE      P6M0
*SFR* 000000CBH   DATA     BYTE      P6M1
*SFR* 000000F8H   DATA     BYTE      P7
*SFR* 000000E2H   DATA     BYTE      P7M0
*SFR* 000000E1H   DATA     BYTE      P7M1
*SFR* 000000A2H   DATA     BYTE      P_SW1
*SFR* 000000BAH   DATA     BYTE      P_SW2
*SFR* 000000BBH   DATA     BYTE      P_SW3
      00FF0F56H   CODE     ---       PACKET0
      00FF0F58H   CODE     ---       PACKET1
*SFR* 00000087H   DATA     BYTE      PCON
      00FF17BFH   CODE     ---       printf_hid
      00FF0EE2H   CODE     ---       PRODUCTDESC
*SFR* 000000D0H   DATA     BYTE      PSW
      00FF0096H   CODE     ---       reverse2
*SFR* 000000FFH   DATA     BYTE      RSTCFG
      000100C0H   XDATA    ---       RX3_Buffer
      00000086H   EDATA    BYTE      RX3_Cnt
L251 LINKER/LOCATER V4.66.93.0                                                        07/09/2022  14:00:38  PAGE 11


      0000007AH   EDATA    BYTE      RX3_TimeOut
      00010100H   XDATA    ---       RX4_Buffer
      00000087H   EDATA    BYTE      RX4_Cnt
      0000007BH   EDATA    BYTE      RX4_TimeOut
*SFR* 0000009BH   DATA     BYTE      S2BUF
*SFR* 0000009AH   DATA     BYTE      S2CON
*SFR* 000000BAH.1 DATA     BIT       S3_S
*SFR* 000000ADH   DATA     BYTE      S3BUF
*SFR* 000000ACH   DATA     BYTE      S3CON
*SFR* 000000ACH.0 DATA     BIT       S3RI
*SFR* 000000ACH.1 DATA     BIT       S3TI
*SFR* 000000BAH.2 DATA     BIT       S4_S
*SFR* 000000FEH   DATA     BYTE      S4BUF
*SFR* 000000FDH   DATA     BYTE      S4CON
*SFR* 000000FDH.0 DATA     BIT       S4RI
*SFR* 000000FDH.1 DATA     BIT       S4TI
*SFR* 00000098H   DATA     BYTE      SCON
      00FF175BH   CODE     ---       SEG7_ShowCode
      00FF178EH   CODE     ---       SEG7_ShowFloat
      00FF155AH   CODE     ---       SEG7_ShowLong
      00FF1365H   CODE     ---       SEG7_ShowString
      00FF1ACBH   CODE     ---       SetTimer2Baudraye
      00000008H   EDATA    ---       Setup
      00FF1BD3H   CODE     ---       sleep_ms
      00FF1A30H   CODE     ---       sleep_us
*SFR* 000000CEH   DATA     BYTE      SPCTL
*SFR* 000000CDH   DATA     BYTE      SPSTAT
      00FF1A51H   CODE     NEAR LAB  strcmp?_
      00FF1D98H   CODE     ---       strlen?_
*SFR* 0000008EH.3 DATA     BIT       T2_CT
*SFR* 000000D6H   DATA     BYTE      T2H
*SFR* 000000D7H   DATA     BYTE      T2L
*SFR* 0000008EH.4 DATA     BIT       T2R
*SFR* 0000008EH.2 DATA     BIT       T2x12
*SFR* 000000DDH.2 DATA     BIT       T3_CT
*SFR* 000000D4H   DATA     BYTE      T3H
*SFR* 000000D5H   DATA     BYTE      T3L
*SFR* 000000DDH.3 DATA     BIT       T3R
*SFR* 000000DDH.1 DATA     BIT       T3x12
*SFR* 000000DDH.6 DATA     BIT       T4_CT
*SFR* 000000D2H   DATA     BYTE      T4H
*SFR* 000000D3H   DATA     BYTE      T4L
*SFR* 000000DDH.7 DATA     BIT       T4R
*SFR* 000000DDH   DATA     BYTE      T4T3M
*SFR* 000000DDH.5 DATA     BIT       T4x12
*SFR* 00000088H   DATA     BYTE      TCON
      00FF151EH   CODE     ---       TestError
      00FF1320H   CODE     ---       TestIO
*SFR* 0000008CH   DATA     BYTE      TH0
      00FF109FH   CODE     ---       timer0
      00FF1D6EH   CODE     ---       Timer0_Init
*SFR* 0000008AH   DATA     BYTE      TL0
*SFR* 00000089H   DATA     BYTE      TMOD
*SFR* 00000088H.4 DATA     BIT       TR0
      0000008CH   EDATA    BYTE      TX3_Cnt
      0000008DH   EDATA    BYTE      TX4_Cnt
      00000079H   EDATA    BYTE      TX_Data
      00FF160AH   CODE     ---       UART3_config
      00FF1240H   CODE     ---       UART3_int
      00FF1643H   CODE     ---       UART4_config
      00FF11A0H   CODE     ---       UART4_int
      00FF1DB3H   CODE     ---       UART4_TxByte
      00FF1CE8H   CODE     ---       usb_bulk_intr_in
      00FF1A67H   CODE     ---       usb_bulk_intr_out
      00FF0B7DH   CODE     ---       usb_clear_feature
L251 LINKER/LOCATER V4.66.93.0                                                        07/09/2022  14:00:38  PAGE 12


      00FF0FDCH   CODE     ---       usb_ctrl_in
      00FF10F6H   CODE     ---       usb_ctrl_out
      00FF114CH   CODE     ---       usb_get_configuration
      00FF0AA1H   CODE     ---       usb_get_descriptor
      00FF1945H   CODE     ---       usb_get_idle
      00FF13E9H   CODE     ---       usb_get_interface
      00FF0003H   CODE     ---       usb_get_protocol
      00FF1877H   CODE     ---       usb_get_report
      00FF09A2H   CODE     ---       usb_get_status
      00FF18CBH   CODE     ---       usb_IN
      00FF184AH   CODE     ---       usb_in_ep1
      00FF128BH   CODE     ---       usb_init
      00FF0F62H   CODE     ---       usb_isr
      00FF1AE3H   CODE     ---       usb_OUT_done
      00FF000EH   CODE     ---       usb_out_ep1
      00FF15D0H   CODE     ---       usb_read_fifo?_
      00FF1CFDH   CODE     ---       usb_read_reg
      00FF181CH   CODE     ---       usb_req_class
      00FF1043H   CODE     ---       usb_req_std
      00FF1DBFH   CODE     ---       usb_req_vendor
      00FF167CH   CODE     ---       usb_reset
      00FF000AH   CODE     ---       usb_resume
      00FF12D6H   CODE     ---       usb_set_address
      00FF0DCBH   CODE     ---       usb_set_configuration
      00FF008EH   CODE     ---       usb_set_descriptor
      00FF0C18H   CODE     ---       usb_set_feature
      00FF1A12H   CODE     ---       usb_set_idle
      00FF191DH   CODE     ---       usb_set_interface
      00FF0006H   CODE     ---       usb_set_protocol
      00FF18A1H   CODE     ---       usb_set_report
      00FF0E58H   CODE     ---       usb_setup
      00FF1D5DH   CODE     ---       usb_setup_in
      00FF1D7CH   CODE     ---       usb_setup_out
      00FF1D8AH   CODE     ---       usb_setup_stall
      00FF1DA6H   CODE     ---       usb_setup_status
      00FF0009H   CODE     ---       usb_suspend
      00FF1DBCH   CODE     ---       usb_synch_frame
      00FF18F4H   CODE     ---       usb_write_fifo?_
      00FF1D26H   CODE     ---       usb_write_reg
*SFR* 000000FCH   DATA     BYTE      USBADR
*SFR* 000000DCH   DATA     BYTE      USBCLK
*SFR* 000000F4H   DATA     BYTE      USBCON
*SFR* 000000ECH   DATA     BYTE      USBDAT
      00010080H   XDATA    ---       UsbFeatureBuffer
      00010000H   XDATA    ---       UsbInBuffer
      00010040H   XDATA    ---       UsbOutBuffer
      0000008EH   EDATA    ---       USER_DEVICEDESC
      00000088H   EDATA    ---       USER_PRODUCTDESC
      00000080H   EDATA    ---       USER_STCISPCMD
      0000007EH   EDATA    WORD      vcc
      00FF00CEH   CODE     NEAR LAB  vsprintf
*SFR* 000000C1H   DATA     BYTE      WDT_CONTR
*SFR* 000000E9H   DATA     BYTE      WTST



SYMBOL TABLE OF MODULE:  .\Objects\Test (main)

      VALUE       REP       CLASS    TYPE      SYMBOL NAME
      ====================================================
      ---         MODULE    ---      ---       main
      00FF1ACBH   PUBLIC    CODE     ---       SetTimer2Baudraye
      00FF1240H   PUBLIC    CODE     ---       UART3_int
      00FF11A0H   PUBLIC    CODE     ---       UART4_int
      00FF08A0H   PUBLIC    CODE     ---       main
L251 LINKER/LOCATER V4.66.93.0                                                        07/09/2022  14:00:38  PAGE 13


      00FF1D6EH   PUBLIC    CODE     ---       Timer0_Init
      00FF151EH   PUBLIC    CODE     ---       TestError
      00FF1DB3H   PUBLIC    CODE     ---       UART4_TxByte
      00FF14E1H   PUBLIC    CODE     ---       KeyResetScan
      00FF1320H   PUBLIC    CODE     ---       TestIO
      00FF1D12H   PUBLIC    CODE     ---       ADC_Init
      00FF160AH   PUBLIC    CODE     ---       UART3_config
      00FF1643H   PUBLIC    CODE     ---       UART4_config
      00FF1CD2H   PUBLIC    CODE     ---       delay_ms
      00FF109FH   PUBLIC    CODE     ---       timer0
      00FF17EEH   PUBLIC    CODE     ---       Get_ADC12bitResult
      00000020H.0 PUBLIC    BIT      BIT       Key_Flag
      00000020H.1 PUBLIC    BIT      BIT       B_TX3_Busy
      00000020H.2 PUBLIC    BIT      BIT       B_TX4_Busy
      00000020H.3 PUBLIC    BIT      BIT       B_Err_Flag
      00000079H   PUBLIC    EDATA    BYTE      TX_Data
      0000007AH   PUBLIC    EDATA    BYTE      RX3_TimeOut
      0000007BH   PUBLIC    EDATA    BYTE      RX4_TimeOut
      0000007CH   PUBLIC    EDATA    WORD      Bandgap
      0000007EH   PUBLIC    EDATA    WORD      vcc
      00000080H   PUBLIC    EDATA    ---       USER_STCISPCMD
      00000084H   PUBLIC    EDATA    WORD      Key_cnt
      00000086H   PUBLIC    EDATA    BYTE      RX3_Cnt
      00000087H   PUBLIC    EDATA    BYTE      RX4_Cnt
      00000088H   PUBLIC    EDATA    ---       USER_PRODUCTDESC
      0000008CH   PUBLIC    EDATA    BYTE      TX3_Cnt
      0000008DH   PUBLIC    EDATA    BYTE      TX4_Cnt
      0000008EH   PUBLIC    EDATA    ---       USER_DEVICEDESC
      000100C0H   PUBLIC    XDATA    ---       RX3_Buffer
      00010100H   PUBLIC    XDATA    ---       RX4_Buffer
      0000008EH.3 SFRSYM    DATA     BIT       T2_CT
      00000094H   SFRSYM    DATA     BYTE      P0M0
      000000D0H   SFRSYM    DATA     BYTE      PSW
      000000BAH.7 SFRSYM    DATA     BIT       EAXFR
      0000009DH   SFRSYM    DATA     BYTE      IRCBAND
      00000097H   SFRSYM    DATA     BYTE      AUXR2
      000000EAH   SFRSYM    DATA     BYTE      CKCON
      000000EFH   SFRSYM    DATA     BYTE      AUXINTIF
      000000FDH   SFRSYM    DATA     BYTE      S4CON
      000000ACH   SFRSYM    DATA     BYTE      S3CON
      0000009AH   SFRSYM    DATA     BYTE      S2CON
      000000FEH   SFRSYM    DATA     BYTE      S4BUF
      000000ADH   SFRSYM    DATA     BYTE      S3BUF
      000000DDH.5 SFRSYM    DATA     BIT       T4x12
      0000009BH   SFRSYM    DATA     BYTE      S2BUF
      000000DDH.1 SFRSYM    DATA     BIT       T3x12
      0000008EH.2 SFRSYM    DATA     BIT       T2x12
      000000B7H   SFRSYM    DATA     BYTE      IPH
      000000CDH   SFRSYM    DATA     BYTE      SPSTAT
      000000BEH   SFRSYM    DATA     BYTE      ADC_RESL
      000000DDH   SFRSYM    DATA     BYTE      T4T3M
      000000DDH.7 SFRSYM    DATA     BIT       T4R
      000000DDH.3 SFRSYM    DATA     BIT       T3R
      0000008EH.4 SFRSYM    DATA     BIT       T2R
      000000C1H   SFRSYM    DATA     BYTE      WDT_CONTR
      00000088H.4 SFRSYM    DATA     BIT       TR0
      000000D3H   SFRSYM    DATA     BYTE      T4L
      000000D5H   SFRSYM    DATA     BYTE      T3L
      000000E9H   SFRSYM    DATA     BYTE      WTST
      000000D7H   SFRSYM    DATA     BYTE      T2L
      0000008AH   SFRSYM    DATA     BYTE      TL0
      000000D2H   SFRSYM    DATA     BYTE      T4H
      000000D4H   SFRSYM    DATA     BYTE      T3H
      000000D6H   SFRSYM    DATA     BYTE      T2H
      0000008CH   SFRSYM    DATA     BYTE      TH0
L251 LINKER/LOCATER V4.66.93.0                                                        07/09/2022  14:00:38  PAGE 14


      000000AFH.4 SFRSYM    DATA     BIT       ES4
      000000DFH   SFRSYM    DATA     BYTE      IP3
      000000F4H   SFRSYM    DATA     BYTE      USBCON
      000000AFH.3 SFRSYM    DATA     BIT       ES3
      000000AFH.2 SFRSYM    DATA     BIT       ET2
      000000B5H   SFRSYM    DATA     BYTE      IP2
      000000FFH   SFRSYM    DATA     BYTE      RSTCFG
      000000A8H.1 SFRSYM    DATA     BIT       ET0
      000000DCH   SFRSYM    DATA     BYTE      USBCLK
      000000BCH.5 SFRSYM    DATA     BIT       ADC_FLAG
      000000C7H   SFRSYM    DATA     BYTE      IAP_CONTR
      000000F9H   SFRSYM    DATA     BYTE      LINICR
      0000008EH   SFRSYM    DATA     BYTE      AUXR
      000000AFH   SFRSYM    DATA     BYTE      IE2
      000000C0H.7 SFRSYM    DATA     BIT       P47
      000000BAH.2 SFRSYM    DATA     BIT       S4_S
      000000C0H.6 SFRSYM    DATA     BIT       P46
      000000BAH.1 SFRSYM    DATA     BIT       S3_S
      000000BCH.6 SFRSYM    DATA     BIT       ADC_START
      000000C0H.5 SFRSYM    DATA     BIT       P45
      000000C8H.4 SFRSYM    DATA     BIT       P54
      000000C8H.2 SFRSYM    DATA     BIT       P52
      00000088H   SFRSYM    DATA     BYTE      TCON
      00000089H   SFRSYM    DATA     BYTE      TMOD
      000000B0H.2 SFRSYM    DATA     BIT       P32
      00000098H   SFRSYM    DATA     BYTE      SCON
      000000F1H   SFRSYM    DATA     BYTE      CANICR
      00000087H   SFRSYM    DATA     BYTE      PCON
      000000BCH   SFRSYM    DATA     BYTE      ADC_CONTR
      000000AFH.7 SFRSYM    DATA     BIT       EUSB
      000000E7H   SFRSYM    DATA     BYTE      CMPCR2
      000000E6H   SFRSYM    DATA     BYTE      CMPCR1
      000000FDH.1 SFRSYM    DATA     BIT       S4TI
      000000ACH.1 SFRSYM    DATA     BIT       S3TI
      000000FDH.0 SFRSYM    DATA     BIT       S4RI
      000000ACH.0 SFRSYM    DATA     BIT       S3RI
      000000DEH   SFRSYM    DATA     BYTE      ADCCFG
      000000B8H   SFRSYM    DATA     BYTE      IP
      0000008FH   SFRSYM    DATA     BYTE      INTCLKO
      000000EEH   SFRSYM    DATA     BYTE      IP3H
      000000B6H   SFRSYM    DATA     BYTE      IP2H
      000000BDH   SFRSYM    DATA     BYTE      ADC_RES
      000000A8H   SFRSYM    DATA     BYTE      IE
      000000BBH   SFRSYM    DATA     BYTE      P_SW3
      000000BAH   SFRSYM    DATA     BYTE      P_SW2
      000000A2H   SFRSYM    DATA     BYTE      P_SW1
      000000CEH   SFRSYM    DATA     BYTE      SPCTL
      000000F8H   SFRSYM    DATA     BYTE      P7
      000000A8H.7 SFRSYM    DATA     BIT       EA
      000000E1H   SFRSYM    DATA     BYTE      P7M1
      000000E8H   SFRSYM    DATA     BYTE      P6
      000000C8H   SFRSYM    DATA     BYTE      P5
      000000CBH   SFRSYM    DATA     BYTE      P6M1
      000000E2H   SFRSYM    DATA     BYTE      P7M0
      000000C0H   SFRSYM    DATA     BYTE      P4
      000000C9H   SFRSYM    DATA     BYTE      P5M1
      000000CCH   SFRSYM    DATA     BYTE      P6M0
      000000B0H   SFRSYM    DATA     BYTE      P3
      000000B3H   SFRSYM    DATA     BYTE      P4M1
      000000CAH   SFRSYM    DATA     BYTE      P5M0
      000000A0H   SFRSYM    DATA     BYTE      P2
      000000B1H   SFRSYM    DATA     BYTE      P3M1
      000000B4H   SFRSYM    DATA     BYTE      P4M0
      00000090H   SFRSYM    DATA     BYTE      P1
      00000095H   SFRSYM    DATA     BYTE      P2M1
L251 LINKER/LOCATER V4.66.93.0                                                        07/09/2022  14:00:38  PAGE 15


      000000B2H   SFRSYM    DATA     BYTE      P3M0
      00000080H   SFRSYM    DATA     BYTE      P0
      00000091H   SFRSYM    DATA     BYTE      P1M1
      00000096H   SFRSYM    DATA     BYTE      P2M0
      000000DDH.6 SFRSYM    DATA     BIT       T4_CT
      00000092H   SFRSYM    DATA     BYTE      P1M0
      00000093H   SFRSYM    DATA     BYTE      P0M1
      000000DDH.2 SFRSYM    DATA     BIT       T3_CT

      00FF08A0H   BLOCK     CODE     ---       LVL=0
      R13         REGSYM    ---      BYTE      i
      WR14        REGSYM    ---      WORD      j
      00FF08A0H   LINE      CODE     ---       #94
      00FF08A0H   LINE      CODE     ---       #95
      00FF08A0H   LINE      CODE     ---       #98
      00FF08A3H   LINE      CODE     ---       #99
      00FF08A6H   LINE      CODE     ---       #100
      00FF08A9H   LINE      CODE     ---       #102
      00FF08AFH   LINE      CODE     ---       #103
      00FF08B5H   LINE      CODE     ---       #104
      00FF08BBH   LINE      CODE     ---       #105
      00FF08C1H   LINE      CODE     ---       #106
      00FF08C7H   LINE      CODE     ---       #107
      00FF08CDH   LINE      CODE     ---       #108
      00FF08D3H   LINE      CODE     ---       #109
      00FF08D9H   LINE      CODE     ---       #112
      00FF08DCH   LINE      CODE     ---       #113
      00FF08DFH   LINE      CODE     ---       #114
      00FF08ECH   LINE      CODE     ---       #115
      00FF08FAH   LINE      CODE     ---       #116
      00FF08FDH   LINE      CODE     ---       #119
      00FF0900H   LINE      CODE     ---       #120
      00FF0903H   LINE      CODE     ---       #121
      00FF0908H   LINE      CODE     ---       #122
      00FF090DH   LINE      CODE     ---       #123
      00FF0910H   LINE      CODE     ---       #124
      00FF0912H   LINE      CODE     ---       #126
      00FF0917H   LINE      CODE     ---       #127
      00FF0939H   LINE      CODE     ---       #128
      00FF093BH   LINE      CODE     ---       #130
      00FF0940H   LINE      CODE     ---       #131
      00FF0945H   LINE      CODE     ---       #132
      00FF0949H   LINE      CODE     ---       #134
      00FF0950H   LINE      CODE     ---       #135
      00FF0957H   LINE      CODE     ---       #136
      00FF095FH   LINE      CODE     ---       #138
      00FF0977H   LINE      CODE     ---       #140
      00FF0987H   LINE      CODE     ---       #145
      00FF098AH   LINE      CODE     ---       #146
      00FF098AH   LINE      CODE     ---       #149
      00FF098AH   LINE      CODE     ---       #151
      00FF098DH   LINE      CODE     ---       #152
      00FF0999H   LINE      CODE     ---       #153
      00FF099CH   LINE      CODE     ---       #155
      00FF099FH   LINE      CODE     ---       #156
      00FF09A1H   LINE      CODE     ---       #158
      00FF09A1H   LINE      CODE     ---       #159
      ---         BLOCKEND  ---      ---       LVL=0

      00FF109FH   BLOCK     CODE     ---       LVL=0
      00FF109FH   LINE      CODE     ---       #162
      00FF10B5H   LINE      CODE     ---       #164
      00FF10BEH   LINE      CODE     ---       #166
      00FF10C5H   LINE      CODE     ---       #168
      00FF10D1H   LINE      CODE     ---       #169
L251 LINKER/LOCATER V4.66.93.0                                                        07/09/2022  14:00:38  PAGE 16


      00FF10D6H   LINE      CODE     ---       #170
      00FF10D6H   LINE      CODE     ---       #173
      00FF10D9H   LINE      CODE     ---       #178
      00FF10DCH   LINE      CODE     ---       #179
      00FF10DCH   LINE      CODE     ---       #181
      00FF10DFH   LINE      CODE     ---       #182
      ---         BLOCKEND  ---      ---       LVL=0

      00FF151EH   BLOCK     CODE     ---       LVL=0
      00FF151EH   LINE      CODE     ---       #193
      00FF151EH   LINE      CODE     ---       #195
      00FF151EH   LINE      CODE     ---       #197
      00FF1521H   LINE      CODE     ---       #198
      00FF1524H   LINE      CODE     ---       #199
      00FF1527H   LINE      CODE     ---       #200
      00FF152AH   LINE      CODE     ---       #201
      00FF152DH   LINE      CODE     ---       #202
      00FF1530H   LINE      CODE     ---       #203
      00FF1533H   LINE      CODE     ---       #204
      00FF1536H   LINE      CODE     ---       #205
      00FF153BH   LINE      CODE     ---       #206
      00FF153EH   LINE      CODE     ---       #207
      00FF1541H   LINE      CODE     ---       #208
      00FF1544H   LINE      CODE     ---       #209
      00FF1547H   LINE      CODE     ---       #210
      00FF154AH   LINE      CODE     ---       #211
      00FF154DH   LINE      CODE     ---       #212
      00FF1550H   LINE      CODE     ---       #213
      00FF1553H   LINE      CODE     ---       #214
      00FF1558H   LINE      CODE     ---       #215
      ---         BLOCKEND  ---      ---       LVL=0

      00FF1320H   BLOCK     CODE     ---       LVL=0
      00FF1320H   LINE      CODE     ---       #227
      00FF1320H   LINE      CODE     ---       #229
      00FF1323H   LINE      CODE     ---       #230
      00FF1326H   LINE      CODE     ---       #231
      00FF1329H   LINE      CODE     ---       #232
      00FF132CH   LINE      CODE     ---       #233
      00FF132EH   LINE      CODE     ---       #234
      00FF1330H   LINE      CODE     ---       #235
      00FF1332H   LINE      CODE     ---       #236
      00FF1334H   LINE      CODE     ---       #237
      00FF1336H   LINE      CODE     ---       #239
      00FF133BH   LINE      CODE     ---       #240
      00FF1340H   LINE      CODE     ---       #241
      00FF1343H   LINE      CODE     ---       #242
      00FF1346H   LINE      CODE     ---       #243
      00FF1349H   LINE      CODE     ---       #244
      00FF134CH   LINE      CODE     ---       #245
      00FF134EH   LINE      CODE     ---       #246
      00FF1350H   LINE      CODE     ---       #247
      00FF1352H   LINE      CODE     ---       #248
      00FF1354H   LINE      CODE     ---       #249
      00FF1356H   LINE      CODE     ---       #251
      00FF135BH   LINE      CODE     ---       #252
      00FF1360H   LINE      CODE     ---       #253
      ---         BLOCKEND  ---      ---       LVL=0

      00FF1D6EH   BLOCK     CODE     ---       LVL=0
      00FF1D6EH   LINE      CODE     ---       #265
      00FF1D6EH   LINE      CODE     ---       #268
      00FF1D71H   LINE      CODE     ---       #269
      00FF1D74H   LINE      CODE     ---       #270
      00FF1D77H   LINE      CODE     ---       #271
L251 LINKER/LOCATER V4.66.93.0                                                        07/09/2022  14:00:38  PAGE 17


      00FF1D79H   LINE      CODE     ---       #272
      00FF1D7BH   LINE      CODE     ---       #273
      ---         BLOCKEND  ---      ---       LVL=0

      00FF1D12H   BLOCK     CODE     ---       LVL=0
      00FF1D12H   LINE      CODE     ---       #284
      00FF1D12H   LINE      CODE     ---       #286
      00FF1D1FH   LINE      CODE     ---       #287
      00FF1D22H   LINE      CODE     ---       #288
      00FF1D25H   LINE      CODE     ---       #289
      ---         BLOCKEND  ---      ---       LVL=0

      00FF17EEH   BLOCK     CODE     ---       LVL=0
      R10         REGSYM    ---      BYTE      channel
      00FF17EEH   LINE      CODE     ---       #298
      00FF17F0H   LINE      CODE     ---       #300
      00FF17F3H   LINE      CODE     ---       #301
      00FF17F6H   LINE      CODE     ---       #303
      00FF17FEH   LINE      CODE     ---       #304
      00FF1801H   LINE      CODE     ---       #305
      00FF1802H   LINE      CODE     ---       #306
      00FF1803H   LINE      CODE     ---       #307
      00FF1804H   LINE      CODE     ---       #308
      00FF1805H   LINE      CODE     ---       #310
      00FF180CH   LINE      CODE     ---       #311
      00FF180FH   LINE      CODE     ---       #312
      00FF181BH   LINE      CODE     ---       #313
      ---         BLOCKEND  ---      ---       LVL=0

      00FF1CD2H   BLOCK     CODE     ---       LVL=0
      R10         REGSYM    ---      BYTE      ms
      00FF1CD4H   BLOCK     CODE     NEAR LAB  LVL=1
      WR8         REGSYM    ---      WORD      i
      ---         BLOCKEND  ---      ---       LVL=1
      00FF1CD2H   LINE      CODE     ---       #324
      00FF1CD4H   LINE      CODE     ---       #325
      00FF1CD4H   LINE      CODE     ---       #327
      00FF1CD4H   LINE      CODE     ---       #328
      00FF1CD8H   LINE      CODE     ---       #329
      00FF1CE0H   LINE      CODE     ---       #330
      00FF1CE7H   LINE      CODE     ---       #331
      ---         BLOCKEND  ---      ---       LVL=0

      00FF1DB3H   BLOCK     CODE     ---       LVL=0
      R11         REGSYM    ---      BYTE      dat
      00FF1DB3H   LINE      CODE     ---       #354
      00FF1DB3H   LINE      CODE     ---       #356
      00FF1DB5H   LINE      CODE     ---       #357
      00FF1DB8H   LINE      CODE     ---       #358
      00FF1DBBH   LINE      CODE     ---       #359
      ---         BLOCKEND  ---      ---       LVL=0

      00FF1ACBH   BLOCK     CODE     ---       LVL=0
      WR6         REGSYM    ---      WORD      dat
      00FF1ACBH   LINE      CODE     ---       #404
      00FF1ACBH   LINE      CODE     ---       #406
      00FF1ACEH   LINE      CODE     ---       #407
      00FF1AD1H   LINE      CODE     ---       #408
      00FF1AD4H   LINE      CODE     ---       #409
      00FF1AD8H   LINE      CODE     ---       #410
      00FF1ADCH   LINE      CODE     ---       #411
      00FF1ADFH   LINE      CODE     ---       #412
      00FF1AE2H   LINE      CODE     ---       #413
      ---         BLOCKEND  ---      ---       LVL=0

L251 LINKER/LOCATER V4.66.93.0                                                        07/09/2022  14:00:38  PAGE 18


      00FF160AH   BLOCK     CODE     ---       LVL=0
      R7          REGSYM    ---      BYTE      brt
      00FF160AH   LINE      CODE     ---       #424
      00FF160CH   LINE      CODE     ---       #426
      00FF1610H   LINE      CODE     ---       #428
      00FF1617H   LINE      CODE     ---       #429
      00FF161AH   LINE      CODE     ---       #430
      00FF161CH   LINE      CODE     ---       #433
      00FF161FH   LINE      CODE     ---       #434
      00FF1622H   LINE      CODE     ---       #435
      00FF1625H   LINE      CODE     ---       #436
      00FF1628H   LINE      CODE     ---       #437
      00FF162BH   LINE      CODE     ---       #438
      00FF162EH   LINE      CODE     ---       #439
      00FF1631H   LINE      CODE     ---       #440
      00FF1631H   LINE      CODE     ---       #441
      00FF1634H   LINE      CODE     ---       #442
      00FF1637H   LINE      CODE     ---       #444
      00FF1639H   LINE      CODE     ---       #445
      00FF163EH   LINE      CODE     ---       #446
      00FF1642H   LINE      CODE     ---       #447
      ---         BLOCKEND  ---      ---       LVL=0

      00FF1643H   BLOCK     CODE     ---       LVL=0
      R7          REGSYM    ---      BYTE      brt
      00FF1643H   LINE      CODE     ---       #458
      00FF1645H   LINE      CODE     ---       #460
      00FF1649H   LINE      CODE     ---       #462
      00FF1650H   LINE      CODE     ---       #463
      00FF1653H   LINE      CODE     ---       #464
      00FF1655H   LINE      CODE     ---       #467
      00FF1658H   LINE      CODE     ---       #468
      00FF165BH   LINE      CODE     ---       #469
      00FF165EH   LINE      CODE     ---       #470
      00FF1661H   LINE      CODE     ---       #471
      00FF1664H   LINE      CODE     ---       #472
      00FF1667H   LINE      CODE     ---       #473
      00FF166AH   LINE      CODE     ---       #474
      00FF166AH   LINE      CODE     ---       #475
      00FF166DH   LINE      CODE     ---       #476
      00FF1670H   LINE      CODE     ---       #478
      00FF1672H   LINE      CODE     ---       #479
      00FF1677H   LINE      CODE     ---       #480
      00FF167BH   LINE      CODE     ---       #481
      ---         BLOCKEND  ---      ---       LVL=0

      00FF1240H   BLOCK     CODE     ---       LVL=0
      00FF1240H   LINE      CODE     ---       #492
      00FF1248H   LINE      CODE     ---       #494
      00FF124CH   LINE      CODE     ---       #496
      00FF124FH   LINE      CODE     ---       #497
      00FF1262H   LINE      CODE     ---       #498
      00FF1273H   LINE      CODE     ---       #499
      00FF1279H   LINE      CODE     ---       #500
      00FF1279H   LINE      CODE     ---       #502
      00FF127DH   LINE      CODE     ---       #504
      00FF1280H   LINE      CODE     ---       #505
      00FF1282H   LINE      CODE     ---       #506
      ---         BLOCKEND  ---      ---       LVL=0

      00FF11A0H   BLOCK     CODE     ---       LVL=0
      00FF11A0H   LINE      CODE     ---       #518
      00FF11AAH   LINE      CODE     ---       #520
      00FF11AEH   LINE      CODE     ---       #522
      00FF11B1H   LINE      CODE     ---       #523
L251 LINKER/LOCATER V4.66.93.0                                                        07/09/2022  14:00:38  PAGE 19


      00FF11BFH   LINE      CODE     ---       #524
      00FF11D2H   LINE      CODE     ---       #525
      00FF11D9H   LINE      CODE     ---       #526
      00FF11DFH   LINE      CODE     ---       #527
      00FF11DFH   LINE      CODE     ---       #529
      00FF11E3H   LINE      CODE     ---       #531
      00FF11E6H   LINE      CODE     ---       #532
      00FF11E8H   LINE      CODE     ---       #533
      ---         BLOCKEND  ---      ---       LVL=0

      00FF14E1H   BLOCK     CODE     ---       LVL=0
      00FF14E1H   LINE      CODE     ---       #545
      00FF14E1H   LINE      CODE     ---       #547
      00FF14E4H   LINE      CODE     ---       #549
      00FF14E7H   LINE      CODE     ---       #551
      00FF14F1H   LINE      CODE     ---       #552
      00FF14F7H   LINE      CODE     ---       #554
      00FF14F9H   LINE      CODE     ---       #556
      00FF14FCH   LINE      CODE     ---       #557
      00FF14FFH   LINE      CODE     ---       #558
      00FF150BH   LINE      CODE     ---       #560
      00FF1510H   LINE      CODE     ---       #561
      00FF1513H   LINE      CODE     ---       #562
      00FF1515H   LINE      CODE     ---       #568
      00FF151BH   LINE      CODE     ---       #569
      00FF151DH   LINE      CODE     ---       #570
      00FF151DH   LINE      CODE     ---       #571
      ---         BLOCKEND  ---      ---       LVL=0

      ---         MODULE    ---      ---       usb
      00FF1D5DH   PUBLIC    CODE     ---       usb_setup_in
      00FF1D7CH   PUBLIC    CODE     ---       usb_setup_out
      00FF0FDCH   PUBLIC    CODE     ---       usb_ctrl_in
      00FF10F6H   PUBLIC    CODE     ---       usb_ctrl_out
      00FF1AE3H   PUBLIC    CODE     ---       usb_OUT_done
      00FF0009H   PUBLIC    CODE     ---       usb_suspend
      00FF1CE8H   PUBLIC    CODE     ---       usb_bulk_intr_in
      00FF1A67H   PUBLIC    CODE     ---       usb_bulk_intr_out
      00FF000AH   PUBLIC    CODE     ---       usb_resume
      00FF18CBH   PUBLIC    CODE     ---       usb_IN
      00FF15D0H   PUBLIC    CODE     ---       usb_read_fifo?_
      00FF167CH   PUBLIC    CODE     ---       usb_reset
      00FF0E58H   PUBLIC    CODE     ---       usb_setup
      00FF18F4H   PUBLIC    CODE     ---       usb_write_fifo?_
      00FF128BH   PUBLIC    CODE     ---       usb_init
      00FF1D8AH   PUBLIC    CODE     ---       usb_setup_stall
      00FF1DA6H   PUBLIC    CODE     ---       usb_setup_status
      00FF1CFDH   PUBLIC    CODE     ---       usb_read_reg
      00FF184AH   PUBLIC    CODE     ---       usb_in_ep1
      00FF000EH   PUBLIC    CODE     ---       usb_out_ep1
      00FF1D26H   PUBLIC    CODE     ---       usb_write_reg
      00FF0F62H   PUBLIC    CODE     ---       usb_isr
      00000008H   PUBLIC    EDATA    ---       Setup
      00000010H   PUBLIC    EDATA    BYTE      DeviceState
      00000011H   PUBLIC    EDATA    ---       Ep0State
      00000018H   PUBLIC    EDATA    BYTE      InEpState
      00000019H   PUBLIC    EDATA    BYTE      OutEpState
      00000020H.4 PUBLIC    BIT      BIT       bUsbOutReady
      00000020H.5 PUBLIC    BIT      BIT       bUsbFeatureReady
      00000020H.6 PUBLIC    BIT      BIT       bUsbInBusy
      00010000H   PUBLIC    XDATA    ---       UsbInBuffer
      00010040H   PUBLIC    XDATA    ---       UsbOutBuffer
      00010080H   PUBLIC    XDATA    ---       UsbFeatureBuffer
      000000D0H   SFRSYM    DATA     BYTE      PSW
      0000009DH   SFRSYM    DATA     BYTE      IRCBAND
L251 LINKER/LOCATER V4.66.93.0                                                        07/09/2022  14:00:38  PAGE 20


      00000097H   SFRSYM    DATA     BYTE      AUXR2
      000000EFH   SFRSYM    DATA     BYTE      AUXINTIF
      000000FDH   SFRSYM    DATA     BYTE      S4CON
      000000ACH   SFRSYM    DATA     BYTE      S3CON
      0000009AH   SFRSYM    DATA     BYTE      S2CON
      000000B7H   SFRSYM    DATA     BYTE      IPH
      000000CDH   SFRSYM    DATA     BYTE      SPSTAT
      000000DDH   SFRSYM    DATA     BYTE      T4T3M
      000000C1H   SFRSYM    DATA     BYTE      WDT_CONTR
      000000DFH   SFRSYM    DATA     BYTE      IP3
      000000F4H   SFRSYM    DATA     BYTE      USBCON
      000000B5H   SFRSYM    DATA     BYTE      IP2
      000000FFH   SFRSYM    DATA     BYTE      RSTCFG
      000000DCH   SFRSYM    DATA     BYTE      USBCLK
      000000ECH   SFRSYM    DATA     BYTE      USBDAT
      000000C7H   SFRSYM    DATA     BYTE      IAP_CONTR
      000000F9H   SFRSYM    DATA     BYTE      LINICR
      000000FCH   SFRSYM    DATA     BYTE      USBADR
      0000008EH   SFRSYM    DATA     BYTE      AUXR
      000000AFH   SFRSYM    DATA     BYTE      IE2
      00000088H   SFRSYM    DATA     BYTE      TCON
      00000098H   SFRSYM    DATA     BYTE      SCON
      000000F1H   SFRSYM    DATA     BYTE      CANICR
      00000087H   SFRSYM    DATA     BYTE      PCON
      000000BCH   SFRSYM    DATA     BYTE      ADC_CONTR
      000000AFH.7 SFRSYM    DATA     BIT       EUSB
      000000E7H   SFRSYM    DATA     BYTE      CMPCR2
      000000E6H   SFRSYM    DATA     BYTE      CMPCR1
      000000B8H   SFRSYM    DATA     BYTE      IP
      0000008FH   SFRSYM    DATA     BYTE      INTCLKO
      000000EEH   SFRSYM    DATA     BYTE      IP3H
      000000B6H   SFRSYM    DATA     BYTE      IP2H
      000000A8H   SFRSYM    DATA     BYTE      IE
      000000BBH   SFRSYM    DATA     BYTE      P_SW3
      000000BAH   SFRSYM    DATA     BYTE      P_SW2
      000000A2H   SFRSYM    DATA     BYTE      P_SW1
      000000CEH   SFRSYM    DATA     BYTE      SPCTL
      000000F8H   SFRSYM    DATA     BYTE      P7
      000000E8H   SFRSYM    DATA     BYTE      P6
      000000C8H   SFRSYM    DATA     BYTE      P5
      000000C0H   SFRSYM    DATA     BYTE      P4
      000000B0H   SFRSYM    DATA     BYTE      P3
      000000A0H   SFRSYM    DATA     BYTE      P2
      00000090H   SFRSYM    DATA     BYTE      P1
      00000080H   SFRSYM    DATA     BYTE      P0

      00FF128BH   BLOCK     CODE     ---       LVL=0
      00FF128BH   LINE      CODE     ---       #22
      00FF128BH   LINE      CODE     ---       #24
      00FF128EH   LINE      CODE     ---       #25
      00FF1291H   LINE      CODE     ---       #27
      00FF1297H   LINE      CODE     ---       #28
      00FF129FH   LINE      CODE     ---       #29
      00FF12A7H   LINE      CODE     ---       #30
      00FF12AFH   LINE      CODE     ---       #31
      00FF12B7H   LINE      CODE     ---       #32
      00FF12BFH   LINE      CODE     ---       #34
      00FF12C5H   LINE      CODE     ---       #35
      00FF12CAH   LINE      CODE     ---       #36
      00FF12CEH   LINE      CODE     ---       #37
      00FF12D2H   LINE      CODE     ---       #39
      00FF12D5H   LINE      CODE     ---       #40
      ---         BLOCKEND  ---      ---       LVL=0

      00FF1CFDH   BLOCK     CODE     ---       LVL=0
L251 LINKER/LOCATER V4.66.93.0                                                        07/09/2022  14:00:38  PAGE 21


      R10         REGSYM    ---      BYTE      addr
      00FF1CFFH   BLOCK     CODE     NEAR LAB  LVL=1
      R11         REGSYM    ---      BYTE      dat
      ---         BLOCKEND  ---      ---       LVL=1
      00FF1CFDH   LINE      CODE     ---       #42
      00FF1CFFH   LINE      CODE     ---       #43
      00FF1CFFH   LINE      CODE     ---       #46
      00FF1D04H   LINE      CODE     ---       #47
      00FF1D0AH   LINE      CODE     ---       #48
      00FF1D0FH   LINE      CODE     ---       #49
      00FF1D11H   LINE      CODE     ---       #51
      00FF1D11H   LINE      CODE     ---       #52
      ---         BLOCKEND  ---      ---       LVL=0

      00FF1D26H   BLOCK     CODE     ---       LVL=0
      R7          REGSYM    ---      BYTE      addr
      R10         REGSYM    ---      BYTE      dat
      00FF1D26H   LINE      CODE     ---       #54
      00FF1D2AH   LINE      CODE     ---       #56
      00FF1D2FH   LINE      CODE     ---       #57
      00FF1D35H   LINE      CODE     ---       #58
      00FF1D38H   LINE      CODE     ---       #59
      ---         BLOCKEND  ---      ---       LVL=0

      00FF15D0H   BLOCK     CODE     ---       LVL=0
      FFFFFFFEH   STKSYM    ---      BYTE      fifo
      REG=3       REGSYM    ---      ---       pdat
      00FF15D8H   BLOCK     CODE     NEAR LAB  LVL=1
      00000000H   STKSYM    ---      BYTE      cnt
      FFFFFFFFH   STKSYM    ---      BYTE      ret
      ---         BLOCKEND  ---      ---       LVL=1
      00FF15D0H   LINE      CODE     ---       #61
      00FF15D8H   LINE      CODE     ---       #62
      00FF15D8H   LINE      CODE     ---       #66
      00FF15E4H   LINE      CODE     ---       #67
      00FF15E6H   LINE      CODE     ---       #69
      00FF15F2H   LINE      CODE     ---       #70
      00FF15FFH   LINE      CODE     ---       #72
      00FF1603H   LINE      CODE     ---       #73
      ---         BLOCKEND  ---      ---       LVL=0

      00FF18F4H   BLOCK     CODE     ---       LVL=0
      00000000H   STKSYM    ---      BYTE      fifo
      REG=3       REGSYM    ---      ---       pdat
      FFFFFFFFH   STKSYM    ---      BYTE      cnt
      00FF18F4H   LINE      CODE     ---       #75
      00FF18FCH   LINE      CODE     ---       #77
      00FF18FEH   LINE      CODE     ---       #79
      00FF1909H   LINE      CODE     ---       #80
      00FF1918H   LINE      CODE     ---       #81
      ---         BLOCKEND  ---      ---       LVL=0

      00FF0F62H   BLOCK     CODE     ---       LVL=0
      00FF0F7CH   BLOCK     CODE     NEAR LAB  LVL=1
      R15         REGSYM    ---      BYTE      intrusb
      R13         REGSYM    ---      BYTE      intrin
      R14         REGSYM    ---      BYTE      introut
      ---         BLOCKEND  ---      ---       LVL=1
      00FF0F62H   LINE      CODE     ---       #83
      00FF0F7CH   LINE      CODE     ---       #84
      00FF0F7CH   LINE      CODE     ---       #89
      00FF0F83H   LINE      CODE     ---       #90
      00FF0F8AH   LINE      CODE     ---       #91
      00FF0F91H   LINE      CODE     ---       #93
      00FF0F99H   LINE      CODE     ---       #94
L251 LINKER/LOCATER V4.66.93.0                                                        07/09/2022  14:00:38  PAGE 22


      00FF0FA1H   LINE      CODE     ---       #96
      00FF0FA9H   LINE      CODE     ---       #99
      00FF0FB1H   LINE      CODE     ---       #115
      00FF0FB9H   LINE      CODE     ---       #130
      00FF0FC1H   LINE      CODE     ---       #131
      ---         BLOCKEND  ---      ---       LVL=0

      00FF000AH   BLOCK     CODE     ---       LVL=0
      00FF000AH   LINE      CODE     ---       #133
      00FF000AH   LINE      CODE     ---       #135
      ---         BLOCKEND  ---      ---       LVL=0

      00FF167CH   BLOCK     CODE     ---       LVL=0
      00FF167CH   LINE      CODE     ---       #137
      00FF167CH   LINE      CODE     ---       #139
      00FF1682H   LINE      CODE     ---       #140
      00FF1688H   LINE      CODE     ---       #141
      00FF168DH   LINE      CODE     ---       #144
      00FF1695H   LINE      CODE     ---       #145
      00FF169DH   LINE      CODE     ---       #164
      00FF16A5H   LINE      CODE     ---       #165
      00FF16ADH   LINE      CODE     ---       #183
      ---         BLOCKEND  ---      ---       LVL=0

      00FF0009H   BLOCK     CODE     ---       LVL=0
      00FF0009H   LINE      CODE     ---       #186
      00FF0009H   LINE      CODE     ---       #188
      ---         BLOCKEND  ---      ---       LVL=0

      00FF0E58H   BLOCK     CODE     ---       LVL=0
      00FF0E5AH   BLOCK     CODE     NEAR LAB  LVL=1
      R15         REGSYM    ---      BYTE      csr
      ---         BLOCKEND  ---      ---       LVL=1
      00FF0E58H   LINE      CODE     ---       #190
      00FF0E5AH   LINE      CODE     ---       #191
      00FF0E5AH   LINE      CODE     ---       #194
      00FF0E61H   LINE      CODE     ---       #195
      00FF0E68H   LINE      CODE     ---       #197
      00FF0E6BH   LINE      CODE     ---       #199
      00FF0E75H   LINE      CODE     ---       #200
      00FF0E7AH   LINE      CODE     ---       #201
      00FF0E7AH   LINE      CODE     ---       #202
      00FF0E7FH   LINE      CODE     ---       #204
      00FF0E89H   LINE      CODE     ---       #205
      00FF0E89H   LINE      CODE     ---       #207
      00FF0E98H   LINE      CODE     ---       #209
      00FF0E98H   LINE      CODE     ---       #210
      00FF0E9DH   LINE      CODE     ---       #212
      00FF0EA6H   LINE      CODE     ---       #213
      00FF0EB1H   LINE      CODE     ---       #214
      00FF0EC3H   LINE      CODE     ---       #216
      00FF0EC3H   LINE      CODE     ---       #217
      00FF0EC6H   LINE      CODE     ---       #218
      00FF0EC8H   LINE      CODE     ---       #219
      00FF0EC8H   LINE      CODE     ---       #220
      00FF0ECBH   LINE      CODE     ---       #221
      00FF0ECDH   LINE      CODE     ---       #222
      00FF0ECDH   LINE      CODE     ---       #223
      00FF0ED0H   LINE      CODE     ---       #224
      00FF0ED2H   LINE      CODE     ---       #225
      00FF0ED2H   LINE      CODE     ---       #226
      00FF0ED5H   LINE      CODE     ---       #227
      00FF0ED7H   LINE      CODE     ---       #228
      00FF0ED7H   LINE      CODE     ---       #229
      00FF0ED7H   LINE      CODE     ---       #230
L251 LINKER/LOCATER V4.66.93.0                                                        07/09/2022  14:00:38  PAGE 23


      00FF0ED7H   LINE      CODE     ---       #231
      00FF0ED7H   LINE      CODE     ---       #232
      00FF0EDAH   LINE      CODE     ---       #233
      00FF0EDCH   LINE      CODE     ---       #234
      00FF0EDCH   LINE      CODE     ---       #235
      00FF0EDFH   LINE      CODE     ---       #236
      00FF0EDFH   LINE      CODE     ---       #237
      00FF0EDFH   LINE      CODE     ---       #238
      ---         BLOCKEND  ---      ---       LVL=0

      00FF1D8AH   BLOCK     CODE     ---       LVL=0
      00FF1D8AH   LINE      CODE     ---       #240
      00FF1D8AH   LINE      CODE     ---       #242
      00FF1D90H   LINE      CODE     ---       #243
      ---         BLOCKEND  ---      ---       LVL=0

      00FF1D5DH   BLOCK     CODE     ---       LVL=0
      00FF1D5DH   LINE      CODE     ---       #246
      00FF1D5DH   LINE      CODE     ---       #248
      00FF1D63H   LINE      CODE     ---       #249
      00FF1D6BH   LINE      CODE     ---       #250
      ---         BLOCKEND  ---      ---       LVL=0

      00FF1D7CH   BLOCK     CODE     ---       LVL=0
      00FF1D7CH   LINE      CODE     ---       #253
      00FF1D7CH   LINE      CODE     ---       #255
      00FF1D82H   LINE      CODE     ---       #256
      ---         BLOCKEND  ---      ---       LVL=0

      00FF1DA6H   BLOCK     CODE     ---       LVL=0
      00FF1DA6H   LINE      CODE     ---       #259
      00FF1DA6H   LINE      CODE     ---       #261
      00FF1DABH   LINE      CODE     ---       #262
      ---         BLOCKEND  ---      ---       LVL=0

      00FF0FDCH   BLOCK     CODE     ---       LVL=0
      00FF0FDEH   BLOCK     CODE     NEAR LAB  LVL=1
      R11         REGSYM    ---      BYTE      csr
      R15         REGSYM    ---      BYTE      cnt
      ---         BLOCKEND  ---      ---       LVL=1
      00FF0FDCH   LINE      CODE     ---       #265
      00FF0FDEH   LINE      CODE     ---       #266
      00FF0FDEH   LINE      CODE     ---       #270
      00FF0FE5H   LINE      CODE     ---       #271
      00FF0FEAH   LINE      CODE     ---       #272
      00FF0FEDH   LINE      CODE     ---       #274
      00FF0FFEH   LINE      CODE     ---       #275
      00FF1009H   LINE      CODE     ---       #276
      00FF1015H   LINE      CODE     ---       #277
      00FF1021H   LINE      CODE     ---       #278
      00FF1029H   LINE      CODE     ---       #280
      00FF1031H   LINE      CODE     ---       #281
      00FF1036H   LINE      CODE     ---       #282
      00FF1038H   LINE      CODE     ---       #285
      00FF1040H   LINE      CODE     ---       #286
      00FF1040H   LINE      CODE     ---       #287
      ---         BLOCKEND  ---      ---       LVL=0

      00FF10F6H   BLOCK     CODE     ---       LVL=0
      R11         REGSYM    ---      BYTE      csr
      R7          REGSYM    ---      BYTE      cnt
      00FF10F6H   LINE      CODE     ---       #289
      00FF10F6H   LINE      CODE     ---       #290
      00FF10F6H   LINE      CODE     ---       #294
      00FF10FDH   LINE      CODE     ---       #295
L251 LINKER/LOCATER V4.66.93.0                                                        07/09/2022  14:00:38  PAGE 24


      00FF1102H   LINE      CODE     ---       #296
      00FF1105H   LINE      CODE     ---       #298
      00FF110EH   LINE      CODE     ---       #299
      00FF111AH   LINE      CODE     ---       #300
      00FF1124H   LINE      CODE     ---       #301
      00FF112CH   LINE      CODE     ---       #303
      00FF1134H   LINE      CODE     ---       #304
      00FF1139H   LINE      CODE     ---       #306
      00FF1140H   LINE      CODE     ---       #307
      00FF1142H   LINE      CODE     ---       #308
      00FF1143H   LINE      CODE     ---       #311
      00FF114BH   LINE      CODE     ---       #312
      00FF114BH   LINE      CODE     ---       #313
      ---         BLOCKEND  ---      ---       LVL=0

      00FF1CE8H   BLOCK     CODE     ---       LVL=0
      REG=0       REGSYM    ---      ---       pData
      R7          REGSYM    ---      BYTE      bSize
      R10         REGSYM    ---      BYTE      ep
      00FF1CE8H   LINE      CODE     ---       #315
      00FF1CECH   LINE      CODE     ---       #317
      00FF1CF5H   LINE      CODE     ---       #318
      ---         BLOCKEND  ---      ---       LVL=0

      00FF1A67H   BLOCK     CODE     ---       LVL=0
      REG=0       REGSYM    ---      ---       pData
      R7          REGSYM    ---      BYTE      ep
      00FF1A69H   BLOCK     CODE     NEAR LAB  LVL=1
      R15         REGSYM    ---      BYTE      cnt
      ---         BLOCKEND  ---      ---       LVL=1
      00FF1A67H   LINE      CODE     ---       #321
      00FF1A69H   LINE      CODE     ---       #322
      00FF1A69H   LINE      CODE     ---       #325
      00FF1A74H   LINE      CODE     ---       #326
      00FF1A7BH   LINE      CODE     ---       #328
      00FF1A7DH   LINE      CODE     ---       #329
      ---         BLOCKEND  ---      ---       LVL=0

      00FF184AH   BLOCK     CODE     ---       LVL=0
      00FF184CH   BLOCK     CODE     NEAR LAB  LVL=1
      R15         REGSYM    ---      BYTE      csr
      ---         BLOCKEND  ---      ---       LVL=1
      00FF184AH   LINE      CODE     ---       #332
      00FF184CH   LINE      CODE     ---       #333
      00FF184CH   LINE      CODE     ---       #336
      00FF1854H   LINE      CODE     ---       #337
      00FF185BH   LINE      CODE     ---       #338
      00FF185EH   LINE      CODE     ---       #340
      00FF1866H   LINE      CODE     ---       #341
      00FF1866H   LINE      CODE     ---       #342
      00FF186BH   LINE      CODE     ---       #344
      00FF1872H   LINE      CODE     ---       #345
      00FF1872H   LINE      CODE     ---       #346
      00FF1874H   LINE      CODE     ---       #347
      ---         BLOCKEND  ---      ---       LVL=0

      00FF000EH   BLOCK     CODE     ---       LVL=0
      00FF0010H   BLOCK     CODE     NEAR LAB  LVL=1
      R15         REGSYM    ---      BYTE      csr
      ---         BLOCKEND  ---      ---       LVL=1
      00FF000EH   LINE      CODE     ---       #423
      00FF0010H   LINE      CODE     ---       #424
      00FF0010H   LINE      CODE     ---       #427
      00FF0018H   LINE      CODE     ---       #428
      00FF001FH   LINE      CODE     ---       #429
L251 LINKER/LOCATER V4.66.93.0                                                        07/09/2022  14:00:38  PAGE 25


      00FF0022H   LINE      CODE     ---       #431
      00FF002AH   LINE      CODE     ---       #432
      00FF002AH   LINE      CODE     ---       #433
      00FF002FH   LINE      CODE     ---       #435
      00FF003CH   LINE      CODE     ---       #436
      00FF0049H   LINE      CODE     ---       #438
      00FF0053H   LINE      CODE     ---       #440
      00FF0060H   LINE      CODE     ---       #442
      00FF0067H   LINE      CODE     ---       #444
      00FF006AH   LINE      CODE     ---       #445
      00FF006DH   LINE      CODE     ---       #446
      00FF0079H   LINE      CODE     ---       #448
      00FF0080H   LINE      CODE     ---       #450
      00FF0083H   LINE      CODE     ---       #451
      00FF0085H   LINE      CODE     ---       #452
      00FF0085H   LINE      CODE     ---       #455
      00FF0087H   LINE      CODE     ---       #457
      ---         BLOCKEND  ---      ---       LVL=0

      00FF18CBH   BLOCK     CODE     ---       LVL=0
      00FF18CBH   LINE      CODE     ---       #534
      00FF18CBH   LINE      CODE     ---       #536
      00FF18CEH   LINE      CODE     ---       #538
      00FF18D6H   LINE      CODE     ---       #539
      00FF18DEH   LINE      CODE     ---       #540
      00FF18EEH   LINE      CODE     ---       #541
      00FF18F0H   LINE      CODE     ---       #543
      00FF18F3H   LINE      CODE     ---       #544
      ---         BLOCKEND  ---      ---       LVL=0

      00FF1AE3H   BLOCK     CODE     ---       LVL=0
      00FF1AE3H   LINE      CODE     ---       #546
      00FF1AE3H   LINE      CODE     ---       #548
      00FF1AE6H   LINE      CODE     ---       #550
      00FF1AEEH   LINE      CODE     ---       #551
      00FF1AF5H   LINE      CODE     ---       #552
      00FF1AF7H   LINE      CODE     ---       #554
      00FF1AFAH   LINE      CODE     ---       #555
      ---         BLOCKEND  ---      ---       LVL=0

      ---         MODULE    ---      ---       usb_req_class
      00FF0003H   PUBLIC    CODE     ---       usb_get_protocol
      00FF0006H   PUBLIC    CODE     ---       usb_set_protocol
      00FF1945H   PUBLIC    CODE     ---       usb_get_idle
      00FF1877H   PUBLIC    CODE     ---       usb_get_report
      00FF181CH   PUBLIC    CODE     ---       usb_req_class
      00FF1A12H   PUBLIC    CODE     ---       usb_set_idle
      00FF18A1H   PUBLIC    CODE     ---       usb_set_report
      0000001FH   PUBLIC    EDATA    BYTE      bHidIdle
      000000D0H   SFRSYM    DATA     BYTE      PSW
      0000009DH   SFRSYM    DATA     BYTE      IRCBAND
      00000097H   SFRSYM    DATA     BYTE      AUXR2
      000000EFH   SFRSYM    DATA     BYTE      AUXINTIF
      000000FDH   SFRSYM    DATA     BYTE      S4CON
      000000ACH   SFRSYM    DATA     BYTE      S3CON
      0000009AH   SFRSYM    DATA     BYTE      S2CON
      000000B7H   SFRSYM    DATA     BYTE      IPH
      000000CDH   SFRSYM    DATA     BYTE      SPSTAT
      000000DDH   SFRSYM    DATA     BYTE      T4T3M
      000000C1H   SFRSYM    DATA     BYTE      WDT_CONTR
      000000DFH   SFRSYM    DATA     BYTE      IP3
      000000F4H   SFRSYM    DATA     BYTE      USBCON
      000000B5H   SFRSYM    DATA     BYTE      IP2
      000000FFH   SFRSYM    DATA     BYTE      RSTCFG
      000000F9H   SFRSYM    DATA     BYTE      LINICR
L251 LINKER/LOCATER V4.66.93.0                                                        07/09/2022  14:00:38  PAGE 26


      0000008EH   SFRSYM    DATA     BYTE      AUXR
      000000AFH   SFRSYM    DATA     BYTE      IE2
      00000088H   SFRSYM    DATA     BYTE      TCON
      00000098H   SFRSYM    DATA     BYTE      SCON
      000000F1H   SFRSYM    DATA     BYTE      CANICR
      00000087H   SFRSYM    DATA     BYTE      PCON
      000000BCH   SFRSYM    DATA     BYTE      ADC_CONTR
      000000E7H   SFRSYM    DATA     BYTE      CMPCR2
      000000E6H   SFRSYM    DATA     BYTE      CMPCR1
      000000B8H   SFRSYM    DATA     BYTE      IP
      0000008FH   SFRSYM    DATA     BYTE      INTCLKO
      000000EEH   SFRSYM    DATA     BYTE      IP3H
      000000B6H   SFRSYM    DATA     BYTE      IP2H
      000000A8H   SFRSYM    DATA     BYTE      IE
      000000BBH   SFRSYM    DATA     BYTE      P_SW3
      000000BAH   SFRSYM    DATA     BYTE      P_SW2
      000000A2H   SFRSYM    DATA     BYTE      P_SW1
      000000CEH   SFRSYM    DATA     BYTE      SPCTL
      000000F8H   SFRSYM    DATA     BYTE      P7
      000000E8H   SFRSYM    DATA     BYTE      P6
      000000C8H   SFRSYM    DATA     BYTE      P5
      000000C0H   SFRSYM    DATA     BYTE      P4
      000000B0H   SFRSYM    DATA     BYTE      P3
      000000A0H   SFRSYM    DATA     BYTE      P2
      00000090H   SFRSYM    DATA     BYTE      P1
      00000080H   SFRSYM    DATA     BYTE      P0

      00FF181CH   BLOCK     CODE     ---       LVL=0
      00FF181CH   LINE      CODE     ---       #7
      00FF181CH   LINE      CODE     ---       #9
      00FF1835H   LINE      CODE     ---       #11
      00FF1835H   LINE      CODE     ---       #12
      00FF1838H   LINE      CODE     ---       #13
      00FF1838H   LINE      CODE     ---       #14
      00FF1838H   LINE      CODE     ---       #15
      00FF183BH   LINE      CODE     ---       #16
      00FF183BH   LINE      CODE     ---       #17
      00FF183BH   LINE      CODE     ---       #18
      00FF183EH   LINE      CODE     ---       #19
      00FF183EH   LINE      CODE     ---       #20
      00FF183EH   LINE      CODE     ---       #21
      00FF1841H   LINE      CODE     ---       #22
      00FF1841H   LINE      CODE     ---       #23
      00FF1841H   LINE      CODE     ---       #24
      00FF1844H   LINE      CODE     ---       #25
      00FF1844H   LINE      CODE     ---       #26
      00FF1844H   LINE      CODE     ---       #27
      00FF1847H   LINE      CODE     ---       #28
      00FF1847H   LINE      CODE     ---       #29
      00FF1847H   LINE      CODE     ---       #30
      00FF184AH   LINE      CODE     ---       #31
      00FF184AH   LINE      CODE     ---       #32
      00FF184AH   LINE      CODE     ---       #33
      ---         BLOCKEND  ---      ---       LVL=0

      00FF1877H   BLOCK     CODE     ---       LVL=0
      00FF1877H   LINE      CODE     ---       #35
      00FF1877H   LINE      CODE     ---       #37
      00FF1887H   LINE      CODE     ---       #40
      00FF188AH   LINE      CODE     ---       #41
      00FF188AH   LINE      CODE     ---       #42
      00FF188AH   LINE      CODE     ---       #44
      00FF1896H   LINE      CODE     ---       #45
      00FF189EH   LINE      CODE     ---       #47
      00FF18A1H   LINE      CODE     ---       #48
L251 LINKER/LOCATER V4.66.93.0                                                        07/09/2022  14:00:38  PAGE 27


      ---         BLOCKEND  ---      ---       LVL=0

      00FF18A1H   BLOCK     CODE     ---       LVL=0
      00FF18A1H   LINE      CODE     ---       #50
      00FF18A1H   LINE      CODE     ---       #52
      00FF18B1H   LINE      CODE     ---       #55
      00FF18B4H   LINE      CODE     ---       #56
      00FF18B4H   LINE      CODE     ---       #57
      00FF18B4H   LINE      CODE     ---       #59
      00FF18C0H   LINE      CODE     ---       #60
      00FF18C8H   LINE      CODE     ---       #62
      00FF18CBH   LINE      CODE     ---       #63
      ---         BLOCKEND  ---      ---       LVL=0

      00FF1945H   BLOCK     CODE     ---       LVL=0
      00FF1945H   LINE      CODE     ---       #65
      00FF1945H   LINE      CODE     ---       #67
      00FF1955H   LINE      CODE     ---       #70
      00FF1958H   LINE      CODE     ---       #71
      00FF1958H   LINE      CODE     ---       #72
      00FF1958H   LINE      CODE     ---       #74
      00FF1960H   LINE      CODE     ---       #75
      00FF1968H   LINE      CODE     ---       #77
      00FF196BH   LINE      CODE     ---       #78
      ---         BLOCKEND  ---      ---       LVL=0

      00FF1A12H   BLOCK     CODE     ---       LVL=0
      00FF1A12H   LINE      CODE     ---       #80
      00FF1A12H   LINE      CODE     ---       #82
      00FF1A22H   LINE      CODE     ---       #85
      00FF1A25H   LINE      CODE     ---       #86
      00FF1A25H   LINE      CODE     ---       #87
      00FF1A25H   LINE      CODE     ---       #89
      00FF1A2DH   LINE      CODE     ---       #91
      00FF1A30H   LINE      CODE     ---       #92
      ---         BLOCKEND  ---      ---       LVL=0

      00FF0003H   BLOCK     CODE     ---       LVL=0
      00FF0003H   LINE      CODE     ---       #94
      00FF0003H   LINE      CODE     ---       #96
      ---         BLOCKEND  ---      ---       LVL=0

      00FF0006H   BLOCK     CODE     ---       LVL=0
      00FF0006H   LINE      CODE     ---       #99
      00FF0006H   LINE      CODE     ---       #101
      ---         BLOCKEND  ---      ---       LVL=0

      ---         MODULE    ---      ---       usb_req_std
      00FF13E9H   PUBLIC    CODE     ---       usb_get_interface
      00FF0B7DH   PUBLIC    CODE     ---       usb_clear_feature
      00FF191DH   PUBLIC    CODE     ---       usb_set_interface
      00FF0AA1H   PUBLIC    CODE     ---       usb_get_descriptor
      00FF008EH   PUBLIC    CODE     ---       usb_set_descriptor
      00FF1043H   PUBLIC    CODE     ---       usb_req_std
      00FF1DBCH   PUBLIC    CODE     ---       usb_synch_frame
      00FF12D6H   PUBLIC    CODE     ---       usb_set_address
      00FF0C18H   PUBLIC    CODE     ---       usb_set_feature
      00FF114CH   PUBLIC    CODE     ---       usb_get_configuration
      00FF0DCBH   PUBLIC    CODE     ---       usb_set_configuration
      00FF09A2H   PUBLIC    CODE     ---       usb_get_status
      000000D0H   SFRSYM    DATA     BYTE      PSW
      0000009DH   SFRSYM    DATA     BYTE      IRCBAND
      00000097H   SFRSYM    DATA     BYTE      AUXR2
      000000EFH   SFRSYM    DATA     BYTE      AUXINTIF
      000000FDH   SFRSYM    DATA     BYTE      S4CON
L251 LINKER/LOCATER V4.66.93.0                                                        07/09/2022  14:00:38  PAGE 28


      000000ACH   SFRSYM    DATA     BYTE      S3CON
      0000009AH   SFRSYM    DATA     BYTE      S2CON
      000000B7H   SFRSYM    DATA     BYTE      IPH
      000000CDH   SFRSYM    DATA     BYTE      SPSTAT
      000000DDH   SFRSYM    DATA     BYTE      T4T3M
      000000C1H   SFRSYM    DATA     BYTE      WDT_CONTR
      000000DFH   SFRSYM    DATA     BYTE      IP3
      000000F4H   SFRSYM    DATA     BYTE      USBCON
      000000B5H   SFRSYM    DATA     BYTE      IP2
      000000FFH   SFRSYM    DATA     BYTE      RSTCFG
      000000F9H   SFRSYM    DATA     BYTE      LINICR
      0000008EH   SFRSYM    DATA     BYTE      AUXR
      000000AFH   SFRSYM    DATA     BYTE      IE2
      00000088H   SFRSYM    DATA     BYTE      TCON
      00000098H   SFRSYM    DATA     BYTE      SCON
      000000F1H   SFRSYM    DATA     BYTE      CANICR
      00000087H   SFRSYM    DATA     BYTE      PCON
      000000BCH   SFRSYM    DATA     BYTE      ADC_CONTR
      000000E7H   SFRSYM    DATA     BYTE      CMPCR2
      000000E6H   SFRSYM    DATA     BYTE      CMPCR1
      000000B8H   SFRSYM    DATA     BYTE      IP
      0000008FH   SFRSYM    DATA     BYTE      INTCLKO
      000000EEH   SFRSYM    DATA     BYTE      IP3H
      000000B6H   SFRSYM    DATA     BYTE      IP2H
      000000A8H   SFRSYM    DATA     BYTE      IE
      000000BBH   SFRSYM    DATA     BYTE      P_SW3
      000000BAH   SFRSYM    DATA     BYTE      P_SW2
      000000A2H   SFRSYM    DATA     BYTE      P_SW1
      000000CEH   SFRSYM    DATA     BYTE      SPCTL
      000000F8H   SFRSYM    DATA     BYTE      P7
      000000E8H   SFRSYM    DATA     BYTE      P6
      000000C8H   SFRSYM    DATA     BYTE      P5
      000000C0H   SFRSYM    DATA     BYTE      P4
      000000B0H   SFRSYM    DATA     BYTE      P3
      000000A0H   SFRSYM    DATA     BYTE      P2
      00000090H   SFRSYM    DATA     BYTE      P1
      00000080H   SFRSYM    DATA     BYTE      P0

      00FF1043H   BLOCK     CODE     ---       LVL=0
      00FF1043H   LINE      CODE     ---       #7
      00FF1043H   LINE      CODE     ---       #9
      00FF107BH   LINE      CODE     ---       #11
      00FF107BH   LINE      CODE     ---       #12
      00FF107EH   LINE      CODE     ---       #13
      00FF107EH   LINE      CODE     ---       #14
      00FF107EH   LINE      CODE     ---       #15
      00FF1081H   LINE      CODE     ---       #16
      00FF1081H   LINE      CODE     ---       #17
      00FF1081H   LINE      CODE     ---       #18
      00FF1084H   LINE      CODE     ---       #19
      00FF1084H   LINE      CODE     ---       #20
      00FF1084H   LINE      CODE     ---       #21
      00FF1087H   LINE      CODE     ---       #22
      00FF1087H   LINE      CODE     ---       #23
      00FF1087H   LINE      CODE     ---       #24
      00FF108AH   LINE      CODE     ---       #25
      00FF108AH   LINE      CODE     ---       #26
      00FF108AH   LINE      CODE     ---       #27
      00FF108DH   LINE      CODE     ---       #28
      00FF108DH   LINE      CODE     ---       #29
      00FF108DH   LINE      CODE     ---       #30
      00FF1090H   LINE      CODE     ---       #31
      00FF1090H   LINE      CODE     ---       #32
      00FF1090H   LINE      CODE     ---       #33
      00FF1093H   LINE      CODE     ---       #34
L251 LINKER/LOCATER V4.66.93.0                                                        07/09/2022  14:00:38  PAGE 29


      00FF1093H   LINE      CODE     ---       #35
      00FF1093H   LINE      CODE     ---       #36
      00FF1096H   LINE      CODE     ---       #37
      00FF1096H   LINE      CODE     ---       #38
      00FF1096H   LINE      CODE     ---       #39
      00FF1099H   LINE      CODE     ---       #40
      00FF1099H   LINE      CODE     ---       #41
      00FF1099H   LINE      CODE     ---       #42
      00FF109CH   LINE      CODE     ---       #43
      00FF109CH   LINE      CODE     ---       #44
      00FF109CH   LINE      CODE     ---       #45
      00FF109FH   LINE      CODE     ---       #46
      00FF109FH   LINE      CODE     ---       #47
      00FF109FH   LINE      CODE     ---       #48
      ---         BLOCKEND  ---      ---       LVL=0

      00FF09A2H   BLOCK     CODE     ---       LVL=0
      00FF09A4H   BLOCK     CODE     NEAR LAB  LVL=1
      R10         REGSYM    ---      BYTE      ep
      ---         BLOCKEND  ---      ---       LVL=1
      00FF09A2H   LINE      CODE     ---       #50
      00FF09A4H   LINE      CODE     ---       #51
      00FF09A4H   LINE      CODE     ---       #54
      00FF09C5H   LINE      CODE     ---       #59
      00FF09C5H   LINE      CODE     ---       #60
      00FF09C8H   LINE      CODE     ---       #61
      00FF09C8H   LINE      CODE     ---       #63
      00FF09D9H   LINE      CODE     ---       #65
      00FF09D9H   LINE      CODE     ---       #66
      00FF09E5H   LINE      CODE     ---       #69
      00FF09E5H   LINE      CODE     ---       #70
      00FF09E8H   LINE      CODE     ---       #71
      00FF09E8H   LINE      CODE     ---       #74
      00FF09E8H   LINE      CODE     ---       #75
      00FF09E8H   LINE      CODE     ---       #76
      00FF09E8H   LINE      CODE     ---       #77
      00FF09EAH   LINE      CODE     ---       #78
      00FF09EAH   LINE      CODE     ---       #79
      00FF0A00H   LINE      CODE     ---       #83
      00FF0A00H   LINE      CODE     ---       #84
      00FF0A03H   LINE      CODE     ---       #85
      00FF0A03H   LINE      CODE     ---       #88
      00FF0A0BH   LINE      CODE     ---       #89
      00FF0A0BH   LINE      CODE     ---       #90
      00FF0A0BH   LINE      CODE     ---       #91
      00FF0A0DH   LINE      CODE     ---       #92
      00FF0A0DH   LINE      CODE     ---       #93
      00FF0A1AH   LINE      CODE     ---       #96
      00FF0A1AH   LINE      CODE     ---       #97
      00FF0A1CH   LINE      CODE     ---       #98
      00FF0A1CH   LINE      CODE     ---       #101
      00FF0A25H   LINE      CODE     ---       #102
      00FF0A2EH   LINE      CODE     ---       #105
      00FF0A2EH   LINE      CODE     ---       #120
      00FF0A47H   LINE      CODE     ---       #122
      00FF0A4FH   LINE      CODE     ---       #123
      00FF0A4FH   LINE      CODE     ---       #124
      00FF0A51H   LINE      CODE     ---       #127
      00FF0A59H   LINE      CODE     ---       #128
      00FF0A59H   LINE      CODE     ---       #129
      00FF0A59H   LINE      CODE     ---       #130
      00FF0A5BH   LINE      CODE     ---       #133
      00FF0A5BH   LINE      CODE     ---       #148
      00FF0A74H   LINE      CODE     ---       #150
      00FF0A7CH   LINE      CODE     ---       #151
L251 LINKER/LOCATER V4.66.93.0                                                        07/09/2022  14:00:38  PAGE 30


      00FF0A7CH   LINE      CODE     ---       #152
      00FF0A7EH   LINE      CODE     ---       #155
      00FF0A8AH   LINE      CODE     ---       #156
      00FF0A92H   LINE      CODE     ---       #157
      00FF0A92H   LINE      CODE     ---       #158
      00FF0A94H   LINE      CODE     ---       #160
      00FF0A94H   LINE      CODE     ---       #161
      00FF0A94H   LINE      CODE     ---       #162
      00FF0A96H   LINE      CODE     ---       #163
      00FF0A96H   LINE      CODE     ---       #164
      00FF0A96H   LINE      CODE     ---       #165
      00FF0A96H   LINE      CODE     ---       #166
      00FF0A96H   LINE      CODE     ---       #167
      00FF0A99H   LINE      CODE     ---       #168
      00FF0A9BH   LINE      CODE     ---       #169
      00FF0A9BH   LINE      CODE     ---       #171
      00FF0A9EH   LINE      CODE     ---       #172
      ---         BLOCKEND  ---      ---       LVL=0

      00FF0B7DH   BLOCK     CODE     ---       LVL=0
      R7          REGSYM    ---      BYTE      ep
      00FF0B7DH   LINE      CODE     ---       #174
      00FF0B7DH   LINE      CODE     ---       #175
      00FF0B7DH   LINE      CODE     ---       #178
      00FF0BA8H   LINE      CODE     ---       #185
      00FF0BA8H   LINE      CODE     ---       #186
      00FF0BAAH   LINE      CODE     ---       #187
      00FF0BAAH   LINE      CODE     ---       #189
      00FF0BB3H   LINE      CODE     ---       #190
      00FF0BBCH   LINE      CODE     ---       #193
      00FF0BBCH   LINE      CODE     ---       #208
      00FF0BD6H   LINE      CODE     ---       #209
      00FF0BDBH   LINE      CODE     ---       #210
      00FF0BE0H   LINE      CODE     ---       #211
      00FF0BE0H   LINE      CODE     ---       #212
      00FF0BE2H   LINE      CODE     ---       #215
      00FF0BE2H   LINE      CODE     ---       #230
      00FF0BFCH   LINE      CODE     ---       #231
      00FF0C01H   LINE      CODE     ---       #232
      00FF0C09H   LINE      CODE     ---       #233
      00FF0C10H   LINE      CODE     ---       #234
      00FF0C12H   LINE      CODE     ---       #236
      00FF0C12H   LINE      CODE     ---       #237
      00FF0C15H   LINE      CODE     ---       #238
      00FF0C15H   LINE      CODE     ---       #239
      00FF0C15H   LINE      CODE     ---       #241
      00FF0C18H   LINE      CODE     ---       #242
      ---         BLOCKEND  ---      ---       LVL=0

      00FF0C18H   BLOCK     CODE     ---       LVL=0
      R7          REGSYM    ---      BYTE      ep
      00FF0C18H   LINE      CODE     ---       #244
      00FF0C18H   LINE      CODE     ---       #245
      00FF0C18H   LINE      CODE     ---       #248
      00FF0C43H   LINE      CODE     ---       #255
      00FF0C43H   LINE      CODE     ---       #256
      00FF0C45H   LINE      CODE     ---       #257
      00FF0C45H   LINE      CODE     ---       #259
      00FF0C4EH   LINE      CODE     ---       #260
      00FF0C57H   LINE      CODE     ---       #263
      00FF0C57H   LINE      CODE     ---       #278
      00FF0C6EH   LINE      CODE     ---       #279
      00FF0C73H   LINE      CODE     ---       #280
      00FF0C78H   LINE      CODE     ---       #281
      00FF0C78H   LINE      CODE     ---       #282
L251 LINKER/LOCATER V4.66.93.0                                                        07/09/2022  14:00:38  PAGE 31


      00FF0C7AH   LINE      CODE     ---       #285
      00FF0C7AH   LINE      CODE     ---       #300
      00FF0C91H   LINE      CODE     ---       #301
      00FF0C96H   LINE      CODE     ---       #302
      00FF0C9EH   LINE      CODE     ---       #303
      00FF0CA5H   LINE      CODE     ---       #304
      00FF0CA7H   LINE      CODE     ---       #306
      00FF0CA7H   LINE      CODE     ---       #307
      00FF0CAAH   LINE      CODE     ---       #308
      00FF0CAAH   LINE      CODE     ---       #309
      00FF0CAAH   LINE      CODE     ---       #311
      00FF0CADH   LINE      CODE     ---       #312
      ---         BLOCKEND  ---      ---       LVL=0

      00FF12D6H   BLOCK     CODE     ---       LVL=0
      00FF12D8H   BLOCK     CODE     NEAR LAB  LVL=1
      R15         REGSYM    ---      BYTE      addr
      ---         BLOCKEND  ---      ---       LVL=1
      00FF12D6H   LINE      CODE     ---       #314
      00FF12D8H   LINE      CODE     ---       #315
      00FF12D8H   LINE      CODE     ---       #318
      00FF1301H   LINE      CODE     ---       #325
      00FF1304H   LINE      CODE     ---       #326
      00FF1306H   LINE      CODE     ---       #327
      00FF1306H   LINE      CODE     ---       #329
      00FF1306H   LINE      CODE     ---       #330
      00FF130CH   LINE      CODE     ---       #331
      00FF1310H   LINE      CODE     ---       #333
      00FF1312H   LINE      CODE     ---       #334
      00FF1314H   LINE      CODE     ---       #337
      00FF131AH   LINE      CODE     ---       #338
      00FF131AH   LINE      CODE     ---       #340
      00FF131DH   LINE      CODE     ---       #341
      ---         BLOCKEND  ---      ---       LVL=0

      00FF0AA1H   BLOCK     CODE     ---       LVL=0
      00FF0AA1H   LINE      CODE     ---       #343
      00FF0AA1H   LINE      CODE     ---       #345
      00FF0AACH   LINE      CODE     ---       #347
      00FF0AACH   LINE      CODE     ---       #348
      00FF0AAFH   LINE      CODE     ---       #349
      00FF0AAFH   LINE      CODE     ---       #351
      00FF0AC8H   LINE      CODE     ---       #353
      00FF0AC8H   LINE      CODE     ---       #354
      00FF0AD2H   LINE      CODE     ---       #356
      00FF0AD2H   LINE      CODE     ---       #357
      00FF0AD2H   LINE      CODE     ---       #358
      00FF0AD4H   LINE      CODE     ---       #361
      00FF0AE0H   LINE      CODE     ---       #362
      00FF0AE4H   LINE      CODE     ---       #363
      00FF0AE4H   LINE      CODE     ---       #364
      00FF0AE6H   LINE      CODE     ---       #365
      00FF0AE6H   LINE      CODE     ---       #366
      00FF0AF2H   LINE      CODE     ---       #367
      00FF0AF6H   LINE      CODE     ---       #368
      00FF0AF8H   LINE      CODE     ---       #369
      00FF0AF8H   LINE      CODE     ---       #370
      00FF0B06H   LINE      CODE     ---       #372
      00FF0B06H   LINE      CODE     ---       #373
      00FF0B12H   LINE      CODE     ---       #374
      00FF0B16H   LINE      CODE     ---       #375
      00FF0B18H   LINE      CODE     ---       #376
      00FF0B18H   LINE      CODE     ---       #377
      00FF0B24H   LINE      CODE     ---       #378
      00FF0B28H   LINE      CODE     ---       #379
L251 LINKER/LOCATER V4.66.93.0                                                        07/09/2022  14:00:38  PAGE 32


      00FF0B2AH   LINE      CODE     ---       #380
      00FF0B2AH   LINE      CODE     ---       #381
      00FF0B34H   LINE      CODE     ---       #383
      00FF0B38H   LINE      CODE     ---       #384
      00FF0B3DH   LINE      CODE     ---       #385
      00FF0B3FH   LINE      CODE     ---       #388
      00FF0B4BH   LINE      CODE     ---       #389
      00FF0B4FH   LINE      CODE     ---       #390
      00FF0B4FH   LINE      CODE     ---       #391
      00FF0B51H   LINE      CODE     ---       #392
      00FF0B51H   LINE      CODE     ---       #393
      00FF0B51H   LINE      CODE     ---       #394
      00FF0B53H   LINE      CODE     ---       #395
      00FF0B53H   LINE      CODE     ---       #396
      00FF0B53H   LINE      CODE     ---       #397
      00FF0B53H   LINE      CODE     ---       #398
      00FF0B5FH   LINE      CODE     ---       #399
      00FF0B67H   LINE      CODE     ---       #400
      00FF0B69H   LINE      CODE     ---       #401
      00FF0B69H   LINE      CODE     ---       #402
      00FF0B6CH   LINE      CODE     ---       #403
      00FF0B6CH   LINE      CODE     ---       #404
      00FF0B6CH   LINE      CODE     ---       #406
      00FF0B76H   LINE      CODE     ---       #408
      00FF0B7AH   LINE      CODE     ---       #409
      00FF0B7AH   LINE      CODE     ---       #411
      00FF0B7DH   LINE      CODE     ---       #412
      ---         BLOCKEND  ---      ---       LVL=0

      00FF008EH   BLOCK     CODE     ---       LVL=0
      00FF008EH   LINE      CODE     ---       #414
      00FF008EH   LINE      CODE     ---       #416
      ---         BLOCKEND  ---      ---       LVL=0

      00FF114CH   BLOCK     CODE     ---       LVL=0
      00FF114CH   LINE      CODE     ---       #419
      00FF114CH   LINE      CODE     ---       #421
      00FF1175H   LINE      CODE     ---       #428
      00FF1178H   LINE      CODE     ---       #429
      00FF1178H   LINE      CODE     ---       #430
      00FF1178H   LINE      CODE     ---       #432
      00FF117FH   LINE      CODE     ---       #434
      00FF1187H   LINE      CODE     ---       #435
      00FF1187H   LINE      CODE     ---       #436
      00FF1189H   LINE      CODE     ---       #439
      00FF1195H   LINE      CODE     ---       #440
      00FF119DH   LINE      CODE     ---       #441
      00FF119DH   LINE      CODE     ---       #443
      00FF11A0H   LINE      CODE     ---       #444
      ---         BLOCKEND  ---      ---       LVL=0

      00FF0DCBH   BLOCK     CODE     ---       LVL=0
      00FF0DCBH   LINE      CODE     ---       #446
      00FF0DCBH   LINE      CODE     ---       #448
      00FF0DF4H   LINE      CODE     ---       #455
      00FF0DF7H   LINE      CODE     ---       #456
      00FF0DF7H   LINE      CODE     ---       #457
      00FF0DF7H   LINE      CODE     ---       #459
      00FF0DFEH   LINE      CODE     ---       #461
      00FF0E04H   LINE      CODE     ---       #462
      00FF0E09H   LINE      CODE     ---       #463
      00FF0E0DH   LINE      CODE     ---       #465
      00FF0E15H   LINE      CODE     ---       #466
      00FF0E1DH   LINE      CODE     ---       #467
      00FF0E25H   LINE      CODE     ---       #490
L251 LINKER/LOCATER V4.66.93.0                                                        07/09/2022  14:00:38  PAGE 33


      00FF0E2DH   LINE      CODE     ---       #491
      00FF0E34H   LINE      CODE     ---       #492
      00FF0E3CH   LINE      CODE     ---       #514
      00FF0E43H   LINE      CODE     ---       #515
      00FF0E45H   LINE      CODE     ---       #518
      00FF0E4BH   LINE      CODE     ---       #519
      00FF0E51H   LINE      CODE     ---       #520
      00FF0E55H   LINE      CODE     ---       #521
      00FF0E55H   LINE      CODE     ---       #523
      00FF0E58H   LINE      CODE     ---       #524
      ---         BLOCKEND  ---      ---       LVL=0

      00FF13E9H   BLOCK     CODE     ---       LVL=0
      00FF13E9H   LINE      CODE     ---       #526
      00FF13E9H   LINE      CODE     ---       #528
      00FF140DH   LINE      CODE     ---       #534
      00FF1410H   LINE      CODE     ---       #535
      00FF1410H   LINE      CODE     ---       #536
      00FF1410H   LINE      CODE     ---       #538
      00FF141CH   LINE      CODE     ---       #539
      00FF1424H   LINE      CODE     ---       #541
      00FF1427H   LINE      CODE     ---       #542
      ---         BLOCKEND  ---      ---       LVL=0

      00FF191DH   BLOCK     CODE     ---       LVL=0
      00FF191DH   LINE      CODE     ---       #544
      00FF191DH   LINE      CODE     ---       #546
      00FF193FH   LINE      CODE     ---       #552
      00FF1942H   LINE      CODE     ---       #553
      00FF1942H   LINE      CODE     ---       #554
      00FF1942H   LINE      CODE     ---       #556
      00FF1945H   LINE      CODE     ---       #557
      ---         BLOCKEND  ---      ---       LVL=0

      00FF1DBCH   BLOCK     CODE     ---       LVL=0
      00FF1DBCH   LINE      CODE     ---       #559
      00FF1DBCH   LINE      CODE     ---       #561
      ---         BLOCKEND  ---      ---       LVL=0

      ---         MODULE    ---      ---       usb_req_vendor
      00FF1DBFH   PUBLIC    CODE     ---       usb_req_vendor
      000000D0H   SFRSYM    DATA     BYTE      PSW
      0000009DH   SFRSYM    DATA     BYTE      IRCBAND
      00000097H   SFRSYM    DATA     BYTE      AUXR2
      000000EFH   SFRSYM    DATA     BYTE      AUXINTIF
      000000FDH   SFRSYM    DATA     BYTE      S4CON
      000000ACH   SFRSYM    DATA     BYTE      S3CON
      0000009AH   SFRSYM    DATA     BYTE      S2CON
      000000B7H   SFRSYM    DATA     BYTE      IPH
      000000CDH   SFRSYM    DATA     BYTE      SPSTAT
      000000DDH   SFRSYM    DATA     BYTE      T4T3M
      000000C1H   SFRSYM    DATA     BYTE      WDT_CONTR
      000000DFH   SFRSYM    DATA     BYTE      IP3
      000000F4H   SFRSYM    DATA     BYTE      USBCON
      000000B5H   SFRSYM    DATA     BYTE      IP2
      000000FFH   SFRSYM    DATA     BYTE      RSTCFG
      000000F9H   SFRSYM    DATA     BYTE      LINICR
      0000008EH   SFRSYM    DATA     BYTE      AUXR
      000000AFH   SFRSYM    DATA     BYTE      IE2
      00000088H   SFRSYM    DATA     BYTE      TCON
      00000098H   SFRSYM    DATA     BYTE      SCON
      000000F1H   SFRSYM    DATA     BYTE      CANICR
      00000087H   SFRSYM    DATA     BYTE      PCON
      000000BCH   SFRSYM    DATA     BYTE      ADC_CONTR
      000000E7H   SFRSYM    DATA     BYTE      CMPCR2
L251 LINKER/LOCATER V4.66.93.0                                                        07/09/2022  14:00:38  PAGE 34


      000000E6H   SFRSYM    DATA     BYTE      CMPCR1
      000000B8H   SFRSYM    DATA     BYTE      IP
      0000008FH   SFRSYM    DATA     BYTE      INTCLKO
      000000EEH   SFRSYM    DATA     BYTE      IP3H
      000000B6H   SFRSYM    DATA     BYTE      IP2H
      000000A8H   SFRSYM    DATA     BYTE      IE
      000000BBH   SFRSYM    DATA     BYTE      P_SW3
      000000BAH   SFRSYM    DATA     BYTE      P_SW2
      000000A2H   SFRSYM    DATA     BYTE      P_SW1
      000000CEH   SFRSYM    DATA     BYTE      SPCTL
      000000F8H   SFRSYM    DATA     BYTE      P7
      000000E8H   SFRSYM    DATA     BYTE      P6
      000000C8H   SFRSYM    DATA     BYTE      P5
      000000C0H   SFRSYM    DATA     BYTE      P4
      000000B0H   SFRSYM    DATA     BYTE      P3
      000000A0H   SFRSYM    DATA     BYTE      P2
      00000090H   SFRSYM    DATA     BYTE      P1
      00000080H   SFRSYM    DATA     BYTE      P0

      00FF1DBFH   BLOCK     CODE     ---       LVL=0
      00FF1DBFH   LINE      CODE     ---       #5
      00FF1DBFH   LINE      CODE     ---       #7
      ---         BLOCKEND  ---      ---       LVL=0

      ---         MODULE    ---      ---       util
      00FF1D39H   PUBLIC    CODE     ---       LCD12864_DisplayClear
      00FF16B4H   PUBLIC    CODE     ---       OLED12864_ScrollRight
      00FF1C03H   PUBLIC    CODE     ---       OLED12864_DisplayOff
      00FF1724H   PUBLIC    CODE     ---       OLED12864_ScrollLeft
      00FF19B5H   PUBLIC    CODE     ---       OLED12864_SetAddressMode
      00FF19D4H   PUBLIC    CODE     ---       OLED12864_SetContrast
      00FF1C1AH   PUBLIC    CODE     ---       LCD12864_AutoWrapOff
      00FF1427H   PUBLIC    CODE     ---       OLED12864_ShowPicture
      00FF1AFBH   PUBLIC    CODE     ---       OLED12864_ScrollStart
      00FF178EH   PUBLIC    CODE     ---       SEG7_ShowFloat
      00FF1365H   PUBLIC    CODE     ---       SEG7_ShowString
      00FF175BH   PUBLIC    CODE     ---       SEG7_ShowCode
      00FF1465H   PUBLIC    CODE     ---       LED40_SendData
      00FF1B13H   PUBLIC    CODE     ---       OLED12864_DisplayOn
      00FF19F3H   PUBLIC    CODE     ---       LCD12864_ReverseLine
      00FF1C31H   PUBLIC    CODE     ---       OLED12864_ScrollStop
      00FF14A3H   PUBLIC    CODE     ---       LED64_SendData
      00FF17BFH   PUBLIC    CODE     ---       printf_hid
      00FF155AH   PUBLIC    CODE     ---       SEG7_ShowLong
      00FF1B2BH   PUBLIC    CODE     ---       LCD12864_ScrollRight
      00FF1B43H   PUBLIC    CODE     ---       LCD12864_AutoWrapOn
      00FF1C48H   PUBLIC    CODE     ---       LCD12864_DisplayOff
      00FF0096H   PUBLIC    CODE     ---       reverse2
      00FF1C5FH   PUBLIC    CODE     ---       LCD12864_ScrollLeft
      00FF1C76H   PUBLIC    CODE     ---       OLED12864_HorizontalMirror
      00FF11F3H   PUBLIC    CODE     ---       LCD12864_ShowPicture
      00FF16ECH   PUBLIC    CODE     ---       OLED12864_ScrollUp
      00FF1C8DH   PUBLIC    CODE     ---       OLED12864_DisplayContent
      00FF1D4BH   PUBLIC    CODE     ---       OLED12864_DisplayReverse
      00FF1B5BH   PUBLIC    CODE     ---       OLED12864_VerticalMirror
      00FF1B73H   PUBLIC    CODE     ---       LCD12864_CursorReturnHome
      00FF1B8BH   PUBLIC    CODE     ---       OLED12864_DisplayEntire
      00FF1BA3H   PUBLIC    CODE     ---       LCD12864_DisplayOn
      00FF1BBBH   PUBLIC    CODE     ---       LCD12864_CursorMoveRight
      00FF1595H   PUBLIC    CODE     ---       LCD12864_ShowString
      00FF1CA4H   PUBLIC    CODE     ---       LCD12864_CursorOff
      00FF1BD3H   PUBLIC    CODE     ---       sleep_ms
      00FF1CBBH   PUBLIC    CODE     ---       LCD12864_CursorMoveLeft
      00FF1A30H   PUBLIC    CODE     ---       sleep_us
      00FF196BH   PUBLIC    CODE     ---       LCD12864_ScrollUp
L251 LINKER/LOCATER V4.66.93.0                                                        07/09/2022  14:00:38  PAGE 35


      00FF1BEBH   PUBLIC    CODE     ---       LCD12864_CursorOn
      00000049H   PUBLIC    EDATA    BYTE      ?SEG7_ShowString?BYTE
      00000075H   PUBLIC    EDATA    BYTE      ?printf_hid?BYTE
      000000D0H   SFRSYM    DATA     BYTE      PSW
      0000009DH   SFRSYM    DATA     BYTE      IRCBAND
      00000097H   SFRSYM    DATA     BYTE      AUXR2
      000000EFH   SFRSYM    DATA     BYTE      AUXINTIF
      000000FDH   SFRSYM    DATA     BYTE      S4CON
      000000ACH   SFRSYM    DATA     BYTE      S3CON
      0000009AH   SFRSYM    DATA     BYTE      S2CON
      000000B7H   SFRSYM    DATA     BYTE      IPH
      000000CDH   SFRSYM    DATA     BYTE      SPSTAT
      000000DDH   SFRSYM    DATA     BYTE      T4T3M
      000000C1H   SFRSYM    DATA     BYTE      WDT_CONTR
      000000DFH   SFRSYM    DATA     BYTE      IP3
      000000F4H   SFRSYM    DATA     BYTE      USBCON
      000000B5H   SFRSYM    DATA     BYTE      IP2
      000000FFH   SFRSYM    DATA     BYTE      RSTCFG
      000000F9H   SFRSYM    DATA     BYTE      LINICR
      0000008EH   SFRSYM    DATA     BYTE      AUXR
      000000AFH   SFRSYM    DATA     BYTE      IE2
      00000088H   SFRSYM    DATA     BYTE      TCON
      00000098H   SFRSYM    DATA     BYTE      SCON
      000000F1H   SFRSYM    DATA     BYTE      CANICR
      00000087H   SFRSYM    DATA     BYTE      PCON
      000000BCH   SFRSYM    DATA     BYTE      ADC_CONTR
      000000E7H   SFRSYM    DATA     BYTE      CMPCR2
      000000E6H   SFRSYM    DATA     BYTE      CMPCR1
      000000B8H   SFRSYM    DATA     BYTE      IP
      0000008FH   SFRSYM    DATA     BYTE      INTCLKO
      000000EEH   SFRSYM    DATA     BYTE      IP3H
      000000B6H   SFRSYM    DATA     BYTE      IP2H
      000000A8H   SFRSYM    DATA     BYTE      IE
      000000BBH   SFRSYM    DATA     BYTE      P_SW3
      000000BAH   SFRSYM    DATA     BYTE      P_SW2
      000000A2H   SFRSYM    DATA     BYTE      P_SW1
      000000CEH   SFRSYM    DATA     BYTE      SPCTL
      000000F8H   SFRSYM    DATA     BYTE      P7
      000000E8H   SFRSYM    DATA     BYTE      P6
      000000C8H   SFRSYM    DATA     BYTE      P5
      000000C0H   SFRSYM    DATA     BYTE      P4
      000000B0H   SFRSYM    DATA     BYTE      P3
      000000A0H   SFRSYM    DATA     BYTE      P2
      00000090H   SFRSYM    DATA     BYTE      P1
      00000080H   SFRSYM    DATA     BYTE      P0
      00FF1A80H   SYMBOL    CODE     ---       OLED12864_SetHeader
      00FF0CADH   SYMBOL    CODE     ---       OLED12864_SetBuffer
      00FF1A99H   SYMBOL    CODE     ---       LCD12864_SetHeader
      00FF0D3CH   SYMBOL    CODE     ---       LCD12864_SetBuffer
      00FF1AB2H   SYMBOL    CODE     ---       SEG7_SetHeader

      00FF0096H   BLOCK     CODE     ---       LVL=0
      0000009FH   SYMBOL    EDATA    WORD      w
      00FF009AH   BLOCK     CODE     NEAR LAB  LVL=1
      000000A1H   SYMBOL    EDATA    WORD      ret
      ---         BLOCKEND  ---      ---       LVL=1
      00FF0096H   LINE      CODE     ---       #17
      00FF009AH   LINE      CODE     ---       #18
      00FF009AH   LINE      CODE     ---       #21
      00FF00B0H   LINE      CODE     ---       #22
      00FF00C6H   LINE      CODE     ---       #24
      00FF00CAH   LINE      CODE     ---       #25
      ---         BLOCKEND  ---      ---       LVL=0

      00FF1A30H   BLOCK     CODE     ---       LVL=0
L251 LINKER/LOCATER V4.66.93.0                                                        07/09/2022  14:00:38  PAGE 36


      WR6         REGSYM    ---      WORD      n
      00FF1A30H   LINE      CODE     ---       #27
      00FF1A30H   LINE      CODE     ---       #29
      00FF1A32H   LINE      CODE     ---       #38
      00FF1A33H   LINE      CODE     ---       #39
      00FF1A34H   LINE      CODE     ---       #40
      00FF1A35H   LINE      CODE     ---       #41
      00FF1A36H   LINE      CODE     ---       #43
      00FF1A37H   LINE      CODE     ---       #44
      00FF1A38H   LINE      CODE     ---       #45
      00FF1A39H   LINE      CODE     ---       #46
      00FF1A3AH   LINE      CODE     ---       #47
      00FF1A3BH   LINE      CODE     ---       #49
      00FF1A3CH   LINE      CODE     ---       #50
      00FF1A3DH   LINE      CODE     ---       #51
      00FF1A3EH   LINE      CODE     ---       #52
      00FF1A3FH   LINE      CODE     ---       #53
      00FF1A40H   LINE      CODE     ---       #55
      00FF1A41H   LINE      CODE     ---       #56
      00FF1A42H   LINE      CODE     ---       #57
      00FF1A43H   LINE      CODE     ---       #58
      00FF1A44H   LINE      CODE     ---       #59
      00FF1A4CH   LINE      CODE     ---       #60
      ---         BLOCKEND  ---      ---       LVL=0

      00FF1BD3H   BLOCK     CODE     ---       LVL=0
      WR14        REGSYM    ---      WORD      n
      00FF1BD3H   LINE      CODE     ---       #62
      00FF1BD7H   LINE      CODE     ---       #64
      00FF1BE8H   LINE      CODE     ---       #66
      ---         BLOCKEND  ---      ---       LVL=0

      00FF1AB2H   BLOCK     CODE     ---       LVL=0
      00FF1AB2H   LINE      CODE     ---       #68
      00FF1AB2H   LINE      CODE     ---       #70
      00FF1AB8H   LINE      CODE     ---       #71
      00FF1ABEH   LINE      CODE     ---       #72
      00FF1AC4H   LINE      CODE     ---       #73
      00FF1ACAH   LINE      CODE     ---       #74
      ---         BLOCKEND  ---      ---       LVL=0

      00FF155AH   BLOCK     CODE     ---       LVL=0
      00000097H   SYMBOL    EDATA    LONG      n
      R15         REGSYM    ---      CHAR      radix
      00FF155AH   LINE      CODE     ---       #76
      00FF1562H   LINE      CODE     ---       #78
      00FF1565H   LINE      CODE     ---       #79
      00FF156BH   LINE      CODE     ---       #80
      00FF1571H   LINE      CODE     ---       #81
      00FF1577H   LINE      CODE     ---       #82
      00FF157CH   LINE      CODE     ---       #83
      00FF158FH   LINE      CODE     ---       #85
      00FF1592H   LINE      CODE     ---       #86
      ---         BLOCKEND  ---      ---       LVL=0

      00FF178EH   BLOCK     CODE     ---       LVL=0
      DR12        REGSYM    ---      FLOAT     f
      00FF178EH   LINE      CODE     ---       #88
      00FF1792H   LINE      CODE     ---       #90
      00FF1795H   LINE      CODE     ---       #91
      00FF179BH   LINE      CODE     ---       #92
      00FF17A1H   LINE      CODE     ---       #93
      00FF17A6H   LINE      CODE     ---       #94
      00FF17AAH   LINE      CODE     ---       #95
      00FF17B9H   LINE      CODE     ---       #97
L251 LINKER/LOCATER V4.66.93.0                                                        07/09/2022  14:00:38  PAGE 37


      00FF17BCH   LINE      CODE     ---       #98
      ---         BLOCKEND  ---      ---       LVL=0

      00FF175BH   BLOCK     CODE     ---       LVL=0
      REG=3       REGSYM    ---      ---       cod
      00FF175BH   LINE      CODE     ---       #100
      00FF175DH   LINE      CODE     ---       #102
      00FF1760H   LINE      CODE     ---       #103
      00FF1766H   LINE      CODE     ---       #104
      00FF176BH   LINE      CODE     ---       #105
      00FF176FH   LINE      CODE     ---       #106
      00FF1773H   LINE      CODE     ---       #107
      00FF1788H   LINE      CODE     ---       #109
      00FF178BH   LINE      CODE     ---       #110
      ---         BLOCKEND  ---      ---       LVL=0

      00FF1365H   BLOCK     CODE     ---       LVL=0
      00000049H   SYMBOL    EDATA    ---       fmt
      00FF136BH   BLOCK     CODE     NEAR LAB  LVL=1
      REG=1       REGSYM    ---      ---       va
      WR14        REGSYM    ---      INT       ret
      ---         BLOCKEND  ---      ---       LVL=1
      00FF1365H   LINE      CODE     ---       #112
      00FF136BH   LINE      CODE     ---       #113
      00FF136BH   LINE      CODE     ---       #117
      00FF136EH   LINE      CODE     ---       #118
      00FF1374H   LINE      CODE     ---       #119
      00FF1379H   LINE      CODE     ---       #120
      00FF137DH   LINE      CODE     ---       #121
      00FF1381H   LINE      CODE     ---       #123
      00FF1389H   LINE      CODE     ---       #124
      00FF13A2H   LINE      CODE     ---       #127
      00FF13A5H   LINE      CODE     ---       #129
      00FF13A7H   LINE      CODE     ---       #130
      ---         BLOCKEND  ---      ---       LVL=0

      00FF17BFH   BLOCK     CODE     ---       LVL=0
      00000075H   SYMBOL    EDATA    ---       fmt
      00FF17C5H   BLOCK     CODE     NEAR LAB  LVL=1
      REG=1       REGSYM    ---      ---       va
      WR14        REGSYM    ---      INT       ret
      ---         BLOCKEND  ---      ---       LVL=1
      00FF17BFH   LINE      CODE     ---       #132
      00FF17C5H   LINE      CODE     ---       #133
      00FF17C5H   LINE      CODE     ---       #137
      00FF17CDH   LINE      CODE     ---       #138
      00FF17E6H   LINE      CODE     ---       #141
      00FF17E9H   LINE      CODE     ---       #143
      00FF17EBH   LINE      CODE     ---       #144
      ---         BLOCKEND  ---      ---       LVL=0

      00FF1465H   BLOCK     CODE     ---       LVL=0
      REG=0       REGSYM    ---      ---       dat
      R10         REGSYM    ---      BYTE      size
      00FF1465H   LINE      CODE     ---       #146
      00FF1467H   LINE      CODE     ---       #148
      00FF146CH   LINE      CODE     ---       #149
      00FF146FH   LINE      CODE     ---       #151
      00FF1475H   LINE      CODE     ---       #152
      00FF147BH   LINE      CODE     ---       #153
      00FF1481H   LINE      CODE     ---       #154
      00FF1487H   LINE      CODE     ---       #155
      00FF148DH   LINE      CODE     ---       #156
      00FF14A0H   LINE      CODE     ---       #158
      ---         BLOCKEND  ---      ---       LVL=0
L251 LINKER/LOCATER V4.66.93.0                                                        07/09/2022  14:00:38  PAGE 38



      00FF14A3H   BLOCK     CODE     ---       LVL=0
      REG=0       REGSYM    ---      ---       dat
      R10         REGSYM    ---      BYTE      size
      00FF14A3H   LINE      CODE     ---       #161
      00FF14A5H   LINE      CODE     ---       #163
      00FF14AAH   LINE      CODE     ---       #164
      00FF14ADH   LINE      CODE     ---       #166
      00FF14B3H   LINE      CODE     ---       #167
      00FF14B9H   LINE      CODE     ---       #168
      00FF14BFH   LINE      CODE     ---       #169
      00FF14C5H   LINE      CODE     ---       #170
      00FF14CBH   LINE      CODE     ---       #171
      00FF14DEH   LINE      CODE     ---       #173
      ---         BLOCKEND  ---      ---       LVL=0

      00FF1A99H   BLOCK     CODE     ---       LVL=0
      00FF1A99H   LINE      CODE     ---       #176
      00FF1A99H   LINE      CODE     ---       #178
      00FF1A9FH   LINE      CODE     ---       #179
      00FF1AA5H   LINE      CODE     ---       #180
      00FF1AABH   LINE      CODE     ---       #181
      00FF1AB1H   LINE      CODE     ---       #182
      ---         BLOCKEND  ---      ---       LVL=0

      00FF1C48H   BLOCK     CODE     ---       LVL=0
      00FF1C48H   LINE      CODE     ---       #184
      00FF1C48H   LINE      CODE     ---       #186
      00FF1C4BH   LINE      CODE     ---       #187
      00FF1C51H   LINE      CODE     ---       #188
      00FF1C57H   LINE      CODE     ---       #189
      00FF1C5CH   LINE      CODE     ---       #191
      ---         BLOCKEND  ---      ---       LVL=0

      00FF1BA3H   BLOCK     CODE     ---       LVL=0
      00FF1BA3H   LINE      CODE     ---       #194
      00FF1BA3H   LINE      CODE     ---       #196
      00FF1BA6H   LINE      CODE     ---       #197
      00FF1BACH   LINE      CODE     ---       #198
      00FF1BB2H   LINE      CODE     ---       #199
      00FF1BB8H   LINE      CODE     ---       #201
      ---         BLOCKEND  ---      ---       LVL=0

      00FF1CA4H   BLOCK     CODE     ---       LVL=0
      00FF1CA4H   LINE      CODE     ---       #204
      00FF1CA4H   LINE      CODE     ---       #206
      00FF1CA7H   LINE      CODE     ---       #207
      00FF1CADH   LINE      CODE     ---       #208
      00FF1CB3H   LINE      CODE     ---       #209
      00FF1CB8H   LINE      CODE     ---       #211
      ---         BLOCKEND  ---      ---       LVL=0

      00FF1BEBH   BLOCK     CODE     ---       LVL=0
      00FF1BEBH   LINE      CODE     ---       #214
      00FF1BEBH   LINE      CODE     ---       #216
      00FF1BEEH   LINE      CODE     ---       #217
      00FF1BF4H   LINE      CODE     ---       #218
      00FF1BFAH   LINE      CODE     ---       #219
      00FF1C00H   LINE      CODE     ---       #221
      ---         BLOCKEND  ---      ---       LVL=0

      00FF1CBBH   BLOCK     CODE     ---       LVL=0
      00FF1CBBH   LINE      CODE     ---       #224
      00FF1CBBH   LINE      CODE     ---       #226
      00FF1CBEH   LINE      CODE     ---       #227
L251 LINKER/LOCATER V4.66.93.0                                                        07/09/2022  14:00:38  PAGE 39


      00FF1CC4H   LINE      CODE     ---       #228
      00FF1CCAH   LINE      CODE     ---       #229
      00FF1CCFH   LINE      CODE     ---       #231
      ---         BLOCKEND  ---      ---       LVL=0

      00FF1BBBH   BLOCK     CODE     ---       LVL=0
      00FF1BBBH   LINE      CODE     ---       #234
      00FF1BBBH   LINE      CODE     ---       #236
      00FF1BBEH   LINE      CODE     ---       #237
      00FF1BC4H   LINE      CODE     ---       #238
      00FF1BCAH   LINE      CODE     ---       #239
      00FF1BD0H   LINE      CODE     ---       #241
      ---         BLOCKEND  ---      ---       LVL=0

      00FF1B73H   BLOCK     CODE     ---       LVL=0
      00FF1B73H   LINE      CODE     ---       #244
      00FF1B73H   LINE      CODE     ---       #246
      00FF1B76H   LINE      CODE     ---       #247
      00FF1B7CH   LINE      CODE     ---       #248
      00FF1B82H   LINE      CODE     ---       #249
      00FF1B88H   LINE      CODE     ---       #251
      ---         BLOCKEND  ---      ---       LVL=0

      00FF1C5FH   BLOCK     CODE     ---       LVL=0
      00FF1C5FH   LINE      CODE     ---       #254
      00FF1C5FH   LINE      CODE     ---       #256
      00FF1C62H   LINE      CODE     ---       #257
      00FF1C68H   LINE      CODE     ---       #258
      00FF1C6EH   LINE      CODE     ---       #259
      00FF1C73H   LINE      CODE     ---       #261
      ---         BLOCKEND  ---      ---       LVL=0

      00FF1B2BH   BLOCK     CODE     ---       LVL=0
      00FF1B2BH   LINE      CODE     ---       #264
      00FF1B2BH   LINE      CODE     ---       #266
      00FF1B2EH   LINE      CODE     ---       #267
      00FF1B34H   LINE      CODE     ---       #268
      00FF1B3AH   LINE      CODE     ---       #269
      00FF1B40H   LINE      CODE     ---       #271
      ---         BLOCKEND  ---      ---       LVL=0

      00FF196BH   BLOCK     CODE     ---       LVL=0
      R15         REGSYM    ---      BYTE      line
      00FF196BH   LINE      CODE     ---       #274
      00FF196FH   LINE      CODE     ---       #276
      00FF1972H   LINE      CODE     ---       #277
      00FF1978H   LINE      CODE     ---       #278
      00FF197EH   LINE      CODE     ---       #279
      00FF1984H   LINE      CODE     ---       #280
      00FF198AH   LINE      CODE     ---       #282
      00FF198DH   LINE      CODE     ---       #283
      ---         BLOCKEND  ---      ---       LVL=0

      00FF1C1AH   BLOCK     CODE     ---       LVL=0
      00FF1C1AH   LINE      CODE     ---       #285
      00FF1C1AH   LINE      CODE     ---       #287
      00FF1C1DH   LINE      CODE     ---       #288
      00FF1C23H   LINE      CODE     ---       #289
      00FF1C29H   LINE      CODE     ---       #290
      00FF1C2EH   LINE      CODE     ---       #292
      ---         BLOCKEND  ---      ---       LVL=0

      00FF1B43H   BLOCK     CODE     ---       LVL=0
      00FF1B43H   LINE      CODE     ---       #295
      00FF1B43H   LINE      CODE     ---       #297
L251 LINKER/LOCATER V4.66.93.0                                                        07/09/2022  14:00:38  PAGE 40


      00FF1B46H   LINE      CODE     ---       #298
      00FF1B4CH   LINE      CODE     ---       #299
      00FF1B52H   LINE      CODE     ---       #300
      00FF1B58H   LINE      CODE     ---       #302
      ---         BLOCKEND  ---      ---       LVL=0

      00FF19F3H   BLOCK     CODE     ---       LVL=0
      R15         REGSYM    ---      BYTE      line
      00FF19F3H   LINE      CODE     ---       #305
      00FF19F7H   LINE      CODE     ---       #307
      00FF19FAH   LINE      CODE     ---       #308
      00FF1A00H   LINE      CODE     ---       #309
      00FF1A06H   LINE      CODE     ---       #310
      00FF1A0CH   LINE      CODE     ---       #312
      00FF1A0FH   LINE      CODE     ---       #313
      ---         BLOCKEND  ---      ---       LVL=0

      00FF1D39H   BLOCK     CODE     ---       LVL=0
      00FF1D39H   LINE      CODE     ---       #315
      00FF1D39H   LINE      CODE     ---       #317
      00FF1D3CH   LINE      CODE     ---       #318
      00FF1D42H   LINE      CODE     ---       #319
      00FF1D48H   LINE      CODE     ---       #321
      ---         BLOCKEND  ---      ---       LVL=0

      00FF0D3CH   BLOCK     CODE     ---       LVL=0
      REG=3       REGSYM    ---      ---       dat
      0000001AH   SYMBOL    EDATA    WORD      size
      00FF0D44H   BLOCK     CODE     NEAR LAB  LVL=1
      0000001CH   SYMBOL    EDATA    BYTE      cnt
      0000001DH   SYMBOL    EDATA    WORD      addr
      ---         BLOCKEND  ---      ---       LVL=1
      00FF0D3CH   LINE      CODE     ---       #324
      00FF0D44H   LINE      CODE     ---       #325
      00FF0D44H   LINE      CODE     ---       #329
      00FF0D4AH   LINE      CODE     ---       #330
      00FF0D4CH   LINE      CODE     ---       #332
      00FF0D52H   LINE      CODE     ---       #333
      00FF0D5CH   LINE      CODE     ---       #334
      00FF0D60H   LINE      CODE     ---       #336
      00FF0D63H   LINE      CODE     ---       #337
      00FF0D71H   LINE      CODE     ---       #338
      00FF0D77H   LINE      CODE     ---       #339
      00FF0D86H   LINE      CODE     ---       #340
      00FF0D9DH   LINE      CODE     ---       #342
      00FF0DA0H   LINE      CODE     ---       #344
      00FF0DA8H   LINE      CODE     ---       #345
      00FF0DB6H   LINE      CODE     ---       #346
      00FF0DC0H   LINE      CODE     ---       #347
      00FF0DC8H   LINE      CODE     ---       #348
      ---         BLOCKEND  ---      ---       LVL=0

      00FF1595H   BLOCK     CODE     ---       LVL=0
      000000A3H   SYMBOL    EDATA    BYTE      x
      000000A4H   SYMBOL    EDATA    BYTE      y
      REG=3       REGSYM    ---      ---       str
      00FF1595H   LINE      CODE     ---       #350
      00FF15A1H   LINE      CODE     ---       #352
      00FF15ABH   LINE      CODE     ---       #354
      00FF15AEH   LINE      CODE     ---       #355
      00FF15B4H   LINE      CODE     ---       #356
      00FF15BAH   LINE      CODE     ---       #357
      00FF15C2H   LINE      CODE     ---       #358
      00FF15CAH   LINE      CODE     ---       #360
      00FF15CDH   LINE      CODE     ---       #361
L251 LINKER/LOCATER V4.66.93.0                                                        07/09/2022  14:00:38  PAGE 41


      ---         BLOCKEND  ---      ---       LVL=0

      00FF11F3H   BLOCK     CODE     ---       LVL=0
      R12         REGSYM    ---      BYTE      x
      R13         REGSYM    ---      BYTE      y
      R14         REGSYM    ---      BYTE      cx
      R15         REGSYM    ---      BYTE      cy
      REG=7       REGSYM    ---      ---       dat
      00FF11F3H   LINE      CODE     ---       #363
      00FF11FFH   LINE      CODE     ---       #365
      00FF1213H   LINE      CODE     ---       #367
      00FF1216H   LINE      CODE     ---       #368
      00FF121CH   LINE      CODE     ---       #369
      00FF1222H   LINE      CODE     ---       #370
      00FF1228H   LINE      CODE     ---       #371
      00FF122EH   LINE      CODE     ---       #372
      00FF1234H   LINE      CODE     ---       #373
      00FF123AH   LINE      CODE     ---       #375
      00FF123DH   LINE      CODE     ---       #376
      ---         BLOCKEND  ---      ---       LVL=0

      00FF1A80H   BLOCK     CODE     ---       LVL=0
      00FF1A80H   LINE      CODE     ---       #378
      00FF1A80H   LINE      CODE     ---       #380
      00FF1A86H   LINE      CODE     ---       #381
      00FF1A8CH   LINE      CODE     ---       #382
      00FF1A92H   LINE      CODE     ---       #383
      00FF1A98H   LINE      CODE     ---       #384
      ---         BLOCKEND  ---      ---       LVL=0

      00FF1C03H   BLOCK     CODE     ---       LVL=0
      00FF1C03H   LINE      CODE     ---       #386
      00FF1C03H   LINE      CODE     ---       #388
      00FF1C06H   LINE      CODE     ---       #389
      00FF1C0CH   LINE      CODE     ---       #390
      00FF1C12H   LINE      CODE     ---       #391
      00FF1C17H   LINE      CODE     ---       #393
      ---         BLOCKEND  ---      ---       LVL=0

      00FF1B13H   BLOCK     CODE     ---       LVL=0
      00FF1B13H   LINE      CODE     ---       #396
      00FF1B13H   LINE      CODE     ---       #398
      00FF1B16H   LINE      CODE     ---       #399
      00FF1B1CH   LINE      CODE     ---       #400
      00FF1B22H   LINE      CODE     ---       #401
      00FF1B28H   LINE      CODE     ---       #403
      ---         BLOCKEND  ---      ---       LVL=0

      00FF1C8DH   BLOCK     CODE     ---       LVL=0
      00FF1C8DH   LINE      CODE     ---       #406
      00FF1C8DH   LINE      CODE     ---       #408
      00FF1C90H   LINE      CODE     ---       #409
      00FF1C96H   LINE      CODE     ---       #410
      00FF1C9CH   LINE      CODE     ---       #411
      00FF1CA1H   LINE      CODE     ---       #413
      ---         BLOCKEND  ---      ---       LVL=0

      00FF1B8BH   BLOCK     CODE     ---       LVL=0
      00FF1B8BH   LINE      CODE     ---       #416
      00FF1B8BH   LINE      CODE     ---       #418
      00FF1B8EH   LINE      CODE     ---       #419
      00FF1B94H   LINE      CODE     ---       #420
      00FF1B9AH   LINE      CODE     ---       #421
      00FF1BA0H   LINE      CODE     ---       #423
      ---         BLOCKEND  ---      ---       LVL=0
L251 LINKER/LOCATER V4.66.93.0                                                        07/09/2022  14:00:38  PAGE 42



      00FF1C76H   BLOCK     CODE     ---       LVL=0
      00FF1C76H   LINE      CODE     ---       #426
      00FF1C76H   LINE      CODE     ---       #428
      00FF1C79H   LINE      CODE     ---       #429
      00FF1C7FH   LINE      CODE     ---       #430
      00FF1C85H   LINE      CODE     ---       #431
      00FF1C8AH   LINE      CODE     ---       #433
      ---         BLOCKEND  ---      ---       LVL=0

      00FF1B5BH   BLOCK     CODE     ---       LVL=0
      00FF1B5BH   LINE      CODE     ---       #436
      00FF1B5BH   LINE      CODE     ---       #438
      00FF1B5EH   LINE      CODE     ---       #439
      00FF1B64H   LINE      CODE     ---       #440
      00FF1B6AH   LINE      CODE     ---       #441
      00FF1B70H   LINE      CODE     ---       #443
      ---         BLOCKEND  ---      ---       LVL=0

      00FF1D4BH   BLOCK     CODE     ---       LVL=0
      00FF1D4BH   LINE      CODE     ---       #446
      00FF1D4BH   LINE      CODE     ---       #448
      00FF1D4EH   LINE      CODE     ---       #449
      00FF1D54H   LINE      CODE     ---       #450
      00FF1D5AH   LINE      CODE     ---       #452
      ---         BLOCKEND  ---      ---       LVL=0

      00FF19D4H   BLOCK     CODE     ---       LVL=0
      R15         REGSYM    ---      BYTE      bContrast
      00FF19D4H   LINE      CODE     ---       #455
      00FF19D8H   LINE      CODE     ---       #457
      00FF19DBH   LINE      CODE     ---       #458
      00FF19E1H   LINE      CODE     ---       #459
      00FF19E7H   LINE      CODE     ---       #460
      00FF19EDH   LINE      CODE     ---       #462
      00FF19F0H   LINE      CODE     ---       #463
      ---         BLOCKEND  ---      ---       LVL=0

      00FF19B5H   BLOCK     CODE     ---       LVL=0
      R15         REGSYM    ---      BYTE      bMode
      00FF19B5H   LINE      CODE     ---       #465
      00FF19B9H   LINE      CODE     ---       #467
      00FF19BCH   LINE      CODE     ---       #468
      00FF19C2H   LINE      CODE     ---       #469
      00FF19C8H   LINE      CODE     ---       #470
      00FF19CEH   LINE      CODE     ---       #472
      00FF19D1H   LINE      CODE     ---       #473
      ---         BLOCKEND  ---      ---       LVL=0

      00FF1724H   BLOCK     CODE     ---       LVL=0
      R12         REGSYM    ---      BYTE      bPageStart
      R13         REGSYM    ---      BYTE      bPageEnd
      WR14        REGSYM    ---      WORD      nInterval
      00FF1724H   LINE      CODE     ---       #475
      00FF172AH   LINE      CODE     ---       #477
      00FF172DH   LINE      CODE     ---       #478
      00FF1733H   LINE      CODE     ---       #479
      00FF1739H   LINE      CODE     ---       #480
      00FF173EH   LINE      CODE     ---       #481
      00FF1744H   LINE      CODE     ---       #482
      00FF174AH   LINE      CODE     ---       #483
      00FF1755H   LINE      CODE     ---       #485
      00FF1758H   LINE      CODE     ---       #486
      ---         BLOCKEND  ---      ---       LVL=0

L251 LINKER/LOCATER V4.66.93.0                                                        07/09/2022  14:00:38  PAGE 43


      00FF16B4H   BLOCK     CODE     ---       LVL=0
      R12         REGSYM    ---      BYTE      bPageStart
      R13         REGSYM    ---      BYTE      bPageEnd
      WR14        REGSYM    ---      WORD      nInterval
      00FF16B4H   LINE      CODE     ---       #488
      00FF16BAH   LINE      CODE     ---       #490
      00FF16BDH   LINE      CODE     ---       #491
      00FF16C3H   LINE      CODE     ---       #492
      00FF16C9H   LINE      CODE     ---       #493
      00FF16CFH   LINE      CODE     ---       #494
      00FF16D5H   LINE      CODE     ---       #495
      00FF16DBH   LINE      CODE     ---       #496
      00FF16E6H   LINE      CODE     ---       #498
      00FF16E9H   LINE      CODE     ---       #499
      ---         BLOCKEND  ---      ---       LVL=0

      00FF16ECH   BLOCK     CODE     ---       LVL=0
      R12         REGSYM    ---      BYTE      bPageStart
      R13         REGSYM    ---      BYTE      bPageEnd
      WR14        REGSYM    ---      WORD      nInterval
      00FF16ECH   LINE      CODE     ---       #501
      00FF16F2H   LINE      CODE     ---       #503
      00FF16F5H   LINE      CODE     ---       #504
      00FF16FBH   LINE      CODE     ---       #505
      00FF1701H   LINE      CODE     ---       #506
      00FF1707H   LINE      CODE     ---       #507
      00FF170DH   LINE      CODE     ---       #508
      00FF1713H   LINE      CODE     ---       #509
      00FF171EH   LINE      CODE     ---       #511
      00FF1721H   LINE      CODE     ---       #512
      ---         BLOCKEND  ---      ---       LVL=0

      00FF1AFBH   BLOCK     CODE     ---       LVL=0
      00FF1AFBH   LINE      CODE     ---       #514
      00FF1AFBH   LINE      CODE     ---       #516
      00FF1AFEH   LINE      CODE     ---       #517
      00FF1B04H   LINE      CODE     ---       #518
      00FF1B0AH   LINE      CODE     ---       #519
      00FF1B10H   LINE      CODE     ---       #521
      ---         BLOCKEND  ---      ---       LVL=0

      00FF1C31H   BLOCK     CODE     ---       LVL=0
      00FF1C31H   LINE      CODE     ---       #524
      00FF1C31H   LINE      CODE     ---       #526
      00FF1C34H   LINE      CODE     ---       #527
      00FF1C3AH   LINE      CODE     ---       #528
      00FF1C40H   LINE      CODE     ---       #529
      00FF1C45H   LINE      CODE     ---       #531
      ---         BLOCKEND  ---      ---       LVL=0

      00FF0CADH   BLOCK     CODE     ---       LVL=0
      REG=3       REGSYM    ---      ---       dat
      00000092H   SYMBOL    EDATA    WORD      size
      00FF0CB5H   BLOCK     CODE     NEAR LAB  LVL=1
      00000094H   SYMBOL    EDATA    BYTE      cnt
      00000095H   SYMBOL    EDATA    WORD      addr
      ---         BLOCKEND  ---      ---       LVL=1
      00FF0CADH   LINE      CODE     ---       #534
      00FF0CB5H   LINE      CODE     ---       #535
      00FF0CB5H   LINE      CODE     ---       #539
      00FF0CBBH   LINE      CODE     ---       #540
      00FF0CBDH   LINE      CODE     ---       #542
      00FF0CC3H   LINE      CODE     ---       #543
      00FF0CCDH   LINE      CODE     ---       #544
      00FF0CD1H   LINE      CODE     ---       #546
L251 LINKER/LOCATER V4.66.93.0                                                        07/09/2022  14:00:38  PAGE 44


      00FF0CD4H   LINE      CODE     ---       #547
      00FF0CE2H   LINE      CODE     ---       #548
      00FF0CE8H   LINE      CODE     ---       #549
      00FF0CF7H   LINE      CODE     ---       #550
      00FF0D0EH   LINE      CODE     ---       #552
      00FF0D11H   LINE      CODE     ---       #554
      00FF0D19H   LINE      CODE     ---       #555
      00FF0D27H   LINE      CODE     ---       #556
      00FF0D31H   LINE      CODE     ---       #557
      00FF0D39H   LINE      CODE     ---       #558
      ---         BLOCKEND  ---      ---       LVL=0

      00FF1427H   BLOCK     CODE     ---       LVL=0
      R12         REGSYM    ---      BYTE      x
      R13         REGSYM    ---      BYTE      y
      R14         REGSYM    ---      BYTE      cx
      R15         REGSYM    ---      BYTE      cy
      REG=7       REGSYM    ---      ---       dat
      00FF1427H   LINE      CODE     ---       #560
      00FF1431H   LINE      CODE     ---       #562
      00FF1438H   LINE      CODE     ---       #564
      00FF143BH   LINE      CODE     ---       #565
      00FF1441H   LINE      CODE     ---       #566
      00FF1447H   LINE      CODE     ---       #567
      00FF144DH   LINE      CODE     ---       #568
      00FF1453H   LINE      CODE     ---       #569
      00FF1459H   LINE      CODE     ---       #570
      00FF145FH   LINE      CODE     ---       #572
      00FF1462H   LINE      CODE     ---       #573
      ---         BLOCKEND  ---      ---       LVL=0

      ---         MODULE    ---      ---       usb_desc
      00FF0EE2H   PUBLIC    CODE     ---       PRODUCTDESC
      00FF0EFCH   PUBLIC    CODE     ---       LANGIDDESC
      00FF0F00H   PUBLIC    CODE     ---       DEVICEDESC
      00FF0F12H   PUBLIC    CODE     ---       HIDREPORTDESC
      00FF0F2DH   PUBLIC    CODE     ---       CONFIGDESC
      00FF0F56H   PUBLIC    CODE     ---       PACKET0
      00FF0F58H   PUBLIC    CODE     ---       PACKET1
      00FF0F5AH   PUBLIC    CODE     ---       MANUFACTDESC
      000000D0H   SFRSYM    DATA     BYTE      PSW
      0000009DH   SFRSYM    DATA     BYTE      IRCBAND
      00000097H   SFRSYM    DATA     BYTE      AUXR2
      000000EFH   SFRSYM    DATA     BYTE      AUXINTIF
      000000FDH   SFRSYM    DATA     BYTE      S4CON
      000000ACH   SFRSYM    DATA     BYTE      S3CON
      0000009AH   SFRSYM    DATA     BYTE      S2CON
      000000B7H   SFRSYM    DATA     BYTE      IPH
      000000CDH   SFRSYM    DATA     BYTE      SPSTAT
      000000DDH   SFRSYM    DATA     BYTE      T4T3M
      000000C1H   SFRSYM    DATA     BYTE      WDT_CONTR
      000000DFH   SFRSYM    DATA     BYTE      IP3
      000000F4H   SFRSYM    DATA     BYTE      USBCON
      000000B5H   SFRSYM    DATA     BYTE      IP2
      000000FFH   SFRSYM    DATA     BYTE      RSTCFG
      000000F9H   SFRSYM    DATA     BYTE      LINICR
      0000008EH   SFRSYM    DATA     BYTE      AUXR
      000000AFH   SFRSYM    DATA     BYTE      IE2
      00000088H   SFRSYM    DATA     BYTE      TCON
      00000098H   SFRSYM    DATA     BYTE      SCON
      000000F1H   SFRSYM    DATA     BYTE      CANICR
      00000087H   SFRSYM    DATA     BYTE      PCON
      000000BCH   SFRSYM    DATA     BYTE      ADC_CONTR
      000000E7H   SFRSYM    DATA     BYTE      CMPCR2
      000000E6H   SFRSYM    DATA     BYTE      CMPCR1
L251 LINKER/LOCATER V4.66.93.0                                                        07/09/2022  14:00:38  PAGE 45


      000000B8H   SFRSYM    DATA     BYTE      IP
      0000008FH   SFRSYM    DATA     BYTE      INTCLKO
      000000EEH   SFRSYM    DATA     BYTE      IP3H
      000000B6H   SFRSYM    DATA     BYTE      IP2H
      000000A8H   SFRSYM    DATA     BYTE      IE
      000000BBH   SFRSYM    DATA     BYTE      P_SW3
      000000BAH   SFRSYM    DATA     BYTE      P_SW2
      000000A2H   SFRSYM    DATA     BYTE      P_SW1
      000000CEH   SFRSYM    DATA     BYTE      SPCTL
      000000F8H   SFRSYM    DATA     BYTE      P7
      000000E8H   SFRSYM    DATA     BYTE      P6
      000000C8H   SFRSYM    DATA     BYTE      P5
      000000C0H   SFRSYM    DATA     BYTE      P4
      000000B0H   SFRSYM    DATA     BYTE      P3
      000000A0H   SFRSYM    DATA     BYTE      P2
      00000090H   SFRSYM    DATA     BYTE      P1
      00000080H   SFRSYM    DATA     BYTE      P0

      ---         MODULE    ---      ---       VSPRINTF
      00000093H   PUBLIC    EDATA    ---       ?VSPRINTF?BYTE
      00FF00CEH   PUBLIC    CODE     NEAR LAB  VSPRINTF

      ---         MODULE    ---      ---       ?C?PRNFMT
      00FF0117H   PUBLIC    CODE     ---       ?C?PRNFMT

      ---         MODULE    ---      ---       ?C?FPCONVERT
      00FF0534H   PUBLIC    CODE     ---       ?C?FPCONVERT
      00FF05ECH   PUBLIC    CODE     ---       ?C?FPROUND

      ---         MODULE    ---      ---       ?C?FPMUL
      00FF062FH   PUBLIC    CODE     ---       ?C?FPMUL

      ---         MODULE    ---      ---       ?C?FPDIV
      00FF06CFH   PUBLIC    CODE     ---       ?C?FPDIV

      ---         MODULE    ---      ---       ?C?FTNPWR
      00FF0780H   PUBLIC    CODE     ---       ?C?FTNPWR

      ---         MODULE    ---      ---       ?C?FPGETOPN
      00FF07B7H   PUBLIC    CODE     ---       ?C?FPGETOPN2
      00FF07F4H   PUBLIC    CODE     ---       ?C?FPNANRESULT
      00FF07FCH   PUBLIC    CODE     ---       ?C?FPOVERFLOW
      00FF07D0H   PUBLIC    CODE     ---       ?C?FPRESULT
      00FF07E6H   PUBLIC    CODE     ---       ?C?FPRESULT2
      00FF07F9H   PUBLIC    CODE     ---       ?C?FPUNDERFLOW

      ---         MODULE    ---      ---       ?C_START
      00FF0000H   PUBLIC    CODE     ---       ?C?STARTUP
      00FF0000H   PUBLIC    CODE     ---       ?C_STARTUP

      ---         MODULE    ---      ---       ?C?INITEDATA
      00FF13BDH   PUBLIC    CODE     ---       ?C?INITEDATA

      ---         MODULE    ---      ---       ?C?LMUL
      00FF0808H   PUBLIC    CODE     ---       ?C?LMUL

      ---         MODULE    ---      ---       ?C?SLDIV
      00FF0819H   PUBLIC    CODE     NEAR LAB  ?C?SLDIV

      ---         MODULE    ---      ---       STRCMP?_
      00FF1A51H   PUBLIC    CODE     NEAR LAB  STRCMP?_

      ---         MODULE    ---      ---       STRLEN
      00FF1D98H   PUBLIC    CODE     ---       strlen?_

L251 LINKER/LOCATER V4.66.93.0                                                        07/09/2022  14:00:38  PAGE 46


      ---         MODULE    ---      ---       memcpy
      00FF1990H   PUBLIC    CODE     ---       memcpy?_

      ---         MODULE    ---      ---       ?C?INITEDATA_END
      00FF1DDEH   PUBLIC    HCONST   WORD      ?C?INITEDATA_END

      ---         MODULE    ---      ---       ?C?ULDIV
      00FF084FH   PUBLIC    CODE     NEAR LAB  ?C?ULDIV
      00FF084DH   PUBLIC    CODE     NEAR LAB  ?C?ULIDIV

Program Size: data=8.7 edata+hdata=412 xdata=320 const=39 code=7615
L251 RUN COMPLETE.  0 WARNING(S),  0 ERROR(S)
